
;CodeVisionAVR C Compiler V3.12 Advanced
;(C) Copyright 1998-2014 Pavel Haiduc, HP InfoTech s.r.l.
;http://www.hpinfotech.com

;Build configuration    : Debug
;Chip type              : ATmega328P
;Program type           : Application
;Clock frequency        : 16,000000 MHz
;Memory model           : Small
;Optimize for           : Size
;(s)printf features     : int, width
;(s)scanf features      : int, width
;External RAM size      : 0
;Data Stack size        : 512 byte(s)
;Heap size              : 0 byte(s)
;Promote 'char' to 'int': Yes
;'char' is unsigned     : Yes
;8 bit enums            : Yes
;Global 'const' stored in FLASH: Yes
;Enhanced function parameter passing: Yes
;Enhanced core instructions: On
;Automatic register allocation for global variables: On
;Smart register allocation: On

	#define _MODEL_SMALL_

	#pragma AVRPART ADMIN PART_NAME ATmega328P
	#pragma AVRPART MEMORY PROG_FLASH 32768
	#pragma AVRPART MEMORY EEPROM 1024
	#pragma AVRPART MEMORY INT_SRAM SIZE 2048
	#pragma AVRPART MEMORY INT_SRAM START_ADDR 0x100

	#define CALL_SUPPORTED 1

	.LISTMAC
	.EQU EERE=0x0
	.EQU EEWE=0x1
	.EQU EEMWE=0x2
	.EQU UDRE=0x5
	.EQU RXC=0x7
	.EQU EECR=0x1F
	.EQU EEDR=0x20
	.EQU EEARL=0x21
	.EQU EEARH=0x22
	.EQU SPSR=0x2D
	.EQU SPDR=0x2E
	.EQU SMCR=0x33
	.EQU MCUSR=0x34
	.EQU MCUCR=0x35
	.EQU WDTCSR=0x60
	.EQU UCSR0A=0xC0
	.EQU UDR0=0xC6
	.EQU SPL=0x3D
	.EQU SPH=0x3E
	.EQU SREG=0x3F
	.EQU GPIOR0=0x1E

	.DEF R0X0=R0
	.DEF R0X1=R1
	.DEF R0X2=R2
	.DEF R0X3=R3
	.DEF R0X4=R4
	.DEF R0X5=R5
	.DEF R0X6=R6
	.DEF R0X7=R7
	.DEF R0X8=R8
	.DEF R0X9=R9
	.DEF R0XA=R10
	.DEF R0XB=R11
	.DEF R0XC=R12
	.DEF R0XD=R13
	.DEF R0XE=R14
	.DEF R0XF=R15
	.DEF R0X10=R16
	.DEF R0X11=R17
	.DEF R0X12=R18
	.DEF R0X13=R19
	.DEF R0X14=R20
	.DEF R0X15=R21
	.DEF R0X16=R22
	.DEF R0X17=R23
	.DEF R0X18=R24
	.DEF R0X19=R25
	.DEF R0X1A=R26
	.DEF R0X1B=R27
	.DEF R0X1C=R28
	.DEF R0X1D=R29
	.DEF R0X1E=R30
	.DEF R0X1F=R31

	.EQU __SRAM_START=0x0100
	.EQU __SRAM_END=0x08FF
	.EQU __DSTACK_SIZE=0x0200
	.EQU __HEAP_SIZE=0x0000
	.EQU __CLEAR_SRAM_SIZE=__SRAM_END-__SRAM_START+1

	.MACRO __CPD1N
	CPI  R30,LOW(@0)
	LDI  R26,HIGH(@0)
	CPC  R31,R26
	LDI  R26,BYTE3(@0)
	CPC  R22,R26
	LDI  R26,BYTE4(@0)
	CPC  R23,R26
	.ENDM

	.MACRO __CPD2N
	CPI  R26,LOW(@0)
	LDI  R30,HIGH(@0)
	CPC  R27,R30
	LDI  R30,BYTE3(@0)
	CPC  R24,R30
	LDI  R30,BYTE4(@0)
	CPC  R25,R30
	.ENDM

	.MACRO __CPWRR
	CP   R@0,R@2
	CPC  R@1,R@3
	.ENDM

	.MACRO __CPWRN
	CPI  R@0,LOW(@2)
	LDI  R30,HIGH(@2)
	CPC  R@1,R30
	.ENDM

	.MACRO __ADDB1MN
	SUBI R30,LOW(-@0-(@1))
	.ENDM

	.MACRO __ADDB2MN
	SUBI R26,LOW(-@0-(@1))
	.ENDM

	.MACRO __ADDW1MN
	SUBI R30,LOW(-@0-(@1))
	SBCI R31,HIGH(-@0-(@1))
	.ENDM

	.MACRO __ADDW2MN
	SUBI R26,LOW(-@0-(@1))
	SBCI R27,HIGH(-@0-(@1))
	.ENDM

	.MACRO __ADDW1FN
	SUBI R30,LOW(-2*@0-(@1))
	SBCI R31,HIGH(-2*@0-(@1))
	.ENDM

	.MACRO __ADDD1FN
	SUBI R30,LOW(-2*@0-(@1))
	SBCI R31,HIGH(-2*@0-(@1))
	SBCI R22,BYTE3(-2*@0-(@1))
	.ENDM

	.MACRO __ADDD1N
	SUBI R30,LOW(-@0)
	SBCI R31,HIGH(-@0)
	SBCI R22,BYTE3(-@0)
	SBCI R23,BYTE4(-@0)
	.ENDM

	.MACRO __ADDD2N
	SUBI R26,LOW(-@0)
	SBCI R27,HIGH(-@0)
	SBCI R24,BYTE3(-@0)
	SBCI R25,BYTE4(-@0)
	.ENDM

	.MACRO __SUBD1N
	SUBI R30,LOW(@0)
	SBCI R31,HIGH(@0)
	SBCI R22,BYTE3(@0)
	SBCI R23,BYTE4(@0)
	.ENDM

	.MACRO __SUBD2N
	SUBI R26,LOW(@0)
	SBCI R27,HIGH(@0)
	SBCI R24,BYTE3(@0)
	SBCI R25,BYTE4(@0)
	.ENDM

	.MACRO __ANDBMNN
	LDS  R30,@0+(@1)
	ANDI R30,LOW(@2)
	STS  @0+(@1),R30
	.ENDM

	.MACRO __ANDWMNN
	LDS  R30,@0+(@1)
	ANDI R30,LOW(@2)
	STS  @0+(@1),R30
	LDS  R30,@0+(@1)+1
	ANDI R30,HIGH(@2)
	STS  @0+(@1)+1,R30
	.ENDM

	.MACRO __ANDD1N
	ANDI R30,LOW(@0)
	ANDI R31,HIGH(@0)
	ANDI R22,BYTE3(@0)
	ANDI R23,BYTE4(@0)
	.ENDM

	.MACRO __ANDD2N
	ANDI R26,LOW(@0)
	ANDI R27,HIGH(@0)
	ANDI R24,BYTE3(@0)
	ANDI R25,BYTE4(@0)
	.ENDM

	.MACRO __ORBMNN
	LDS  R30,@0+(@1)
	ORI  R30,LOW(@2)
	STS  @0+(@1),R30
	.ENDM

	.MACRO __ORWMNN
	LDS  R30,@0+(@1)
	ORI  R30,LOW(@2)
	STS  @0+(@1),R30
	LDS  R30,@0+(@1)+1
	ORI  R30,HIGH(@2)
	STS  @0+(@1)+1,R30
	.ENDM

	.MACRO __ORD1N
	ORI  R30,LOW(@0)
	ORI  R31,HIGH(@0)
	ORI  R22,BYTE3(@0)
	ORI  R23,BYTE4(@0)
	.ENDM

	.MACRO __ORD2N
	ORI  R26,LOW(@0)
	ORI  R27,HIGH(@0)
	ORI  R24,BYTE3(@0)
	ORI  R25,BYTE4(@0)
	.ENDM

	.MACRO __DELAY_USB
	LDI  R24,LOW(@0)
__DELAY_USB_LOOP:
	DEC  R24
	BRNE __DELAY_USB_LOOP
	.ENDM

	.MACRO __DELAY_USW
	LDI  R24,LOW(@0)
	LDI  R25,HIGH(@0)
__DELAY_USW_LOOP:
	SBIW R24,1
	BRNE __DELAY_USW_LOOP
	.ENDM

	.MACRO __GETD1S
	LDD  R30,Y+@0
	LDD  R31,Y+@0+1
	LDD  R22,Y+@0+2
	LDD  R23,Y+@0+3
	.ENDM

	.MACRO __GETD2S
	LDD  R26,Y+@0
	LDD  R27,Y+@0+1
	LDD  R24,Y+@0+2
	LDD  R25,Y+@0+3
	.ENDM

	.MACRO __PUTD1S
	STD  Y+@0,R30
	STD  Y+@0+1,R31
	STD  Y+@0+2,R22
	STD  Y+@0+3,R23
	.ENDM

	.MACRO __PUTD2S
	STD  Y+@0,R26
	STD  Y+@0+1,R27
	STD  Y+@0+2,R24
	STD  Y+@0+3,R25
	.ENDM

	.MACRO __PUTDZ2
	STD  Z+@0,R26
	STD  Z+@0+1,R27
	STD  Z+@0+2,R24
	STD  Z+@0+3,R25
	.ENDM

	.MACRO __CLRD1S
	STD  Y+@0,R30
	STD  Y+@0+1,R30
	STD  Y+@0+2,R30
	STD  Y+@0+3,R30
	.ENDM

	.MACRO __POINTB1MN
	LDI  R30,LOW(@0+(@1))
	.ENDM

	.MACRO __POINTW1MN
	LDI  R30,LOW(@0+(@1))
	LDI  R31,HIGH(@0+(@1))
	.ENDM

	.MACRO __POINTD1M
	LDI  R30,LOW(@0)
	LDI  R31,HIGH(@0)
	LDI  R22,BYTE3(@0)
	LDI  R23,BYTE4(@0)
	.ENDM

	.MACRO __POINTW1FN
	LDI  R30,LOW(2*@0+(@1))
	LDI  R31,HIGH(2*@0+(@1))
	.ENDM

	.MACRO __POINTD1FN
	LDI  R30,LOW(2*@0+(@1))
	LDI  R31,HIGH(2*@0+(@1))
	LDI  R22,BYTE3(2*@0+(@1))
	LDI  R23,BYTE4(2*@0+(@1))
	.ENDM

	.MACRO __POINTB2MN
	LDI  R26,LOW(@0+(@1))
	.ENDM

	.MACRO __POINTW2MN
	LDI  R26,LOW(@0+(@1))
	LDI  R27,HIGH(@0+(@1))
	.ENDM

	.MACRO __POINTW2FN
	LDI  R26,LOW(2*@0+(@1))
	LDI  R27,HIGH(2*@0+(@1))
	.ENDM

	.MACRO __POINTD2FN
	LDI  R26,LOW(2*@0+(@1))
	LDI  R27,HIGH(2*@0+(@1))
	LDI  R24,BYTE3(2*@0+(@1))
	LDI  R25,BYTE4(2*@0+(@1))
	.ENDM

	.MACRO __POINTBRM
	LDI  R@0,LOW(@1)
	.ENDM

	.MACRO __POINTWRM
	LDI  R@0,LOW(@2)
	LDI  R@1,HIGH(@2)
	.ENDM

	.MACRO __POINTBRMN
	LDI  R@0,LOW(@1+(@2))
	.ENDM

	.MACRO __POINTWRMN
	LDI  R@0,LOW(@2+(@3))
	LDI  R@1,HIGH(@2+(@3))
	.ENDM

	.MACRO __POINTWRFN
	LDI  R@0,LOW(@2*2+(@3))
	LDI  R@1,HIGH(@2*2+(@3))
	.ENDM

	.MACRO __GETD1N
	LDI  R30,LOW(@0)
	LDI  R31,HIGH(@0)
	LDI  R22,BYTE3(@0)
	LDI  R23,BYTE4(@0)
	.ENDM

	.MACRO __GETD2N
	LDI  R26,LOW(@0)
	LDI  R27,HIGH(@0)
	LDI  R24,BYTE3(@0)
	LDI  R25,BYTE4(@0)
	.ENDM

	.MACRO __GETB1MN
	LDS  R30,@0+(@1)
	.ENDM

	.MACRO __GETB1HMN
	LDS  R31,@0+(@1)
	.ENDM

	.MACRO __GETW1MN
	LDS  R30,@0+(@1)
	LDS  R31,@0+(@1)+1
	.ENDM

	.MACRO __GETD1MN
	LDS  R30,@0+(@1)
	LDS  R31,@0+(@1)+1
	LDS  R22,@0+(@1)+2
	LDS  R23,@0+(@1)+3
	.ENDM

	.MACRO __GETBRMN
	LDS  R@0,@1+(@2)
	.ENDM

	.MACRO __GETWRMN
	LDS  R@0,@2+(@3)
	LDS  R@1,@2+(@3)+1
	.ENDM

	.MACRO __GETWRZ
	LDD  R@0,Z+@2
	LDD  R@1,Z+@2+1
	.ENDM

	.MACRO __GETD2Z
	LDD  R26,Z+@0
	LDD  R27,Z+@0+1
	LDD  R24,Z+@0+2
	LDD  R25,Z+@0+3
	.ENDM

	.MACRO __GETB2MN
	LDS  R26,@0+(@1)
	.ENDM

	.MACRO __GETW2MN
	LDS  R26,@0+(@1)
	LDS  R27,@0+(@1)+1
	.ENDM

	.MACRO __GETD2MN
	LDS  R26,@0+(@1)
	LDS  R27,@0+(@1)+1
	LDS  R24,@0+(@1)+2
	LDS  R25,@0+(@1)+3
	.ENDM

	.MACRO __PUTB1MN
	STS  @0+(@1),R30
	.ENDM

	.MACRO __PUTW1MN
	STS  @0+(@1),R30
	STS  @0+(@1)+1,R31
	.ENDM

	.MACRO __PUTD1MN
	STS  @0+(@1),R30
	STS  @0+(@1)+1,R31
	STS  @0+(@1)+2,R22
	STS  @0+(@1)+3,R23
	.ENDM

	.MACRO __PUTB1EN
	LDI  R26,LOW(@0+(@1))
	LDI  R27,HIGH(@0+(@1))
	CALL __EEPROMWRB
	.ENDM

	.MACRO __PUTW1EN
	LDI  R26,LOW(@0+(@1))
	LDI  R27,HIGH(@0+(@1))
	CALL __EEPROMWRW
	.ENDM

	.MACRO __PUTD1EN
	LDI  R26,LOW(@0+(@1))
	LDI  R27,HIGH(@0+(@1))
	CALL __EEPROMWRD
	.ENDM

	.MACRO __PUTBR0MN
	STS  @0+(@1),R0
	.ENDM

	.MACRO __PUTBMRN
	STS  @0+(@1),R@2
	.ENDM

	.MACRO __PUTWMRN
	STS  @0+(@1),R@2
	STS  @0+(@1)+1,R@3
	.ENDM

	.MACRO __PUTBZR
	STD  Z+@1,R@0
	.ENDM

	.MACRO __PUTWZR
	STD  Z+@2,R@0
	STD  Z+@2+1,R@1
	.ENDM

	.MACRO __GETW1R
	MOV  R30,R@0
	MOV  R31,R@1
	.ENDM

	.MACRO __GETW2R
	MOV  R26,R@0
	MOV  R27,R@1
	.ENDM

	.MACRO __GETWRN
	LDI  R@0,LOW(@2)
	LDI  R@1,HIGH(@2)
	.ENDM

	.MACRO __PUTW1R
	MOV  R@0,R30
	MOV  R@1,R31
	.ENDM

	.MACRO __PUTW2R
	MOV  R@0,R26
	MOV  R@1,R27
	.ENDM

	.MACRO __ADDWRN
	SUBI R@0,LOW(-@2)
	SBCI R@1,HIGH(-@2)
	.ENDM

	.MACRO __ADDWRR
	ADD  R@0,R@2
	ADC  R@1,R@3
	.ENDM

	.MACRO __SUBWRN
	SUBI R@0,LOW(@2)
	SBCI R@1,HIGH(@2)
	.ENDM

	.MACRO __SUBWRR
	SUB  R@0,R@2
	SBC  R@1,R@3
	.ENDM

	.MACRO __ANDWRN
	ANDI R@0,LOW(@2)
	ANDI R@1,HIGH(@2)
	.ENDM

	.MACRO __ANDWRR
	AND  R@0,R@2
	AND  R@1,R@3
	.ENDM

	.MACRO __ORWRN
	ORI  R@0,LOW(@2)
	ORI  R@1,HIGH(@2)
	.ENDM

	.MACRO __ORWRR
	OR   R@0,R@2
	OR   R@1,R@3
	.ENDM

	.MACRO __EORWRR
	EOR  R@0,R@2
	EOR  R@1,R@3
	.ENDM

	.MACRO __GETWRS
	LDD  R@0,Y+@2
	LDD  R@1,Y+@2+1
	.ENDM

	.MACRO __PUTBSR
	STD  Y+@1,R@0
	.ENDM

	.MACRO __PUTWSR
	STD  Y+@2,R@0
	STD  Y+@2+1,R@1
	.ENDM

	.MACRO __MOVEWRR
	MOV  R@0,R@2
	MOV  R@1,R@3
	.ENDM

	.MACRO __INWR
	IN   R@0,@2
	IN   R@1,@2+1
	.ENDM

	.MACRO __OUTWR
	OUT  @2+1,R@1
	OUT  @2,R@0
	.ENDM

	.MACRO __CALL1MN
	LDS  R30,@0+(@1)
	LDS  R31,@0+(@1)+1
	ICALL
	.ENDM

	.MACRO __CALL1FN
	LDI  R30,LOW(2*@0+(@1))
	LDI  R31,HIGH(2*@0+(@1))
	CALL __GETW1PF
	ICALL
	.ENDM

	.MACRO __CALL2EN
	PUSH R26
	PUSH R27
	LDI  R26,LOW(@0+(@1))
	LDI  R27,HIGH(@0+(@1))
	CALL __EEPROMRDW
	POP  R27
	POP  R26
	ICALL
	.ENDM

	.MACRO __CALL2EX
	SUBI R26,LOW(-@0)
	SBCI R27,HIGH(-@0)
	CALL __EEPROMRDD
	ICALL
	.ENDM

	.MACRO __GETW1STACK
	IN   R30,SPL
	IN   R31,SPH
	ADIW R30,@0+1
	LD   R0,Z+
	LD   R31,Z
	MOV  R30,R0
	.ENDM

	.MACRO __GETD1STACK
	IN   R30,SPL
	IN   R31,SPH
	ADIW R30,@0+1
	LD   R0,Z+
	LD   R1,Z+
	LD   R22,Z
	MOVW R30,R0
	.ENDM

	.MACRO __NBST
	BST  R@0,@1
	IN   R30,SREG
	LDI  R31,0x40
	EOR  R30,R31
	OUT  SREG,R30
	.ENDM


	.MACRO __PUTB1SN
	LDD  R26,Y+@0
	LDD  R27,Y+@0+1
	SUBI R26,LOW(-@1)
	SBCI R27,HIGH(-@1)
	ST   X,R30
	.ENDM

	.MACRO __PUTW1SN
	LDD  R26,Y+@0
	LDD  R27,Y+@0+1
	SUBI R26,LOW(-@1)
	SBCI R27,HIGH(-@1)
	ST   X+,R30
	ST   X,R31
	.ENDM

	.MACRO __PUTD1SN
	LDD  R26,Y+@0
	LDD  R27,Y+@0+1
	SUBI R26,LOW(-@1)
	SBCI R27,HIGH(-@1)
	CALL __PUTDP1
	.ENDM

	.MACRO __PUTB1SNS
	LDD  R26,Y+@0
	LDD  R27,Y+@0+1
	ADIW R26,@1
	ST   X,R30
	.ENDM

	.MACRO __PUTW1SNS
	LDD  R26,Y+@0
	LDD  R27,Y+@0+1
	ADIW R26,@1
	ST   X+,R30
	ST   X,R31
	.ENDM

	.MACRO __PUTD1SNS
	LDD  R26,Y+@0
	LDD  R27,Y+@0+1
	ADIW R26,@1
	CALL __PUTDP1
	.ENDM

	.MACRO __PUTB1PMN
	LDS  R26,@0
	LDS  R27,@0+1
	SUBI R26,LOW(-@1)
	SBCI R27,HIGH(-@1)
	ST   X,R30
	.ENDM

	.MACRO __PUTW1PMN
	LDS  R26,@0
	LDS  R27,@0+1
	SUBI R26,LOW(-@1)
	SBCI R27,HIGH(-@1)
	ST   X+,R30
	ST   X,R31
	.ENDM

	.MACRO __PUTD1PMN
	LDS  R26,@0
	LDS  R27,@0+1
	SUBI R26,LOW(-@1)
	SBCI R27,HIGH(-@1)
	CALL __PUTDP1
	.ENDM

	.MACRO __PUTB1PMNS
	LDS  R26,@0
	LDS  R27,@0+1
	ADIW R26,@1
	ST   X,R30
	.ENDM

	.MACRO __PUTW1PMNS
	LDS  R26,@0
	LDS  R27,@0+1
	ADIW R26,@1
	ST   X+,R30
	ST   X,R31
	.ENDM

	.MACRO __PUTD1PMNS
	LDS  R26,@0
	LDS  R27,@0+1
	ADIW R26,@1
	CALL __PUTDP1
	.ENDM

	.MACRO __PUTB1RN
	MOVW R26,R@0
	SUBI R26,LOW(-@1)
	SBCI R27,HIGH(-@1)
	ST   X,R30
	.ENDM

	.MACRO __PUTW1RN
	MOVW R26,R@0
	SUBI R26,LOW(-@1)
	SBCI R27,HIGH(-@1)
	ST   X+,R30
	ST   X,R31
	.ENDM

	.MACRO __PUTD1RN
	MOVW R26,R@0
	SUBI R26,LOW(-@1)
	SBCI R27,HIGH(-@1)
	CALL __PUTDP1
	.ENDM

	.MACRO __PUTB1RNS
	MOVW R26,R@0
	ADIW R26,@1
	ST   X,R30
	.ENDM

	.MACRO __PUTW1RNS
	MOVW R26,R@0
	ADIW R26,@1
	ST   X+,R30
	ST   X,R31
	.ENDM

	.MACRO __PUTD1RNS
	MOVW R26,R@0
	ADIW R26,@1
	CALL __PUTDP1
	.ENDM

	.MACRO __PUTB1RON
	MOV  R26,R@0
	MOV  R27,R@1
	SUBI R26,LOW(-@2)
	SBCI R27,HIGH(-@2)
	ST   X,R30
	.ENDM

	.MACRO __PUTW1RON
	MOV  R26,R@0
	MOV  R27,R@1
	SUBI R26,LOW(-@2)
	SBCI R27,HIGH(-@2)
	ST   X+,R30
	ST   X,R31
	.ENDM

	.MACRO __PUTD1RON
	MOV  R26,R@0
	MOV  R27,R@1
	SUBI R26,LOW(-@2)
	SBCI R27,HIGH(-@2)
	CALL __PUTDP1
	.ENDM

	.MACRO __PUTB1RONS
	MOV  R26,R@0
	MOV  R27,R@1
	ADIW R26,@2
	ST   X,R30
	.ENDM

	.MACRO __PUTW1RONS
	MOV  R26,R@0
	MOV  R27,R@1
	ADIW R26,@2
	ST   X+,R30
	ST   X,R31
	.ENDM

	.MACRO __PUTD1RONS
	MOV  R26,R@0
	MOV  R27,R@1
	ADIW R26,@2
	CALL __PUTDP1
	.ENDM


	.MACRO __GETB1SX
	MOVW R30,R28
	SUBI R30,LOW(-@0)
	SBCI R31,HIGH(-@0)
	LD   R30,Z
	.ENDM

	.MACRO __GETB1HSX
	MOVW R30,R28
	SUBI R30,LOW(-@0)
	SBCI R31,HIGH(-@0)
	LD   R31,Z
	.ENDM

	.MACRO __GETW1SX
	MOVW R30,R28
	SUBI R30,LOW(-@0)
	SBCI R31,HIGH(-@0)
	LD   R0,Z+
	LD   R31,Z
	MOV  R30,R0
	.ENDM

	.MACRO __GETD1SX
	MOVW R30,R28
	SUBI R30,LOW(-@0)
	SBCI R31,HIGH(-@0)
	LD   R0,Z+
	LD   R1,Z+
	LD   R22,Z+
	LD   R23,Z
	MOVW R30,R0
	.ENDM

	.MACRO __GETB2SX
	MOVW R26,R28
	SUBI R26,LOW(-@0)
	SBCI R27,HIGH(-@0)
	LD   R26,X
	.ENDM

	.MACRO __GETW2SX
	MOVW R26,R28
	SUBI R26,LOW(-@0)
	SBCI R27,HIGH(-@0)
	LD   R0,X+
	LD   R27,X
	MOV  R26,R0
	.ENDM

	.MACRO __GETD2SX
	MOVW R26,R28
	SUBI R26,LOW(-@0)
	SBCI R27,HIGH(-@0)
	LD   R0,X+
	LD   R1,X+
	LD   R24,X+
	LD   R25,X
	MOVW R26,R0
	.ENDM

	.MACRO __GETBRSX
	MOVW R30,R28
	SUBI R30,LOW(-@1)
	SBCI R31,HIGH(-@1)
	LD   R@0,Z
	.ENDM

	.MACRO __GETWRSX
	MOVW R30,R28
	SUBI R30,LOW(-@2)
	SBCI R31,HIGH(-@2)
	LD   R@0,Z+
	LD   R@1,Z
	.ENDM

	.MACRO __GETBRSX2
	MOVW R26,R28
	SUBI R26,LOW(-@1)
	SBCI R27,HIGH(-@1)
	LD   R@0,X
	.ENDM

	.MACRO __GETWRSX2
	MOVW R26,R28
	SUBI R26,LOW(-@2)
	SBCI R27,HIGH(-@2)
	LD   R@0,X+
	LD   R@1,X
	.ENDM

	.MACRO __LSLW8SX
	MOVW R30,R28
	SUBI R30,LOW(-@0)
	SBCI R31,HIGH(-@0)
	LD   R31,Z
	CLR  R30
	.ENDM

	.MACRO __PUTB1SX
	MOVW R26,R28
	SUBI R26,LOW(-@0)
	SBCI R27,HIGH(-@0)
	ST   X,R30
	.ENDM

	.MACRO __PUTW1SX
	MOVW R26,R28
	SUBI R26,LOW(-@0)
	SBCI R27,HIGH(-@0)
	ST   X+,R30
	ST   X,R31
	.ENDM

	.MACRO __PUTD1SX
	MOVW R26,R28
	SUBI R26,LOW(-@0)
	SBCI R27,HIGH(-@0)
	ST   X+,R30
	ST   X+,R31
	ST   X+,R22
	ST   X,R23
	.ENDM

	.MACRO __CLRW1SX
	MOVW R26,R28
	SUBI R26,LOW(-@0)
	SBCI R27,HIGH(-@0)
	ST   X+,R30
	ST   X,R30
	.ENDM

	.MACRO __CLRD1SX
	MOVW R26,R28
	SUBI R26,LOW(-@0)
	SBCI R27,HIGH(-@0)
	ST   X+,R30
	ST   X+,R30
	ST   X+,R30
	ST   X,R30
	.ENDM

	.MACRO __PUTB2SX
	MOVW R30,R28
	SUBI R30,LOW(-@0)
	SBCI R31,HIGH(-@0)
	ST   Z,R26
	.ENDM

	.MACRO __PUTW2SX
	MOVW R30,R28
	SUBI R30,LOW(-@0)
	SBCI R31,HIGH(-@0)
	ST   Z+,R26
	ST   Z,R27
	.ENDM

	.MACRO __PUTD2SX
	MOVW R30,R28
	SUBI R30,LOW(-@0)
	SBCI R31,HIGH(-@0)
	ST   Z+,R26
	ST   Z+,R27
	ST   Z+,R24
	ST   Z,R25
	.ENDM

	.MACRO __PUTBSRX
	MOVW R30,R28
	SUBI R30,LOW(-@1)
	SBCI R31,HIGH(-@1)
	ST   Z,R@0
	.ENDM

	.MACRO __PUTWSRX
	MOVW R30,R28
	SUBI R30,LOW(-@2)
	SBCI R31,HIGH(-@2)
	ST   Z+,R@0
	ST   Z,R@1
	.ENDM

	.MACRO __PUTB1SNX
	MOVW R26,R28
	SUBI R26,LOW(-@0)
	SBCI R27,HIGH(-@0)
	LD   R0,X+
	LD   R27,X
	MOV  R26,R0
	SUBI R26,LOW(-@1)
	SBCI R27,HIGH(-@1)
	ST   X,R30
	.ENDM

	.MACRO __PUTW1SNX
	MOVW R26,R28
	SUBI R26,LOW(-@0)
	SBCI R27,HIGH(-@0)
	LD   R0,X+
	LD   R27,X
	MOV  R26,R0
	SUBI R26,LOW(-@1)
	SBCI R27,HIGH(-@1)
	ST   X+,R30
	ST   X,R31
	.ENDM

	.MACRO __PUTD1SNX
	MOVW R26,R28
	SUBI R26,LOW(-@0)
	SBCI R27,HIGH(-@0)
	LD   R0,X+
	LD   R27,X
	MOV  R26,R0
	SUBI R26,LOW(-@1)
	SBCI R27,HIGH(-@1)
	ST   X+,R30
	ST   X+,R31
	ST   X+,R22
	ST   X,R23
	.ENDM

	.MACRO __MULBRR
	MULS R@0,R@1
	MOVW R30,R0
	.ENDM

	.MACRO __MULBRRU
	MUL  R@0,R@1
	MOVW R30,R0
	.ENDM

	.MACRO __MULBRR0
	MULS R@0,R@1
	.ENDM

	.MACRO __MULBRRU0
	MUL  R@0,R@1
	.ENDM

	.MACRO __MULBNWRU
	LDI  R26,@2
	MUL  R26,R@0
	MOVW R30,R0
	MUL  R26,R@1
	ADD  R31,R0
	.ENDM

;NAME DEFINITIONS FOR GLOBAL VARIABLES ALLOCATED TO REGISTERS
	.DEF _i=R3
	.DEF _i_msb=R4
	.DEF _j=R5
	.DEF _j_msb=R6
	.DEF _n=R7
	.DEF _n_msb=R8
	.DEF _m=R9
	.DEF _m_msb=R10
	.DEF _k=R11
	.DEF _k_msb=R12
	.DEF _o=R13
	.DEF _o_msb=R14

;GPIOR0 INITIALIZATION VALUE
	.EQU __GPIOR0_INIT=0x00

	.CSEG
	.ORG 0x00

;START OF CODE MARKER
__START_OF_CODE:

;INTERRUPT VECTORS
	JMP  __RESET
	JMP  _ext_int0_isr
	JMP  0x00
	JMP  0x00
	JMP  0x00
	JMP  0x00
	JMP  0x00
	JMP  0x00
	JMP  0x00
	JMP  _timer2_ovf_isr
	JMP  0x00
	JMP  0x00
	JMP  0x00
	JMP  _timer1_ovf_isr
	JMP  0x00
	JMP  0x00
	JMP  0x00
	JMP  0x00
	JMP  0x00
	JMP  0x00
	JMP  0x00
	JMP  0x00
	JMP  0x00
	JMP  0x00
	JMP  _twi_int_handler
	JMP  0x00

_font:
	.DB  0x0,0x0,0x0,0x0,0x0,0x3E,0x5B,0x4F
	.DB  0x5B,0x3E,0x3E,0x6B,0x4F,0x6B,0x3E,0x1C
	.DB  0x3E,0x7C,0x3E,0x1C,0x18,0x3C,0x7E,0x3C
	.DB  0x18,0x1C,0x57,0x7D,0x57,0x1C,0x1C,0x5E
	.DB  0x7F,0x5E,0x1C,0x0,0x18,0x3C,0x18,0x0
	.DB  0xFF,0xE7,0xC3,0xE7,0xFF,0x0,0x18,0x24
	.DB  0x18,0x0,0xFF,0xE7,0xDB,0xE7,0xFF,0x30
	.DB  0x48,0x3A,0x6,0xE,0x26,0x29,0x79,0x29
	.DB  0x26,0x40,0x7F,0x5,0x5,0x7,0x40,0x7F
	.DB  0x5,0x25,0x3F,0x5A,0x3C,0xE7,0x3C,0x5A
	.DB  0x7F,0x3E,0x1C,0x1C,0x8,0x8,0x1C,0x1C
	.DB  0x3E,0x7F,0x14,0x22,0x7F,0x22,0x14,0x5F
	.DB  0x5F,0x0,0x5F,0x5F,0x6,0x9,0x7F,0x1
	.DB  0x7F,0x0,0x66,0x89,0x95,0x6A,0x60,0x60
	.DB  0x60,0x60,0x60,0x94,0xA2,0xFF,0xA2,0x94
	.DB  0x8,0x4,0x7E,0x4,0x8,0x10,0x20,0x7E
	.DB  0x20,0x10,0x8,0x8,0x2A,0x1C,0x8,0x8
	.DB  0x1C,0x2A,0x8,0x8,0x1E,0x10,0x10,0x10
	.DB  0x10,0xC,0x1E,0xC,0x1E,0xC,0x30,0x38
	.DB  0x3E,0x38,0x30,0x6,0xE,0x3E,0xE,0x6
	.DB  0x0,0x0,0x0,0x0,0x0,0x0,0x0,0x5F
	.DB  0x0,0x0,0x0,0x7,0x0,0x7,0x0,0x14
	.DB  0x7F,0x14,0x7F,0x14,0x24,0x2A,0x7F,0x2A
	.DB  0x12,0x23,0x13,0x8,0x64,0x62,0x36,0x49
	.DB  0x56,0x20,0x50,0x0,0x8,0x7,0x3,0x0
	.DB  0x0,0x1C,0x22,0x41,0x0,0x0,0x41,0x22
	.DB  0x1C,0x0,0x2A,0x1C,0x7F,0x1C,0x2A,0x8
	.DB  0x8,0x3E,0x8,0x8,0x0,0x80,0x70,0x30
	.DB  0x0,0x8,0x8,0x8,0x8,0x8,0x0,0x0
	.DB  0x60,0x60,0x0,0x20,0x10,0x8,0x4,0x2
	.DB  0x3E,0x51,0x49,0x45,0x3E,0x0,0x42,0x7F
	.DB  0x40,0x0,0x72,0x49,0x49,0x49,0x46,0x21
	.DB  0x41,0x49,0x4D,0x33,0x18,0x14,0x12,0x7F
	.DB  0x10,0x27,0x45,0x45,0x45,0x39,0x3C,0x4A
	.DB  0x49,0x49,0x31,0x41,0x21,0x11,0x9,0x7
	.DB  0x36,0x49,0x49,0x49,0x36,0x46,0x49,0x49
	.DB  0x29,0x1E,0x0,0x0,0x14,0x0,0x0,0x0
	.DB  0x40,0x34,0x0,0x0,0x0,0x8,0x14,0x22
	.DB  0x41,0x14,0x14,0x14,0x14,0x14,0x0,0x41
	.DB  0x22,0x14,0x8,0x2,0x1,0x59,0x9,0x6
	.DB  0x3E,0x41,0x5D,0x59,0x4E,0x7C,0x12,0x11
	.DB  0x12,0x7C,0x7F,0x49,0x49,0x49,0x36,0x3E
	.DB  0x41,0x41,0x41,0x22,0x7F,0x41,0x41,0x41
	.DB  0x3E,0x7F,0x49,0x49,0x49,0x41,0x7F,0x9
	.DB  0x9,0x9,0x1,0x3E,0x41,0x41,0x51,0x73
	.DB  0x7F,0x8,0x8,0x8,0x7F,0x0,0x41,0x7F
	.DB  0x41,0x0,0x20,0x40,0x41,0x3F,0x1,0x7F
	.DB  0x8,0x14,0x22,0x41,0x7F,0x40,0x40,0x40
	.DB  0x40,0x7F,0x2,0x1C,0x2,0x7F,0x7F,0x4
	.DB  0x8,0x10,0x7F,0x3E,0x41,0x41,0x41,0x3E
	.DB  0x7F,0x9,0x9,0x9,0x6,0x3E,0x41,0x51
	.DB  0x21,0x5E,0x7F,0x9,0x19,0x29,0x46,0x26
	.DB  0x49,0x49,0x49,0x32,0x3,0x1,0x7F,0x1
	.DB  0x3,0x3F,0x40,0x40,0x40,0x3F,0x1F,0x20
	.DB  0x40,0x20,0x1F,0x3F,0x40,0x38,0x40,0x3F
	.DB  0x63,0x14,0x8,0x14,0x63,0x3,0x4,0x78
	.DB  0x4,0x3,0x61,0x59,0x49,0x4D,0x43,0x0
	.DB  0x7F,0x41,0x41,0x41,0x2,0x4,0x8,0x10
	.DB  0x20,0x0,0x41,0x41,0x41,0x7F,0x4,0x2
	.DB  0x1,0x2,0x4,0x40,0x40,0x40,0x40,0x40
	.DB  0x0,0x3,0x7,0x8,0x0,0x20,0x54,0x54
	.DB  0x78,0x40,0x7F,0x28,0x44,0x44,0x38,0x38
	.DB  0x44,0x44,0x44,0x28,0x38,0x44,0x44,0x28
	.DB  0x7F,0x38,0x54,0x54,0x54,0x18,0x0,0x8
	.DB  0x7E,0x9,0x2,0x18,0xA4,0xA4,0x9C,0x78
	.DB  0x7F,0x8,0x4,0x4,0x78,0x0,0x44,0x7D
	.DB  0x40,0x0,0x20,0x40,0x40,0x3D,0x0,0x7F
	.DB  0x10,0x28,0x44,0x0,0x0,0x41,0x7F,0x40
	.DB  0x0,0x7C,0x4,0x78,0x4,0x78,0x7C,0x8
	.DB  0x4,0x4,0x78,0x38,0x44,0x44,0x44,0x38
	.DB  0xFC,0x18,0x24,0x24,0x18,0x18,0x24,0x24
	.DB  0x18,0xFC,0x7C,0x8,0x4,0x4,0x8,0x48
	.DB  0x54,0x54,0x54,0x24,0x4,0x4,0x3F,0x44
	.DB  0x24,0x3C,0x40,0x40,0x20,0x7C,0x1C,0x20
	.DB  0x40,0x20,0x1C,0x3C,0x40,0x30,0x40,0x3C
	.DB  0x44,0x28,0x10,0x28,0x44,0x4C,0x90,0x90
	.DB  0x90,0x7C,0x44,0x64,0x54,0x4C,0x44,0x0
	.DB  0x8,0x36,0x41,0x0,0x0,0x0,0x77,0x0
	.DB  0x0,0x0,0x41,0x36,0x8,0x0,0x2,0x1
	.DB  0x2,0x4,0x2,0x3C,0x26,0x23,0x26,0x3C
	.DB  0x0,0x0,0x0,0x0,0x0,0x7F,0x1,0x1
	.DB  0x1,0x3,0x0,0x0,0x0,0x0,0x0,0x0
	.DB  0x0,0x0,0x0,0x0,0x0,0x0,0x0,0x0
	.DB  0x0,0x0,0x0,0x0,0x0,0x0,0x0,0x0
	.DB  0x0,0x0,0x0,0x0,0x0,0x0,0x0,0x0
	.DB  0x0,0x0,0x0,0x0,0x0,0x0,0x0,0x0
	.DB  0x0,0x0,0x0,0x0,0x0,0x0,0x0,0x0
	.DB  0x0,0x0,0x0,0x0,0x0,0x0,0x0,0x0
	.DB  0x0,0x0,0x0,0x0,0x0,0x0,0x0,0x0
	.DB  0x0,0x0,0x0,0x0,0x0,0x0,0x0,0x0
	.DB  0x0,0x0,0x0,0x0,0x0,0x0,0x0,0x0
	.DB  0x0,0x0,0x0,0x0,0x0,0x0,0x0,0x0
	.DB  0x0,0x0,0x0,0x0,0x0,0x0,0x0,0x0
	.DB  0x0,0x0,0x0,0x0,0x0,0x0,0x0,0x0
	.DB  0x0,0x0,0x0,0x0,0x0,0x0,0x0,0x0
	.DB  0x0,0x0,0x0,0x0,0x0,0x0,0x0,0x0
	.DB  0x0,0x0,0x0,0x0,0x0,0x0,0x0,0x0
	.DB  0x0,0x0,0x0,0x0,0x0,0x0,0x0,0x0
	.DB  0x0,0x0,0x0,0x0,0x0,0x0,0x0,0x0
	.DB  0x0,0x0,0x0,0x0,0x0,0x0,0x0,0x0
	.DB  0x0,0x0,0x0,0x0,0x0,0x0,0x0,0x0
	.DB  0x0,0x0,0x0,0x0,0x0,0x0,0x0,0x0
	.DB  0x0,0x0,0x0,0x0,0x0,0x0,0x0,0x0
	.DB  0x0,0x7F,0x1,0x1,0x1,0x3,0x0,0x0
	.DB  0x0,0x0,0x0,0x0,0x0,0x0,0x0,0x0
	.DB  0x7F,0x49,0x49,0x49,0x49,0x0,0x0,0x0
	.DB  0x0,0x0,0x3E,0x49,0x49,0x41,0x22,0x0
	.DB  0x0,0x0,0x0,0x0,0x0,0x0,0x0,0x0
	.DB  0x0,0x0,0x0,0x0,0x0,0x0,0x0,0x0
	.DB  0x0,0x0,0x0,0x0,0x43,0x7E,0x43,0x0
	.DB  0x0,0x0,0x0,0x0,0x0,0x0,0x0,0x0
	.DB  0x0,0x0,0x0,0x41,0x7F,0x41,0x0,0x0
	.DB  0x44,0x7D,0x40,0x0,0x7C,0x4,0x4,0x4
	.DB  0xC,0x0,0x0,0x0,0x0,0x0,0x0,0x0
	.DB  0x0,0x0,0x0,0x0,0x0,0x0,0x0,0x0
	.DB  0x38,0x54,0x54,0x54,0x8,0x0,0x0,0x0
	.DB  0x0,0x0,0x38,0x54,0x54,0x44,0x28,0x0
	.DB  0x0,0x0,0x0,0x0,0x0,0x0,0x0,0x0
	.DB  0x0,0x0,0x0,0x0,0x0,0x0,0x0,0x0
	.DB  0x0,0x0,0x0,0x0,0x45,0x7C,0x41,0x0
	.DB  0x7E,0x11,0x11,0x11,0x7E,0x7F,0x49,0x49
	.DB  0x49,0x33,0x7F,0x49,0x49,0x49,0x36,0x7F
	.DB  0x1,0x1,0x1,0x3,0xE0,0x51,0x4F,0x41
	.DB  0xFF,0x7F,0x49,0x49,0x49,0x49,0x77,0x8
	.DB  0x7F,0x8,0x77,0x49,0x49,0x49,0x49,0x36
	.DB  0x7F,0x10,0x8,0x4,0x7F,0x7C,0x21,0x12
	.DB  0x9,0x7C,0x7F,0x8,0x14,0x22,0x41,0x20
	.DB  0x41,0x3F,0x1,0x7F,0x7F,0x2,0xC,0x2
	.DB  0x7F,0x7F,0x8,0x8,0x8,0x7F,0x3E,0x41
	.DB  0x41,0x41,0x3E,0x7F,0x1,0x1,0x1,0x7F
	.DB  0x7F,0x9,0x9,0x9,0x6,0x3E,0x41,0x41
	.DB  0x41,0x22,0x1,0x1,0x7F,0x1,0x1,0x27
	.DB  0x48,0x48,0x48,0x3F,0x1C,0x22,0x7F,0x22
	.DB  0x1C,0x63,0x14,0x8,0x14,0x63,0x7F,0x40
	.DB  0x40,0x40,0xFF,0x7,0x8,0x8,0x8,0x7F
	.DB  0x7F,0x40,0x7F,0x40,0x7F,0x7F,0x40,0x7F
	.DB  0x40,0xFF,0x1,0x7F,0x48,0x48,0x30,0x7F
	.DB  0x48,0x30,0x0,0x7F,0x7F,0x48,0x48,0x30
	.DB  0x0,0x22,0x41,0x49,0x49,0x3E,0x7F,0x8
	.DB  0x3E,0x41,0x3E,0x46,0x29,0x19,0x9,0x7F
	.DB  0x20,0x54,0x54,0x54,0x78,0x3C,0x4A,0x4A
	.DB  0x49,0x31,0x7C,0x54,0x54,0x28,0x0,0x7C
	.DB  0x4,0x4,0x4,0xC,0xE0,0x54,0x4C,0x44
	.DB  0xFC,0x38,0x54,0x54,0x54,0x8,0x6C,0x10
	.DB  0x7C,0x10,0x6C,0x44,0x44,0x54,0x54,0x28
	.DB  0x7C,0x20,0x10,0x8,0x7C,0x78,0x42,0x24
	.DB  0x12,0x78,0x7C,0x10,0x28,0x44,0x0,0x20
	.DB  0x44,0x3C,0x4,0x7C,0x7C,0x8,0x10,0x8
	.DB  0x7C,0x7C,0x10,0x10,0x10,0x7C,0x38,0x44
	.DB  0x44,0x44,0x38,0x7C,0x4,0x4,0x4,0x7C
	.DB  0x7C,0x14,0x14,0x14,0x8,0x38,0x44,0x44
	.DB  0x44,0x44,0x4,0x4,0x7C,0x4,0x4,0xC
	.DB  0x50,0x50,0x50,0x3C,0x18,0x24,0x7E,0x24
	.DB  0x18,0x44,0x28,0x10,0x28,0x44,0x7C,0x40
	.DB  0x40,0x40,0xFC,0xC,0x10,0x10,0x10,0x7C
	.DB  0x7C,0x40,0x7C,0x40,0x7C,0x7C,0x40,0x7C
	.DB  0x40,0xFC,0x4,0x7C,0x50,0x50,0x20,0x7C
	.DB  0x50,0x20,0x0,0x7C,0x7C,0x50,0x50,0x20
	.DB  0x0,0x28,0x44,0x54,0x54,0x38,0x7C,0x10
	.DB  0x38,0x44,0x38,0x8,0x54,0x34,0x14,0x7C
_signal:
	.DB  0x0,0x3,0x6,0x9,0xD,0x10,0x13,0x16
	.DB  0x19,0x1C,0x1F,0x22,0x25,0x29,0x2C,0x2F
	.DB  0x32,0x35,0x38,0x3B,0x3E,0x41,0x44,0x47
	.DB  0x4A,0x4D,0x50,0x53,0x56,0x59,0x5C,0x5F
	.DB  0x62,0x64,0x67,0x6A,0x6D,0x70,0x73,0x75
	.DB  0x78,0x7B,0x7E,0x80,0x83,0x86,0x88,0x8B
	.DB  0x8E,0x90,0x93,0x95,0x98,0x9A,0x9D,0x9F
	.DB  0xA2,0xA4,0xA7,0xA9,0xAB,0xAE,0xB0,0xB2
	.DB  0xB4,0xB7,0xB9,0xBB,0xBD,0xBF,0xC1,0xC3
	.DB  0xC5,0xC7,0xC9,0xCB,0xCD,0xCF,0xD0,0xD2
	.DB  0xD4,0xD6,0xD7,0xD9,0xDB,0xDC,0xDE,0xDF
	.DB  0xE1,0xE2,0xE4,0xE5,0xE7,0xE8,0xE9,0xEA
	.DB  0xEC,0xED,0xEE,0xEF,0xF0,0xF1,0xF2,0xF3
	.DB  0xF4,0xF5,0xF6,0xF7,0xF7,0xF8,0xF9,0xF9
	.DB  0xFA,0xFB,0xFB,0xFC,0xFC,0xFD,0xFD,0xFD
	.DB  0xFE,0xFE,0xFE,0xFF,0xFF,0xFF,0xFF,0xFF
	.DB  0xFF,0xFF,0xFF,0xFF,0xFF,0xFF,0xFE,0xFE
	.DB  0xFE,0xFD,0xFD,0xFD,0xFC,0xFC,0xFB,0xFB
	.DB  0xFA,0xF9,0xF9,0xF8,0xF7,0xF7,0xF6,0xF5
	.DB  0xF4,0xF3,0xF2,0xF1,0xF0,0xEF,0xEE,0xED
	.DB  0xEC,0xEA,0xE9,0xE8,0xE7,0xE5,0xE4,0xE2
	.DB  0xE1,0xDF,0xDE,0xDC,0xDB,0xD9,0xD7,0xD6
	.DB  0xD4,0xD2,0xD0,0xCF,0xCD,0xCB,0xC9,0xC7
	.DB  0xC5,0xC3,0xC1,0xBF,0xBD,0xBB,0xB9,0xB7
	.DB  0xB4,0xB2,0xB0,0xAE,0xAB,0xA9,0xA7,0xA4
	.DB  0xA2,0x9F,0x9D,0x9A,0x98,0x95,0x93,0x90
	.DB  0x8E,0x8B,0x88,0x86,0x83,0x80,0x7E,0x7B
	.DB  0x78,0x75,0x73,0x70,0x6D,0x6A,0x67,0x64
	.DB  0x62,0x5F,0x5C,0x59,0x56,0x53,0x50,0x4D
	.DB  0x4A,0x47,0x44,0x41,0x3E,0x3B,0x38,0x35
	.DB  0x32,0x2F,0x2C,0x29,0x25,0x22,0x1F,0x1C
	.DB  0x19,0x16,0x13,0x10,0xD,0x9,0x6,0x3
	.DB  0xFF,0xFF,0xFF,0xFF,0xFF,0xFF,0xFF,0xFF
	.DB  0xFF,0xFF,0xFF,0xFF,0xFF,0xFF,0xFF,0xFF
	.DB  0xFF,0xFF,0xFF,0xFF,0xFF,0xFF,0xFF,0xFF
	.DB  0xFF,0xFF,0xFF,0xFF,0xFF,0xFF,0xFF,0xFF
	.DB  0xFF,0xFF,0xFF,0xFF,0xFF,0xFF,0xFF,0xFF
	.DB  0xFF,0xFF,0xFF,0xFF,0xFF,0xFF,0xFF,0xFF
	.DB  0xFF,0xFF,0xFF,0xFF,0xFF,0xFF,0xFF,0xFF
	.DB  0xFF,0xFF,0xFF,0xFF,0xFF,0xFF,0xFF,0xFF
	.DB  0xFF,0xFF,0xFF,0xFF,0xFF,0xFF,0xFF,0xFF
	.DB  0xFF,0xFF,0xFF,0xFF,0xFF,0xFF,0xFF,0xFF
	.DB  0xFF,0xFF,0xFF,0xFF,0xFF,0xFF,0xFF,0xFF
	.DB  0xFF,0xFF,0xFF,0xFF,0xFF,0xFF,0xFF,0xFF
	.DB  0xFF,0xFF,0xFF,0xFF,0xFF,0xFF,0xFF,0xFF
	.DB  0xFF,0xFF,0xFF,0xFF,0xFF,0xFF,0xFF,0xFF
	.DB  0xFF,0xFF,0xFF,0xFF,0xFF,0xFF,0xFF,0xFF
	.DB  0xFF,0xFF,0xFF,0xFF,0xFF,0xFF,0xFF,0x0
	.DB  0x0,0x0,0x0,0x0,0x0,0x0,0x0,0x0
	.DB  0x0,0x0,0x0,0x0,0x0,0x0,0x0,0x0
	.DB  0x0,0x0,0x0,0x0,0x0,0x0,0x0,0x0
	.DB  0x0,0x0,0x0,0x0,0x0,0x0,0x0,0x0
	.DB  0x0,0x0,0x0,0x0,0x0,0x0,0x0,0x0
	.DB  0x0,0x0,0x0,0x0,0x0,0x0,0x0,0x0
	.DB  0x0,0x0,0x0,0x0,0x0,0x0,0x0,0x0
	.DB  0x0,0x0,0x0,0x0,0x0,0x0,0x0,0x0
	.DB  0x0,0x0,0x0,0x0,0x0,0x0,0x0,0x0
	.DB  0x0,0x0,0x0,0x0,0x0,0x0,0x0,0x0
	.DB  0x0,0x0,0x0,0x0,0x0,0x0,0x0,0x0
	.DB  0x0,0x0,0x0,0x0,0x0,0x0,0x0,0x0
	.DB  0x0,0x0,0x0,0x0,0x0,0x0,0x0,0x0
	.DB  0x0,0x0,0x0,0x0,0x0,0x0,0x0,0x0
	.DB  0x0,0x0,0x0,0x0,0x0,0x0,0x0,0x0
	.DB  0x0,0x0,0x0,0x0,0x0,0x0,0x7F,0x7F
	.DB  0xFF,0xFF,0xFF,0xFF,0xFF,0xFF,0xFF,0xFF
	.DB  0xFF,0xFF,0xFF,0xFF,0xFF,0xFF,0xFF,0xFF
	.DB  0xFF,0xFF,0xFF,0xFF,0xFF,0xFF,0xFF,0xFF
	.DB  0xFF,0xFF,0xFF,0xFF,0xFF,0xFF,0xFF,0xFF
	.DB  0xFF,0xFF,0xFF,0xFF,0xFF,0xFF,0xFF,0xFF
	.DB  0xFF,0xFF,0xFF,0xFF,0xFF,0xFF,0xFF,0xFF
	.DB  0xFF,0xFF,0xFF,0xFF,0xFF,0xFF,0xFF,0xFF
	.DB  0xFF,0xFF,0xFF,0xFF,0xFF,0xFF,0xFF,0xFF
	.DB  0xFF,0xFF,0xFF,0xFF,0xFF,0xFF,0xFF,0xFF
	.DB  0xFF,0xFF,0xFF,0xFF,0xFF,0xFF,0xFF,0xFF
	.DB  0xFF,0xFF,0xFF,0xFF,0xFF,0xFF,0xFF,0xFF
	.DB  0xFF,0xFF,0xFF,0xFF,0xFF,0xFF,0xFF,0xFF
	.DB  0xFF,0xFF,0xFF,0xFF,0xFF,0xFF,0xFF,0xFF
	.DB  0xFF,0xFF,0xFF,0xFF,0xFF,0xFF,0xFF,0xFF
	.DB  0xFF,0xFF,0xFF,0xFF,0xFF,0xFF,0xFF,0xFF
	.DB  0xFF,0xFF,0xFF,0xFF,0xFF,0xFF,0xFF,0x55
	.DB  0x55,0x55,0x55,0x55,0x55,0x55,0x55,0x55
	.DB  0x55,0x55,0x55,0x55,0x55,0x55,0x55,0x55
	.DB  0x55,0x55,0x55,0x55,0x55,0x55,0x55,0x55
	.DB  0x55,0x55,0x55,0x55,0x55,0x55,0x55,0x55
	.DB  0x55,0x55,0x55,0x55,0x55,0x55,0x55,0x55
	.DB  0x55,0x55,0x55,0x55,0x55,0x55,0x55,0x55
	.DB  0x55,0x55,0x55,0x55,0x55,0x55,0x55,0x55
	.DB  0x55,0x55,0x55,0x55,0x55,0x55,0x55,0x55
	.DB  0x55,0x55,0x55,0x55,0x55,0x55,0x55,0x55
	.DB  0x55,0x55,0x55,0x55,0x55,0x55,0x55,0x55
	.DB  0x55,0x55,0x55,0x55,0x55,0x55,0x55,0x55
	.DB  0x55,0x55,0x55,0x55,0x55,0x55,0x55,0x55
	.DB  0x55,0x55,0x55,0x55,0x55,0x55,0x55,0x55
	.DB  0x55,0x55,0x55,0x55,0x55,0x55,0x55,0x55
	.DB  0x55,0x55,0x55,0x55,0x55,0x55,0x55,0x55
	.DB  0x55,0x55,0x55,0x55,0x55,0x55,0x55,0x55
	.DB  0xFF,0xFE,0xFD,0xFC,0xFB,0xFA,0xF9,0xF8
	.DB  0xF7,0xF6,0xF5,0xF4,0xF3,0xF2,0xF1,0xF0
	.DB  0xEF,0xEE,0xED,0xEC,0xEB,0xEA,0xE9,0xE8
	.DB  0xE7,0xE6,0xE5,0xE4,0xE3,0xE2,0xE1,0xE0
	.DB  0xDF,0xDE,0xDD,0xDC,0xDB,0xDA,0xD9,0xD8
	.DB  0xD7,0xD6,0xD5,0xD4,0xD3,0xD2,0xD1,0xD0
	.DB  0xCF,0xCE,0xCD,0xCC,0xCB,0xCA,0xC9,0xC8
	.DB  0xC7,0xC6,0xC5,0xC4,0xC3,0xC2,0xC1,0xC0
	.DB  0xBF,0xBE,0xBD,0xBC,0xBB,0xBA,0xB9,0xB8
	.DB  0xB7,0xB6,0xB5,0xB4,0xB3,0xB2,0xB1,0xB0
	.DB  0xAF,0xAE,0xAD,0xAC,0xAB,0xAA,0xA9,0xA8
	.DB  0xA7,0xA6,0xA5,0xA4,0xA3,0xA2,0xA1,0xA0
	.DB  0x9F,0x9E,0x9D,0x9C,0x9B,0x9A,0x99,0x98
	.DB  0x97,0x96,0x95,0x94,0x93,0x92,0x91,0x90
	.DB  0x8F,0x8E,0x8D,0x8C,0x8B,0x8A,0x89,0x88
	.DB  0x87,0x86,0x85,0x84,0x83,0x82,0x81,0x0
	.DB  0x1,0x2,0x3,0x4,0x5,0x6,0x7,0x8
	.DB  0x9,0xA,0xB,0xC,0xD,0xE,0xF,0x10
	.DB  0x11,0x12,0x13,0x14,0x15,0x16,0x17,0x18
	.DB  0x19,0x1A,0x1B,0x1C,0x1D,0x1E,0x1F,0x20
	.DB  0x21,0x22,0x23,0x24,0x25,0x26,0x27,0x28
	.DB  0x29,0x2A,0x2B,0x2C,0x2D,0x2E,0x2F,0x30
	.DB  0x31,0x32,0x33,0x34,0x35,0x36,0x37,0x38
	.DB  0x39,0x3A,0x3B,0x3C,0x3D,0x3E,0x3F,0x40
	.DB  0x41,0x42,0x43,0x44,0x45,0x46,0x47,0x48
	.DB  0x49,0x4A,0x4B,0x4C,0x4D,0x4E,0x4F,0x50
	.DB  0x51,0x52,0x53,0x54,0x55,0x56,0x57,0x58
	.DB  0x59,0x5A,0x5B,0x5C,0x5D,0x5E,0x5F,0x60
	.DB  0x61,0x62,0x63,0x64,0x65,0x66,0x67,0x68
	.DB  0x69,0x6A,0x6B,0x6C,0x6D,0x6E,0x6F,0x70
	.DB  0x71,0x72,0x73,0x74,0x75,0x76,0x77,0x78
	.DB  0x79,0x7A,0x7B,0x7C,0x7D,0x7E,0x7F,0x7F
	.DB  0xFF,0xFE,0xFC,0xFB,0xFA,0xF8,0xF7,0xF6
	.DB  0xF4,0xF3,0xF2,0xF0,0xEF,0xEE,0xEC,0xEB
	.DB  0xEA,0xE8,0xE7,0xE6,0xE4,0xE3,0xE2,0xE0
	.DB  0xDF,0xDE,0xDC,0xDB,0xDA,0xD8,0xD7,0xD6
	.DB  0xD4,0xD3,0xD1,0xD0,0xCF,0xCD,0xCC,0xCB
	.DB  0xC9,0xC8,0xC7,0xC5,0xC4,0xC3,0xC1,0xC0
	.DB  0xBF,0xBD,0xBC,0xBB,0xB9,0xB8,0xB7,0xB5
	.DB  0xB4,0xB3,0xB1,0xB0,0xAF,0xAD,0xAC,0xAB
	.DB  0xA9,0xA8,0xA7,0xA5,0xA4,0xA3,0xA1,0xA0
	.DB  0x9F,0x9D,0x9C,0x9B,0x99,0x98,0x97,0x95
	.DB  0x94,0x93,0x91,0x90,0x8F,0x8D,0x8C,0x8B
	.DB  0x89,0x88,0x87,0x85,0x84,0x83,0x81,0x80
	.DB  0x7E,0x7D,0x7C,0x7A,0x79,0x78,0x76,0x75
	.DB  0x74,0x72,0x71,0x70,0x6E,0x6D,0x6C,0x6A
	.DB  0x69,0x68,0x66,0x65,0x64,0x62,0x61,0x60
	.DB  0x5E,0x5D,0x5C,0x5A,0x59,0x58,0x56,0x55
	.DB  0x55,0x55,0x55,0x55,0x55,0x55,0x55,0x55
	.DB  0x55,0x55,0x55,0x55,0x55,0x55,0x55,0x55
	.DB  0x55,0x55,0x55,0x55,0x55,0x55,0x55,0x55
	.DB  0x55,0x55,0x55,0x55,0x55,0x55,0x55,0x55
	.DB  0x55,0x55,0x55,0x55,0x55,0x55,0x55,0x55
	.DB  0x55,0x55,0x55,0x55,0x55,0x55,0x55,0x55
	.DB  0x55,0x55,0x55,0x55,0x55,0x55,0x55,0x55
	.DB  0x55,0x55,0x55,0x55,0x55,0x55,0x55,0x55
	.DB  0x55,0x55,0x55,0x55,0x55,0x55,0x55,0x55
	.DB  0x55,0x55,0x55,0x55,0x55,0x55,0x55,0x55
	.DB  0x55,0x55,0x55,0x55,0x55,0x55,0x55,0x55
	.DB  0x55,0x55,0x55,0x55,0x55,0x55,0x55,0x55
	.DB  0x55,0x55,0x55,0x55,0x55,0x55,0x55,0x55
	.DB  0x55,0x55,0x55,0x55,0x55,0x55,0x55,0x55
	.DB  0x55,0x55,0x55,0x55,0x55,0x55,0x55,0x55
	.DB  0x55,0x55,0x55,0x55,0x55,0x55,0x55,0x55
	.DB  0xFF,0xFF,0x55,0x55,0xFF,0xFF,0x55,0x55
	.DB  0xFF,0xFF,0x55,0x55,0xFF,0xFF,0x55,0x55
	.DB  0xFF,0xFF,0x55,0x55,0xFF,0xFF,0x55,0x55
	.DB  0xFF,0xFF,0x55,0x55,0xFF,0xFF,0x55,0x55
	.DB  0xFF,0xFF,0x55,0x55,0xFF,0xFF,0x55,0x55
	.DB  0xFF,0xFF,0x55,0x55,0xFF,0xFF,0x55,0x55
	.DB  0xFF,0xFF,0x55,0x55,0xFF,0xFF,0x55,0x55
	.DB  0xFF,0xFF,0x55,0x55,0xFF,0xFF,0x55,0x55
	.DB  0xFF,0xFF,0x55,0x55,0xFF,0xFF,0x55,0x55
	.DB  0xFF,0xFF,0x55,0x55,0xFF,0xFF,0x55,0x55
	.DB  0xFF,0xFF,0x55,0x55,0xFF,0xFF,0x55,0x55
	.DB  0xFF,0xFF,0x55,0x55,0xFF,0xFF,0x55,0x55
	.DB  0xFF,0xFF,0x55,0x55,0xFF,0xFF,0x55,0x55
	.DB  0xFF,0xFF,0x55,0x55,0xFF,0xFF,0x55,0x55
	.DB  0xFF,0xFF,0x55,0x55,0xFF,0xFF,0x55,0x55
	.DB  0xFF,0xFF,0x55,0x55,0xFF,0xFF,0x55,0x55
	.DB  0x55,0x55,0x55,0x55,0x55,0x55,0x55,0x55
	.DB  0x55,0x55,0x55,0x55,0x55,0x55,0x55,0x55
	.DB  0x55,0x55,0x55,0x55,0x55,0x55,0x55,0x55
	.DB  0x55,0x55,0x55,0x55,0x55,0x55,0x55,0x55
	.DB  0x55,0x55,0x55,0x55,0x55,0x55,0x55,0x55
	.DB  0x55,0x55,0x55,0x55,0x55,0x55,0x55,0x55
	.DB  0x55,0x55,0x55,0x55,0x55,0x55,0x55,0x55
	.DB  0x55,0x55,0x55,0x55,0x55,0x55,0x55,0x55
	.DB  0x55,0x55,0x55,0x55,0x55,0x55,0x55,0x55
	.DB  0x55,0x55,0x55,0x55,0x55,0x55,0x55,0x55
	.DB  0x55,0x55,0x55,0x55,0x55,0x55,0x55,0x55
	.DB  0x55,0x55,0x55,0x55,0x55,0x55,0x55,0x55
	.DB  0x55,0x55,0x55,0x55,0x55,0x55,0x55,0x55
	.DB  0x55,0x55,0x55,0x55,0x55,0x55,0x55,0x55
	.DB  0x55,0x55,0x55,0x55,0x55,0x55,0x55,0x55
	.DB  0x55,0x55,0x55,0x55,0x55,0x55,0x55,0x55
	.DB  0xFF,0xFF,0x7F,0x7F,0xFF,0xFF,0x7F,0x7F
	.DB  0xFF,0xFF,0x7F,0x7F,0xFF,0xFF,0x7F,0x7F
	.DB  0xFF,0xFF,0x7F,0x7F,0xFF,0xFF,0x7F,0x7F
	.DB  0xFF,0xFF,0x7F,0x7F,0xFF,0xFF,0x7F,0x7F
	.DB  0xFF,0xFF,0x7F,0x7F,0xFF,0xFF,0x7F,0x7F
	.DB  0xFF,0xFF,0x7F,0x7F,0xFF,0xFF,0x7F,0x7F
	.DB  0xFF,0xFF,0x7F,0x7F,0xFF,0xFF,0x7F,0x7F
	.DB  0xFF,0xFF,0x7F,0x7F,0xFF,0xFF,0x7F,0x7F
	.DB  0xFF,0xFF,0x7F,0x7F,0xFF,0xFF,0x7F,0x7F
	.DB  0xFF,0xFF,0x7F,0x7F,0xFF,0xFF,0x7F,0x7F
	.DB  0xFF,0xFF,0x7F,0x7F,0xFF,0xFF,0x7F,0x7F
	.DB  0xFF,0xFF,0x7F,0x7F,0xFF,0xFF,0x7F,0x7F
	.DB  0xFF,0xFF,0x7F,0x7F,0xFF,0xFF,0x7F,0x7F
	.DB  0xFF,0xFF,0x7F,0x7F,0xFF,0xFF,0x7F,0x7F
	.DB  0xFF,0xFF,0x7F,0x7F,0xFF,0xFF,0x7F,0x7F
	.DB  0xFF,0xFF,0x7F,0x7F,0xFF,0xFF,0x7F,0x0
	.DB  0x0,0x7F,0x7F,0x0,0x0,0x7F,0x7F,0x0
	.DB  0x0,0x7F,0x7F,0x0,0x0,0x7F,0x7F,0x0
	.DB  0x0,0x7F,0x7F,0x0,0x0,0x7F,0x7F,0x0
	.DB  0x0,0x7F,0x7F,0x0,0x0,0x7F,0x7F,0x0
	.DB  0x0,0x7F,0x7F,0x0,0x0,0x7F,0x7F,0x0
	.DB  0x0,0x7F,0x7F,0x0,0x0,0x7F,0x7F,0x0
	.DB  0x0,0x7F,0x7F,0x0,0x0,0x7F,0x7F,0x0
	.DB  0x0,0x7F,0x7F,0x0,0x0,0x7F,0x7F,0x0
	.DB  0x0,0x7F,0x7F,0x0,0x0,0x7F,0x7F,0x0
	.DB  0x0,0x7F,0x7F,0x0,0x0,0x7F,0x7F,0x0
	.DB  0x0,0x7F,0x7F,0x0,0x0,0x7F,0x7F,0x0
	.DB  0x0,0x7F,0x7F,0x0,0x0,0x7F,0x7F,0x0
	.DB  0x0,0x7F,0x7F,0x0,0x0,0x7F,0x7F,0x0
	.DB  0x0,0x7F,0x7F,0x0,0x0,0x7F,0x7F,0x0
	.DB  0x0,0x7F,0x7F,0x0,0x0,0x7F,0x7F,0x0
	.DB  0x0,0x7F,0x7F,0x0,0x0,0x7F,0x7F,0x7F
_bolezni:
	.DB  0xC8,0xC1,0xD1,0x3A,0xF1,0xF2,0xE5,0xED
	.DB  0xEE,0xEA,0xE0,0xF0,0xE4,0xE8,0xFF,0x2E
	.DB  0x20,0x20,0x20,0x20,0x20,0x20,0x20,0x20
	.DB  0x20,0x20,0x20,0x20,0x20,0x20,0x20,0x20
	.DB  0x20,0x20,0x20,0x20,0x20,0x20,0x20,0x20
	.DB  0x20,0x20,0x20,0x20,0x20,0x20,0x20,0x20
	.DB  0x20,0x20,0x20,0x20,0x20,0x20,0x20,0x20
	.DB  0x20,0x20,0x20,0x20,0x20,0x20,0x20,0x20
	.DB  0x20,0x20,0x20,0x20,0x20,0x20,0x20,0x20
	.DB  0x20,0x20,0x20,0x20,0x20,0x20,0x20,0x20
	.DB  0x20,0x20,0x20,0x20,0x20,0x20,0x20,0x20
	.DB  0x20,0x20,0x20,0x20,0x20,0x20,0x20,0x20
	.DB  0x20,0x20,0x20,0x20,0x20,0x20,0x0,0xC8
	.DB  0xC1,0xD1,0x3A,0xF1,0xF2,0xE5,0xED,0xEE
	.DB  0xEA,0xE0,0xF0,0xE4,0xE8,0xFF,0x20,0xF1
	.DB  0x20,0xE3,0xE8,0xEF,0xE5,0xF0,0xF2,0xEE
	.DB  0xED,0xE8,0xF7,0xE5,0xF1,0xEA,0xEE,0xE9
	.DB  0x20,0xE1,0xEE,0xEB,0xE5,0xE7,0xED,0xFC
	.DB  0xFE,0x2E,0x20,0x20,0x20,0x20,0x20,0x20
	.DB  0x20,0x20,0x20,0x20,0x20,0x20,0x20,0x20
	.DB  0x20,0x20,0x20,0x20,0x20,0x20,0x20,0x20
	.DB  0x20,0x20,0x20,0x20,0x20,0x20,0x20,0x20
	.DB  0x20,0x20,0x20,0x20,0x20,0x20,0x20,0x20
	.DB  0x20,0x20,0x20,0x20,0x20,0x20,0x20,0x20
	.DB  0x20,0x20,0x20,0x20,0x20,0x20,0x20,0x20
	.DB  0x20,0x20,0x20,0x20,0x20,0x0,0xC8,0xC1
	.DB  0xD1,0x3A,0xEE,0xF1,0xF2,0xF0,0xFB,0xE9
	.DB  0x20,0xE8,0xED,0xF4,0xE0,0xF0,0xEA,0xF2
	.DB  0x20,0xEC,0xE8,0xEE,0xEA,0xE0,0xF0,0xE4
	.DB  0xE0,0x2E,0x20,0x20,0x20,0x20,0x20,0x20
	.DB  0x20,0x20,0x20,0x20,0x20,0x20,0x20,0x20
	.DB  0x20,0x20,0x20,0x20,0x20,0x20,0x20,0x20
	.DB  0x20,0x20,0x20,0x20,0x20,0x20,0x20,0x20
	.DB  0x20,0x20,0x20,0x20,0x20,0x20,0x20,0x20
	.DB  0x20,0x20,0x20,0x20,0x20,0x20,0x20,0x20
	.DB  0x20,0x20,0x20,0x20,0x20,0x20,0x20,0x20
	.DB  0x20,0x20,0x20,0x20,0x20,0x20,0x20,0x20
	.DB  0x20,0x20,0x20,0x20,0x20,0x20,0x20,0x20
	.DB  0x20,0x20,0x20,0x20,0x0,0xC8,0xC1,0xD1
	.DB  0x3A,0xF1,0xF2,0xE5,0xED,0xEE,0xEA,0xE0
	.DB  0xF0,0xE4,0xE8,0xFF,0x2C,0x20,0xEF,0xEE
	.DB  0xF1,0xF2,0xE8,0xED,0xF4,0xE0,0xF0,0xEA
	.DB  0xF2,0xED,0xFB,0xE9,0x20,0xEA,0xE0,0xF0
	.DB  0xE4,0xE8,0xEE,0xF1,0xEA,0xEB,0xE5,0xF0
	.DB  0xEE,0xE7,0x2E,0x20,0x20,0x20,0x20,0x20
	.DB  0x20,0x20,0x20,0x20,0x20,0x20,0x20,0x20
	.DB  0x20,0x20,0x20,0x20,0x20,0x20,0x20,0x20
	.DB  0x20,0x20,0x20,0x20,0x20,0x20,0x20,0x20
	.DB  0x20,0x20,0x20,0x20,0x20,0x20,0x20,0x20
	.DB  0x20,0x20,0x20,0x20,0x20,0x20,0x20,0x20
	.DB  0x20,0x20,0x20,0x20,0x20,0x20,0x20,0x20
	.DB  0x20,0x20,0x20,0x0,0xC8,0xC1,0xD1,0x3A
	.DB  0xF1,0xF2,0xE5,0xED,0xEE,0xEA,0xE0,0xF0
	.DB  0xE4,0xE8,0xFF,0x2C,0x20,0xEF,0xEE,0xF1
	.DB  0xF2,0xE8,0xED,0xF4,0xE0,0xF0,0xEA,0xF2
	.DB  0xED,0xFB,0xE9,0x20,0xEA,0xE0,0xF0,0xE4
	.DB  0xE8,0xEE,0xF1,0xEA,0xEB,0xE5,0xF0,0xEE
	.DB  0xE7,0x20,0xF1,0x20,0xED,0xE5,0xE4,0xEE
	.DB  0xF1,0xF2,0xE0,0xF2,0xEE,0xF7,0xED,0xEE
	.DB  0xF1,0xF2,0xFC,0xFE,0x20,0xEA,0xF0,0xEE
	.DB  0xE2,0xEE,0xEE,0xE1,0xF0,0xE0,0xF9,0xE5
	.DB  0xED,0xE8,0xFF,0x2E,0x20,0x20,0x20,0x20
	.DB  0x20,0x20,0x20,0x20,0x20,0x20,0x20,0x20
	.DB  0x20,0x20,0x20,0x20,0x20,0x20,0x20,0x20
	.DB  0x20,0x20,0x0,0xC8,0xC1,0xD1,0x3A,0xF1
	.DB  0xF2,0xE5,0xED,0xEE,0xEA,0xE0,0xF0,0xE4
	.DB  0xE8,0xFF,0x2C,0xEF,0xEE,0xF1,0xF2,0xE8
	.DB  0xED,0xF4,0xE0,0xF0,0xEA,0xF2,0xED,0xFB
	.DB  0xE9,0x20,0xEA,0xE0,0xF0,0xE4,0xE8,0xEE
	.DB  0xF1,0xEA,0xEB,0xE5,0xF0,0xEE,0xE7,0x2C
	.DB  0xED,0xE5,0xE4,0xEE,0xF1,0xF2,0xE0,0xF2
	.DB  0xEE,0xF7,0xED,0xEE,0xE5,0x20,0xEA,0xF0
	.DB  0xEE,0xE2,0xEE,0xEE,0xE1,0xF0,0xE0,0xF9
	.DB  0xE5,0xED,0xE8,0xFF,0x20,0xF1,0x20,0xE3
	.DB  0xE8,0xEF,0xE5,0xF0,0xF2,0xEE,0xED,0xE8
	.DB  0xE5,0xE9,0x2E,0x20,0x20,0x20,0x20,0x20
	.DB  0x20,0x20,0x20,0x20,0x20,0x20,0x20,0x20
	.DB  0x20,0x0,0xC3,0xE8,0xEF,0xE5,0xF0,0xF2
	.DB  0xEE,0xED,0xE8,0xF7,0xE5,0xF1,0xEA,0xE0
	.DB  0xFF,0x20,0xE1,0xEE,0xEB,0xE5,0xE7,0xED
	.DB  0xFC,0x20,0xF1,0x20,0xE4,0xE8,0xF1,0xF6
	.DB  0xE8,0xF0,0xEA,0xF3,0xEB,0xFF,0xF2,0xEE
	.DB  0xF0,0xED,0xEE,0xE9,0x20,0xFD,0xED,0xF6
	.DB  0xE5,0xF4,0xE0,0xEB,0xEE,0xEF,0xE0,0xF2
	.DB  0xE8,0xE5,0xE9,0x2E,0x20,0x20,0x20,0x20
	.DB  0x20,0x20,0x20,0x20,0x20,0x20,0x20,0x20
	.DB  0x20,0x20,0x20,0x20,0x20,0x20,0x20,0x20
	.DB  0x20,0x20,0x20,0x20,0x20,0x20,0x20,0x20
	.DB  0x20,0x20,0x20,0x20,0x20,0x20,0x20,0x20
	.DB  0x20,0x20,0x20,0x20,0x20,0x20,0x20,0x20
	.DB  0x0,0xC3,0xE8,0xEF,0xE5,0xF0,0xF2,0xEE
	.DB  0xED,0xE8,0xF7,0xE5,0xF1,0xEA,0xE0,0xFF
	.DB  0x20,0xE1,0xEE,0xEB,0xE5,0xE7,0xED,0xFC
	.DB  0x20,0xF1,0x20,0xE4,0xE8,0xF1,0xF6,0xE8
	.DB  0xF0,0xEA,0xF3,0xEB,0xFF,0xF2,0xEE,0xF0
	.DB  0xED,0xEE,0xE9,0x20,0xFD,0xED,0xF6,0xE5
	.DB  0xF4,0xE0,0xEB,0xEE,0xEF,0xE0,0xF2,0xE8
	.DB  0xE5,0xE9,0x2E,0x20,0x20,0x20,0x20,0x20
	.DB  0x20,0x20,0x20,0x20,0x20,0x20,0x20,0x20
	.DB  0x20,0x20,0x20,0x20,0x20,0x20,0x20,0x20
	.DB  0x20,0x20,0x20,0x20,0x20,0x20,0x20,0x20
	.DB  0x20,0x20,0x20,0x20,0x20,0x20,0x20,0x20
	.DB  0x20,0x20,0x20,0x20,0x20,0x20,0x20,0x0
	.DB  0xCD,0xE0,0xF0,0xF3,0xF8,0xE5,0xED,0xE8
	.DB  0xFF,0x20,0xF0,0xE8,0xF2,0xEC,0xE0,0x20
	.DB  0xE1,0xE5,0xE7,0x20,0xC8,0xC1,0xD1,0x2E
	.DB  0x20,0x20,0x20,0x20,0x20,0x20,0x20,0x20
	.DB  0x20,0x20,0x20,0x20,0x20,0x20,0x20,0x20
	.DB  0x20,0x20,0x20,0x20,0x20,0x20,0x20,0x20
	.DB  0x20,0x20,0x20,0x20,0x20,0x20,0x20,0x20
	.DB  0x20,0x20,0x20,0x20,0x20,0x20,0x20,0x20
	.DB  0x20,0x20,0x20,0x20,0x20,0x20,0x20,0x20
	.DB  0x20,0x20,0x20,0x20,0x20,0x20,0x20,0x20
	.DB  0x20,0x20,0x20,0x20,0x20,0x20,0x20,0x20
	.DB  0x20,0x20,0x20,0x20,0x20,0x20,0x20,0x20
	.DB  0x20,0x20,0x20,0x20,0x20,0x20,0x0,0xCC
	.DB  0xE8,0xEE,0xEA,0xE0,0xF0,0xE4,0xE8,0xF2
	.DB  0x2E,0x20,0x20,0x20,0x20,0x20,0x20,0x20
	.DB  0x20,0x20,0x20,0x20,0x20,0x20,0x20,0x20
	.DB  0x20,0x20,0x20,0x20,0x20,0x20,0x20,0x20
	.DB  0x20,0x20,0x20,0x20,0x20,0x20,0x20,0x20
	.DB  0x20,0x20,0x20,0x20,0x20,0x20,0x20,0x20
	.DB  0x20,0x20,0x20,0x20,0x20,0x20,0x20,0x20
	.DB  0x20,0x20,0x20,0x20,0x20,0x20,0x20,0x20
	.DB  0x20,0x20,0x20,0x20,0x20,0x20,0x20,0x20
	.DB  0x20,0x20,0x20,0x20,0x20,0x20,0x20,0x20
	.DB  0x20,0x20,0x20,0x20,0x20,0x20,0x20,0x20
	.DB  0x20,0x20,0x20,0x20,0x20,0x20,0x20,0x20
	.DB  0x20,0x20,0x20,0x20,0x20,0x0,0xCF,0xEE
	.DB  0xF0,0xEE,0xEA,0x20,0xF1,0xE5,0xF0,0xE4
	.DB  0xF6,0xE0,0x20,0x28,0xF0,0xE5,0xE2,0xEC
	.DB  0xE0,0xF2,0xE8,0xF7,0xE5,0xF1,0xEA,0xE8
	.DB  0xE9,0x2C,0x20,0xE2,0xF0,0xEE,0xE6,0xE4
	.DB  0xE5,0xED,0xED,0xFB,0xE9,0x29,0x20,0xF1
	.DB  0x20,0xED,0xE5,0xE4,0xEE,0xF1,0xF2,0xE0
	.DB  0xF2,0xEE,0xF7,0xED,0xEE,0xF1,0xF2,0xFC
	.DB  0xFE,0x20,0xEA,0xF0,0xEE,0xE2,0xEE,0xEE
	.DB  0xE1,0xF0,0xE0,0xF9,0xE5,0xED,0xE8,0xFF
	.DB  0x2E,0x20,0x20,0x20,0x20,0x20,0x20,0x20
	.DB  0x20,0x20,0x20,0x20,0x20,0x20,0x20,0x20
	.DB  0x20,0x20,0x20,0x20,0x20,0x20,0x20,0x20
	.DB  0x20,0x20,0x20,0x20,0x0,0xCF,0xEE,0xF0
	.DB  0xEE,0xEA,0x20,0xF1,0xE5,0xF0,0xE4,0xF6
	.DB  0xE0,0x20,0x28,0xF0,0xE5,0xE2,0xEC,0xE0
	.DB  0xF2,0xE8,0xF7,0xE5,0xF1,0xEA,0xE8,0xE9
	.DB  0x2C,0x20,0xE2,0xF0,0xEE,0xE6,0xE4,0xE5
	.DB  0xED,0xED,0xFB,0xE9,0x29,0x2C,0x20,0xED
	.DB  0xE5,0xE4,0xEE,0xF1,0xF2,0xE0,0xF2,0xEE
	.DB  0xF7,0xED,0xEE,0xF1,0xF2,0xFC,0x20,0xEA
	.DB  0xF0,0xEE,0xE2,0xEE,0xEE,0xE1,0xF0,0xE0
	.DB  0xF9,0xE5,0xED,0xE8,0xFF,0x20,0xF1,0x20
	.DB  0xE3,0xE8,0xEF,0xE5,0xF0,0xF2,0xEE,0xED
	.DB  0xE8,0xE5,0xE9,0x2E,0x20,0x20,0x20,0x20
	.DB  0x20,0x20,0x20,0x20,0x20,0x20,0x20,0x20
	.DB  0x20,0x20,0x20,0x0,0xC1,0xF0,0xEE,0xED
	.DB  0xF5,0xE8,0xE0,0xEB,0xFC,0xED,0xE0,0xFF
	.DB  0x20,0xE0,0xF1,0xF2,0xEC,0xE0,0x2E,0x20
	.DB  0x20,0x20,0x20,0x20,0x20,0x20,0x20,0x20
	.DB  0x20,0x20,0x20,0x20,0x20,0x20,0x20,0x20
	.DB  0x20,0x20,0x20,0x20,0x20,0x20,0x20,0x20
	.DB  0x20,0x20,0x20,0x20,0x20,0x20,0x20,0x20
	.DB  0x20,0x20,0x20,0x20,0x20,0x20,0x20,0x20
	.DB  0x20,0x20,0x20,0x20,0x20,0x20,0x20,0x20
	.DB  0x20,0x20,0x20,0x20,0x20,0x20,0x20,0x20
	.DB  0x20,0x20,0x20,0x20,0x20,0x20,0x20,0x20
	.DB  0x20,0x20,0x20,0x20,0x20,0x20,0x20,0x20
	.DB  0x20,0x20,0x20,0x20,0x20,0x20,0x20,0x20
	.DB  0x20,0x20,0x0,0xC1,0xF0,0xEE,0xED,0xF5
	.DB  0xE8,0xF2,0x20,0x28,0xEE,0xF1,0xF2,0xF0
	.DB  0xFB,0xE9,0x29,0x2E,0x20,0x20,0x20,0x20
	.DB  0x20,0x20,0x20,0x20,0x20,0x20,0x20,0x20
	.DB  0x20,0x20,0x20,0x20,0x20,0x20,0x20,0x20
	.DB  0x20,0x20,0x20,0x20,0x20,0x20,0x20,0x20
	.DB  0x20,0x20,0x20,0x20,0x20,0x20,0x20,0x20
	.DB  0x20,0x20,0x20,0x20,0x20,0x20,0x20,0x20
	.DB  0x20,0x20,0x20,0x20,0x20,0x20,0x20,0x20
	.DB  0x20,0x20,0x20,0x20,0x20,0x20,0x20,0x20
	.DB  0x20,0x20,0x20,0x20,0x20,0x20,0x20,0x20
	.DB  0x20,0x20,0x20,0x20,0x20,0x20,0x20,0x20
	.DB  0x20,0x20,0x20,0x20,0x20,0x20,0x20,0x20
	.DB  0x20,0x0,0xCF,0xED,0xE5,0xE2,0xEC,0xEE
	.DB  0xED,0xE8,0xFF,0x20,0x28,0xEE,0xF1,0xF2
	.DB  0xF0,0xE0,0xFF,0x2C,0x20,0xEE,0xE1,0xEE
	.DB  0xF1,0xF2,0xF0,0xE5,0xED,0xE8,0xE5,0x20
	.DB  0xF5,0xF0,0xEE,0xED,0xE8,0xF7,0xE5,0xF1
	.DB  0xEA,0xEE,0xE9,0x29,0x2E,0x20,0x20,0x20
	.DB  0x20,0x20,0x20,0x20,0x20,0x20,0x20,0x20
	.DB  0x20,0x20,0x20,0x20,0x20,0x20,0x20,0x20
	.DB  0x20,0x20,0x20,0x20,0x20,0x20,0x20,0x20
	.DB  0x20,0x20,0x20,0x20,0x20,0x20,0x20,0x20
	.DB  0x20,0x20,0x20,0x20,0x20,0x20,0x20,0x20
	.DB  0x20,0x20,0x20,0x20,0x20,0x20,0x20,0x20
	.DB  0x20,0x20,0x20,0x20,0x20,0x20,0x20,0x20
	.DB  0x0,0xDF,0xE7,0xE2,0xE5,0xED,0xED,0xE0
	.DB  0xFF,0x20,0xE1,0xEE,0xEB,0xE5,0xE7,0xED
	.DB  0xFC,0x20,0xE6,0xE5,0xEB,0xF3,0xE4,0xEA
	.DB  0xE0,0x20,0xE8,0x20,0x31,0x32,0x2D,0xF2
	.DB  0xE8,0x20,0xEF,0xE5,0xF0,0xF1,0xF2,0xED
	.DB  0xEE,0xE9,0x20,0xEA,0xE8,0xF8,0xEA,0xE8
	.DB  0x2E,0x20,0x20,0x20,0x20,0x20,0x20,0x20
	.DB  0x20,0x20,0x20,0x20,0x20,0x20,0x20,0x20
	.DB  0x20,0x20,0x20,0x20,0x20,0x20,0x20,0x20
	.DB  0x20,0x20,0x20,0x20,0x20,0x20,0x20,0x20
	.DB  0x20,0x20,0x20,0x20,0x20,0x20,0x20,0x20
	.DB  0x20,0x20,0x20,0x20,0x20,0x20,0x20,0x20
	.DB  0x20,0x20,0x20,0x20,0x20,0x20,0x20,0x0
	.DB  0xC3,0xE0,0xF1,0xF2,0xF0,0xE8,0xF2,0x2E
	.DB  0x20,0x20,0x20,0x20,0x20,0x20,0x20,0x20
	.DB  0x20,0x20,0x20,0x20,0x20,0x20,0x20,0x20
	.DB  0x20,0x20,0x20,0x20,0x20,0x20,0x20,0x20
	.DB  0x20,0x20,0x20,0x20,0x20,0x20,0x20,0x20
	.DB  0x20,0x20,0x20,0x20,0x20,0x20,0x20,0x20
	.DB  0x20,0x20,0x20,0x20,0x20,0x20,0x20,0x20
	.DB  0x20,0x20,0x20,0x20,0x20,0x20,0x20,0x20
	.DB  0x20,0x20,0x20,0x20,0x20,0x20,0x20,0x20
	.DB  0x20,0x20,0x20,0x20,0x20,0x20,0x20,0x20
	.DB  0x20,0x20,0x20,0x20,0x20,0x20,0x20,0x20
	.DB  0x20,0x20,0x20,0x20,0x20,0x20,0x20,0x20
	.DB  0x20,0x20,0x20,0x20,0x20,0x20,0x0,0xD5
	.DB  0xEE,0xEB,0xE5,0xF6,0xE8,0xF1,0xF2,0xEE
	.DB  0x2D,0xEF,0xE0,0xED,0xEA,0xF0,0xE5,0xE0
	.DB  0xF2,0xE8,0xF2,0x2E,0x20,0x20,0x20,0x20
	.DB  0x20,0x20,0x20,0x20,0x20,0x20,0x20,0x20
	.DB  0x20,0x20,0x20,0x20,0x20,0x20,0x20,0x20
	.DB  0x20,0x20,0x20,0x20,0x20,0x20,0x20,0x20
	.DB  0x20,0x20,0x20,0x20,0x20,0x20,0x20,0x20
	.DB  0x20,0x20,0x20,0x20,0x20,0x20,0x20,0x20
	.DB  0x20,0x20,0x20,0x20,0x20,0x20,0x20,0x20
	.DB  0x20,0x20,0x20,0x20,0x20,0x20,0x20,0x20
	.DB  0x20,0x20,0x20,0x20,0x20,0x20,0x20,0x20
	.DB  0x20,0x20,0x20,0x20,0x20,0x20,0x20,0x20
	.DB  0x20,0x20,0x20,0x20,0x20,0x0,0xCA,0xEE
	.DB  0xEB,0xE8,0xF2,0x2E,0x20,0x20,0x20,0x20
	.DB  0x20,0x20,0x20,0x20,0x20,0x20,0x20,0x20
	.DB  0x20,0x20,0x20,0x20,0x20,0x20,0x20,0x20
	.DB  0x20,0x20,0x20,0x20,0x20,0x20,0x20,0x20
	.DB  0x20,0x20,0x20,0x20,0x20,0x20,0x20,0x20
	.DB  0x20,0x20,0x20,0x20,0x20,0x20,0x20,0x20
	.DB  0x20,0x20,0x20,0x20,0x20,0x20,0x20,0x20
	.DB  0x20,0x20,0x20,0x20,0x20,0x20,0x20,0x20
	.DB  0x20,0x20,0x20,0x20,0x20,0x20,0x20,0x20
	.DB  0x20,0x20,0x20,0x20,0x20,0x20,0x20,0x20
	.DB  0x20,0x20,0x20,0x20,0x20,0x20,0x20,0x20
	.DB  0x20,0x20,0x20,0x20,0x20,0x20,0x20,0x20
	.DB  0x20,0x20,0x20,0x20,0x0,0xC4,0xE8,0xF1
	.DB  0xF6,0xE8,0xF0,0xEA,0xF3,0xEB,0xFF,0xF2
	.DB  0xEE,0xF0,0xED,0xE0,0xFF,0x20,0xFD,0xED
	.DB  0xF6,0xE5,0xF4,0xE0,0xEB,0xEE,0xEF,0xE0
	.DB  0xF2,0xE8,0xFF,0x20,0x28,0xE0,0xF2,0xE5
	.DB  0xF0,0xEE,0xF1,0xEA,0xEB,0xE5,0xF0,0xEE
	.DB  0xE7,0x20,0xF1,0xEE,0xF1,0xF3,0xE4,0xEE
	.DB  0xE2,0x20,0xE3,0xEE,0xEB,0xEE,0xE2,0xED
	.DB  0xEE,0xE3,0xEE,0x20,0xEC,0xEE,0xE7,0xE3
	.DB  0xE0,0x29,0x2E,0x20,0x20,0x20,0x20,0x20
	.DB  0x20,0x20,0x20,0x20,0x20,0x20,0x20,0x20
	.DB  0x20,0x20,0x20,0x20,0x20,0x20,0x20,0x20
	.DB  0x20,0x20,0x20,0x20,0x20,0x20,0x20,0x20
	.DB  0x20,0x20,0x20,0x0,0xC2,0xE5,0xF0,0xF2
	.DB  0xE5,0xE1,0xF0,0xE0,0xEB,0xFC,0xED,0xEE
	.DB  0x2D,0xE1,0xE0,0xE7,0xE8,0xEB,0xFF,0xF0
	.DB  0xED,0xE0,0xFF,0x20,0xED,0xE5,0xE4,0xEE
	.DB  0xF1,0xF2,0xE0,0xF2,0xEE,0xF7,0xED,0xEE
	.DB  0xF1,0xF2,0xFC,0x2E,0x20,0x20,0x20,0x20
	.DB  0x20,0x20,0x20,0x20,0x20,0x20,0x20,0x20
	.DB  0x20,0x20,0x20,0x20,0x20,0x20,0x20,0x20
	.DB  0x20,0x20,0x20,0x20,0x20,0x20,0x20,0x20
	.DB  0x20,0x20,0x20,0x20,0x20,0x20,0x20,0x20
	.DB  0x20,0x20,0x20,0x20,0x20,0x20,0x20,0x20
	.DB  0x20,0x20,0x20,0x20,0x20,0x20,0x20,0x20
	.DB  0x20,0x20,0x20,0x20,0x20,0x20,0x20,0x20
	.DB  0x20,0x20,0x0,0xCD,0xE5,0xE9,0xF0,0xEE
	.DB  0x2D,0xF6,0xE8,0xF0,0xEA,0xF3,0xEB,0xFF
	.DB  0xF2,0xEE,0xF0,0xED,0xE0,0xFF,0x20,0xE4
	.DB  0xE8,0xF1,0xF2,0xEE,0xED,0xE8,0xFF,0x2E
	.DB  0x20,0x20,0x20,0x20,0x20,0x20,0x20,0x20
	.DB  0x20,0x20,0x20,0x20,0x20,0x20,0x20,0x20
	.DB  0x20,0x20,0x20,0x20,0x20,0x20,0x20,0x20
	.DB  0x20,0x20,0x20,0x20,0x20,0x20,0x20,0x20
	.DB  0x20,0x20,0x20,0x20,0x20,0x20,0x20,0x20
	.DB  0x20,0x20,0x20,0x20,0x20,0x20,0x20,0x20
	.DB  0x20,0x20,0x20,0x20,0x20,0x20,0x20,0x20
	.DB  0x20,0x20,0x20,0x20,0x20,0x20,0x20,0x20
	.DB  0x20,0x20,0x20,0x20,0x20,0x20,0x20,0x20
	.DB  0x20,0x0,0xD1,0xEE,0xF1,0xF2,0xEE,0xFF
	.DB  0xED,0xE8,0xE5,0x20,0xEF,0xEE,0xF1,0xEB
	.DB  0xE5,0x20,0xED,0xE0,0xF0,0xF3,0xF8,0xE5
	.DB  0xED,0xE8,0xFF,0x20,0xEC,0xEE,0xE7,0xE3
	.DB  0xEE,0xE2,0xEE,0xE3,0xEE,0x20,0xEA,0xF0
	.DB  0xEE,0xE2,0xEE,0xEE,0xE1,0xF0,0xE0,0xF9
	.DB  0xE5,0xED,0xE8,0xFF,0x2E,0x20,0x20,0x20
	.DB  0x20,0x20,0x20,0x20,0x20,0x20,0x20,0x20
	.DB  0x20,0x20,0x20,0x20,0x20,0x20,0x20,0x20
	.DB  0x20,0x20,0x20,0x20,0x20,0x20,0x20,0x20
	.DB  0x20,0x20,0x20,0x20,0x20,0x20,0x20,0x20
	.DB  0x20,0x20,0x20,0x20,0x20,0x20,0x20,0x20
	.DB  0x20,0x20,0x20,0x20,0x20,0x20,0x20,0x20
	.DB  0x0,0xD0,0xE0,0xE4,0xE8,0xEA,0xF3,0xEB
	.DB  0xE8,0xF2,0x2C,0x20,0xED,0xE5,0xE2,0xF0
	.DB  0xE8,0xF2,0xFB,0x2E,0x20,0x20,0x20,0x20
	.DB  0x20,0x20,0x20,0x20,0x20,0x20,0x20,0x20
	.DB  0x20,0x20,0x20,0x20,0x20,0x20,0x20,0x20
	.DB  0x20,0x20,0x20,0x20,0x20,0x20,0x20,0x20
	.DB  0x20,0x20,0x20,0x20,0x20,0x20,0x20,0x20
	.DB  0x20,0x20,0x20,0x20,0x20,0x20,0x20,0x20
	.DB  0x20,0x20,0x20,0x20,0x20,0x20,0x20,0x20
	.DB  0x20,0x20,0x20,0x20,0x20,0x20,0x20,0x20
	.DB  0x20,0x20,0x20,0x20,0x20,0x20,0x20,0x20
	.DB  0x20,0x20,0x20,0x20,0x20,0x20,0x20,0x20
	.DB  0x20,0x20,0x20,0x20,0x20,0x20,0x20,0x0
	.DB  0xCE,0xF1,0xF2,0xE5,0xEE,0xF5,0xEE,0xED
	.DB  0xE4,0xF0,0xEE,0xE7,0x20,0xEF,0xEE,0xE7
	.DB  0xE2,0xEE,0xED,0xEE,0xF7,0xED,0xE8,0xEA
	.DB  0xE0,0x2E,0x20,0x20,0x20,0x20,0x20,0x20
	.DB  0x20,0x20,0x20,0x20,0x20,0x20,0x20,0x20
	.DB  0x20,0x20,0x20,0x20,0x20,0x20,0x20,0x20
	.DB  0x20,0x20,0x20,0x20,0x20,0x20,0x20,0x20
	.DB  0x20,0x20,0x20,0x20,0x20,0x20,0x20,0x20
	.DB  0x20,0x20,0x20,0x20,0x20,0x20,0x20,0x20
	.DB  0x20,0x20,0x20,0x20,0x20,0x20,0x20,0x20
	.DB  0x20,0x20,0x20,0x20,0x20,0x20,0x20,0x20
	.DB  0x20,0x20,0x20,0x20,0x20,0x20,0x20,0x20
	.DB  0x20,0x20,0x20,0x20,0x20,0x20,0x0,0xCD
	.DB  0xE5,0xE2,0xF0,0xEE,0xE7,0xFB,0x2E,0x20
	.DB  0x20,0x20,0x20,0x20,0x20,0x20,0x20,0x20
	.DB  0x20,0x20,0x20,0x20,0x20,0x20,0x20,0x20
	.DB  0x20,0x20,0x20,0x20,0x20,0x20,0x20,0x20
	.DB  0x20,0x20,0x20,0x20,0x20,0x20,0x20,0x20
	.DB  0x20,0x20,0x20,0x20,0x20,0x20,0x20,0x20
	.DB  0x20,0x20,0x20,0x20,0x20,0x20,0x20,0x20
	.DB  0x20,0x20,0x20,0x20,0x20,0x20,0x20,0x20
	.DB  0x20,0x20,0x20,0x20,0x20,0x20,0x20,0x20
	.DB  0x20,0x20,0x20,0x20,0x20,0x20,0x20,0x20
	.DB  0x20,0x20,0x20,0x20,0x20,0x20,0x20,0x20
	.DB  0x20,0x20,0x20,0x20,0x20,0x20,0x20,0x20
	.DB  0x20,0x20,0x20,0x20,0x20,0x0,0xD1,0xE0
	.DB  0xF5,0xE0,0xF0,0xED,0xFB,0xE9,0x20,0xE4
	.DB  0xE8,0xE0,0xE1,0xE5,0xF2,0x2E,0x20,0x20
	.DB  0x20,0x20,0x20,0x20,0x20,0x20,0x20,0x20
	.DB  0x20,0x20,0x20,0x20,0x20,0x20,0x20,0x20
	.DB  0x20,0x20,0x20,0x20,0x20,0x20,0x20,0x20
	.DB  0x20,0x20,0x20,0x20,0x20,0x20,0x20,0x20
	.DB  0x20,0x20,0x20,0x20,0x20,0x20,0x20,0x20
	.DB  0x20,0x20,0x20,0x20,0x20,0x20,0x20,0x20
	.DB  0x20,0x20,0x20,0x20,0x20,0x20,0x20,0x20
	.DB  0x20,0x20,0x20,0x20,0x20,0x20,0x20,0x20
	.DB  0x20,0x20,0x20,0x20,0x20,0x20,0x20,0x20
	.DB  0x20,0x20,0x20,0x20,0x20,0x20,0x20,0x20
	.DB  0x20,0x20,0x20,0x20,0x0,0xCF,0xF0,0xEE
	.DB  0xF1,0xF2,0xE0,0xF2,0xE8,0xF2,0x2E,0x20
	.DB  0x20,0x20,0x20,0x20,0x20,0x20,0x20,0x20
	.DB  0x20,0x20,0x20,0x20,0x20,0x20,0x20,0x20
	.DB  0x20,0x20,0x20,0x20,0x20,0x20,0x20,0x20
	.DB  0x20,0x20,0x20,0x20,0x20,0x20,0x20,0x20
	.DB  0x20,0x20,0x20,0x20,0x20,0x20,0x20,0x20
	.DB  0x20,0x20,0x20,0x20,0x20,0x20,0x20,0x20
	.DB  0x20,0x20,0x20,0x20,0x20,0x20,0x20,0x20
	.DB  0x20,0x20,0x20,0x20,0x20,0x20,0x20,0x20
	.DB  0x20,0x20,0x20,0x20,0x20,0x20,0x20,0x20
	.DB  0x20,0x20,0x20,0x20,0x20,0x20,0x20,0x20
	.DB  0x20,0x20,0x20,0x20,0x20,0x20,0x20,0x20
	.DB  0x20,0x20,0x20,0x0,0xC0,0xE4,0xE5,0xED
	.DB  0xEE,0xEC,0xE0,0x20,0xEF,0xF0,0xEE,0xF1
	.DB  0xF2,0xE0,0xF2,0xFB,0x2E,0x20,0x20,0x20
	.DB  0x20,0x20,0x20,0x20,0x20,0x20,0x20,0x20
	.DB  0x20,0x20,0x20,0x20,0x20,0x20,0x20,0x20
	.DB  0x20,0x20,0x20,0x20,0x20,0x20,0x20,0x20
	.DB  0x20,0x20,0x20,0x20,0x20,0x20,0x20,0x20
	.DB  0x20,0x20,0x20,0x20,0x20,0x20,0x20,0x20
	.DB  0x20,0x20,0x20,0x20,0x20,0x20,0x20,0x20
	.DB  0x20,0x20,0x20,0x20,0x20,0x20,0x20,0x20
	.DB  0x20,0x20,0x20,0x20,0x20,0x20,0x20,0x20
	.DB  0x20,0x20,0x20,0x20,0x20,0x20,0x20,0x20
	.DB  0x20,0x20,0x20,0x20,0x20,0x20,0x20,0x20
	.DB  0x20,0x20,0x0,0xCF,0xE8,0xE5,0xEB,0xEE
	.DB  0xED,0xE5,0xF4,0xF0,0xE8,0xF2,0x2E,0x20
	.DB  0x20,0x20,0x20,0x20,0x20,0x20,0x20,0x20
	.DB  0x20,0x20,0x20,0x20,0x20,0x20,0x20,0x20
	.DB  0x20,0x20,0x20,0x20,0x20,0x20,0x20,0x20
	.DB  0x20,0x20,0x20,0x20,0x20,0x20,0x20,0x20
	.DB  0x20,0x20,0x20,0x20,0x20,0x20,0x20,0x20
	.DB  0x20,0x20,0x20,0x20,0x20,0x20,0x20,0x20
	.DB  0x20,0x20,0x20,0x20,0x20,0x20,0x20,0x20
	.DB  0x20,0x20,0x20,0x20,0x20,0x20,0x20,0x20
	.DB  0x20,0x20,0x20,0x20,0x20,0x20,0x20,0x20
	.DB  0x20,0x20,0x20,0x20,0x20,0x20,0x20,0x20
	.DB  0x20,0x20,0x20,0x20,0x20,0x20,0x20,0x20
	.DB  0x20,0x0,0xC2,0xEE,0xF1,0xEF,0xE0,0xEB
	.DB  0xE8,0xF2,0xE5,0xEB,0xFC,0xED,0xFB,0xE5
	.DB  0x20,0xE7,0xE0,0xE1,0xEE,0xEB,0xE5,0xE2
	.DB  0xE0,0xED,0xE8,0xFF,0x2C,0x20,0xFD,0xED
	.DB  0xE4,0xEE,0xEC,0xE5,0xF2,0xF0,0xE8,0xEE
	.DB  0xE7,0x2E,0x20,0x20,0x20,0x20,0x20,0x20
	.DB  0x20,0x20,0x20,0x20,0x20,0x20,0x20,0x20
	.DB  0x20,0x20,0x20,0x20,0x20,0x20,0x20,0x20
	.DB  0x20,0x20,0x20,0x20,0x20,0x20,0x20,0x20
	.DB  0x20,0x20,0x20,0x20,0x20,0x20,0x20,0x20
	.DB  0x20,0x20,0x20,0x20,0x20,0x20,0x20,0x20
	.DB  0x20,0x20,0x20,0x20,0x20,0x20,0x20,0x20
	.DB  0x20,0x20,0x20,0x20,0x20,0x20,0x20,0x20
	.DB  0x0,0xCD,0xE0,0xF0,0xF3,0xF8,0xE5,0xED
	.DB  0xE8,0xFF,0x20,0xEC,0xE5,0xED,0xF1,0xF2
	.DB  0xF0,0xF3,0xE0,0xEB,0xFC,0xED,0xEE,0xE3
	.DB  0xEE,0x20,0xF6,0xE8,0xEA,0xEB,0xE0,0x2E
	.DB  0x20,0x20,0x20,0x20,0x20,0x20,0x20,0x20
	.DB  0x20,0x20,0x20,0x20,0x20,0x20,0x20,0x20
	.DB  0x20,0x20,0x20,0x20,0x20,0x20,0x20,0x20
	.DB  0x20,0x20,0x20,0x20,0x20,0x20,0x20,0x20
	.DB  0x20,0x20,0x20,0x20,0x20,0x20,0x20,0x20
	.DB  0x20,0x20,0x20,0x20,0x20,0x20,0x20,0x20
	.DB  0x20,0x20,0x20,0x20,0x20,0x20,0x20,0x20
	.DB  0x20,0x20,0x20,0x20,0x20,0x20,0x20,0x20
	.DB  0x20,0x20,0x20,0x20,0x20,0x20,0x20,0x0
	.DB  0xCD,0xE5,0xE9,0xF0,0xEE,0xE4,0xE5,0xF0
	.DB  0xEC,0xE8,0xF2,0x2C,0x20,0xFD,0xEA,0xE7
	.DB  0xE5,0xEC,0xE0,0x2E,0x20,0x20,0x20,0x20
	.DB  0x20,0x20,0x20,0x20,0x20,0x20,0x20,0x20
	.DB  0x20,0x20,0x20,0x20,0x20,0x20,0x20,0x20
	.DB  0x20,0x20,0x20,0x20,0x20,0x20,0x20,0x20
	.DB  0x20,0x20,0x20,0x20,0x20,0x20,0x20,0x20
	.DB  0x20,0x20,0x20,0x20,0x20,0x20,0x20,0x20
	.DB  0x20,0x20,0x20,0x20,0x20,0x20,0x20,0x20
	.DB  0x20,0x20,0x20,0x20,0x20,0x20,0x20,0x20
	.DB  0x20,0x20,0x20,0x20,0x20,0x20,0x20,0x20
	.DB  0x20,0x20,0x20,0x20,0x20,0x20,0x20,0x20
	.DB  0x20,0x20,0x20,0x20,0x20,0x20,0x0,0xCF
	.DB  0xF1,0xEE,0xF0,0xE8,0xE0,0xE7,0x2E,0x20
	.DB  0x20,0x20,0x20,0x20,0x20,0x20,0x20,0x20
	.DB  0x20,0x20,0x20,0x20,0x20,0x20,0x20,0x20
	.DB  0x20,0x20,0x20,0x20,0x20,0x20,0x20,0x20
	.DB  0x20,0x20,0x20,0x20,0x20,0x20,0x20,0x20
	.DB  0x20,0x20,0x20,0x20,0x20,0x20,0x20,0x20
	.DB  0x20,0x20,0x20,0x20,0x20,0x20,0x20,0x20
	.DB  0x20,0x20,0x20,0x20,0x20,0x20,0x20,0x20
	.DB  0x20,0x20,0x20,0x20,0x20,0x20,0x20,0x20
	.DB  0x20,0x20,0x20,0x20,0x20,0x20,0x20,0x20
	.DB  0x20,0x20,0x20,0x20,0x20,0x20,0x20,0x20
	.DB  0x20,0x20,0x20,0x20,0x20,0x20,0x20,0x20
	.DB  0x20,0x20,0x20,0x20,0x20,0x0,0xC3,0xF0
	.DB  0xE8,0xEF,0xEF,0x2C,0x20,0xCE,0xD0,0xC2
	.DB  0xC8,0x2E,0x20,0x20,0x20,0x20,0x20,0x20
	.DB  0x20,0x20,0x20,0x20,0x20,0x20,0x20,0x20
	.DB  0x20,0x20,0x20,0x20,0x20,0x20,0x20,0x20
	.DB  0x20,0x20,0x20,0x20,0x20,0x20,0x20,0x20
	.DB  0x20,0x20,0x20,0x20,0x20,0x20,0x20,0x20
	.DB  0x20,0x20,0x20,0x20,0x20,0x20,0x20,0x20
	.DB  0x20,0x20,0x20,0x20,0x20,0x20,0x20,0x20
	.DB  0x20,0x20,0x20,0x20,0x20,0x20,0x20,0x20
	.DB  0x20,0x20,0x20,0x20,0x20,0x20,0x20,0x20
	.DB  0x20,0x20,0x20,0x20,0x20,0x20,0x20,0x20
	.DB  0x20,0x20,0x20,0x20,0x20,0x20,0x20,0x20
	.DB  0x20,0x20,0x20,0x20,0x0,0xD2,0xEE,0xED
	.DB  0xE7,0xE8,0xEB,0xEB,0xE8,0xF2,0x2E,0x20
	.DB  0x20,0x20,0x20,0x20,0x20,0x20,0x20,0x20
	.DB  0x20,0x20,0x20,0x20,0x20,0x20,0x20,0x20
	.DB  0x20,0x20,0x20,0x20,0x20,0x20,0x20,0x20
	.DB  0x20,0x20,0x20,0x20,0x20,0x20,0x20,0x20
	.DB  0x20,0x20,0x20,0x20,0x20,0x20,0x20,0x20
	.DB  0x20,0x20,0x20,0x20,0x20,0x20,0x20,0x20
	.DB  0x20,0x20,0x20,0x20,0x20,0x20,0x20,0x20
	.DB  0x20,0x20,0x20,0x20,0x20,0x20,0x20,0x20
	.DB  0x20,0x20,0x20,0x20,0x20,0x20,0x20,0x20
	.DB  0x20,0x20,0x20,0x20,0x20,0x20,0x20,0x20
	.DB  0x20,0x20,0x20,0x20,0x20,0x20,0x20,0x20
	.DB  0x20,0x20,0x20,0x0,0xD5,0xE8,0xF0,0xF3
	.DB  0xF0,0xE3,0xE8,0xF7,0xE5,0xF1,0xEA,0xE0
	.DB  0xFF,0x20,0xEF,0xE0,0xF2,0xEE,0xEB,0xEE
	.DB  0xE3,0xE8,0xFF,0x2E,0x20,0x20,0x20,0x20
	.DB  0x20,0x20,0x20,0x20,0x20,0x20,0x20,0x20
	.DB  0x20,0x20,0x20,0x20,0x20,0x20,0x20,0x20
	.DB  0x20,0x20,0x20,0x20,0x20,0x20,0x20,0x20
	.DB  0x20,0x20,0x20,0x20,0x20,0x20,0x20,0x20
	.DB  0x20,0x20,0x20,0x20,0x20,0x20,0x20,0x20
	.DB  0x20,0x20,0x20,0x20,0x20,0x20,0x20,0x20
	.DB  0x20,0x20,0x20,0x20,0x20,0x20,0x20,0x20
	.DB  0x20,0x20,0x20,0x20,0x20,0x20,0x20,0x20
	.DB  0x20,0x20,0x20,0x20,0x20,0x20,0x20,0x20
	.DB  0x20,0x20,0x0,0xD2,0xF0,0xE0,0xE2,0xEC
	.DB  0xE0,0x2C,0x20,0xE2,0x20,0xF2,0xEE,0xEC
	.DB  0x20,0xF7,0xE8,0xF1,0xEB,0xE5,0x20,0xEC
	.DB  0xED,0xEE,0xE6,0xE5,0xF1,0xF2,0xE2,0xE5
	.DB  0xED,0xED,0xE0,0xFF,0x20,0xE8,0x20,0xF1
	.DB  0xEE,0xF7,0xE5,0xF2,0xE0,0xED,0xED,0xE0
	.DB  0xFF,0x2E,0x20,0x20,0x20,0x20,0x20,0x20
	.DB  0x20,0x20,0x20,0x20,0x20,0x20,0x20,0x20
	.DB  0x20,0x20,0x20,0x20,0x20,0x20,0x20,0x20
	.DB  0x20,0x20,0x20,0x20,0x20,0x20,0x20,0x20
	.DB  0x20,0x20,0x20,0x20,0x20,0x20,0x20,0x20
	.DB  0x20,0x20,0x20,0x20,0x20,0x20,0x20,0x20
	.DB  0x20,0x20,0x20,0x20,0x20,0x20,0x20,0x20
	.DB  0x20,0x0,0xCE,0xE6,0xEE,0xE3,0xE8,0x20
	.DB  0xE8,0x20,0xEE,0xF2,0xEC,0xEE,0xF0,0xEE
	.DB  0xE6,0xE5,0xED,0xE8,0xFF,0x2E,0x20,0x20
	.DB  0x20,0x20,0x20,0x20,0x20,0x20,0x20,0x20
	.DB  0x20,0x20,0x20,0x20,0x20,0x20,0x20,0x20
	.DB  0x20,0x20,0x20,0x20,0x20,0x20,0x20,0x20
	.DB  0x20,0x20,0x20,0x20,0x20,0x20,0x20,0x20
	.DB  0x20,0x20,0x20,0x20,0x20,0x20,0x20,0x20
	.DB  0x20,0x20,0x20,0x20,0x20,0x20,0x20,0x20
	.DB  0x20,0x20,0x20,0x20,0x20,0x20,0x20,0x20
	.DB  0x20,0x20,0x20,0x20,0x20,0x20,0x20,0x20
	.DB  0x20,0x20,0x20,0x20,0x20,0x20,0x20,0x20
	.DB  0x20,0x20,0x20,0x20,0x20,0x20,0x20,0x20
	.DB  0x0,0xC0,0xF0,0xF2,0xF0,0xE8,0xF2,0x2E
	.DB  0x20,0x20,0x20,0x20,0x20,0x20,0x20,0x20
	.DB  0x20,0x20,0x20,0x20,0x20,0x20,0x20,0x20
	.DB  0x20,0x20,0x20,0x20,0x20,0x20,0x20,0x20
	.DB  0x20,0x20,0x20,0x20,0x20,0x20,0x20,0x20
	.DB  0x20,0x20,0x20,0x20,0x20,0x20,0x20,0x20
	.DB  0x20,0x20,0x20,0x20,0x20,0x20,0x20,0x20
	.DB  0x20,0x20,0x20,0x20,0x20,0x20,0x20,0x20
	.DB  0x20,0x20,0x20,0x20,0x20,0x20,0x20,0x20
	.DB  0x20,0x20,0x20,0x20,0x20,0x20,0x20,0x20
	.DB  0x20,0x20,0x20,0x20,0x20,0x20,0x20,0x20
	.DB  0x20,0x20,0x20,0x20,0x20,0x20,0x20,0x20
	.DB  0x20,0x20,0x20,0x20,0x20,0x20,0x20,0x0
	.DB  0xC0,0xF2,0xE5,0xF0,0xEE,0xF1,0xEA,0xEB
	.DB  0xE5,0xF0,0xEE,0xE7,0x20,0xF1,0xEE,0xF1
	.DB  0xF3,0xE4,0xEE,0xE2,0x20,0xEA,0xEE,0xED
	.DB  0xE5,0xF7,0xED,0xEE,0xF1,0xF2,0xE5,0xE9
	.DB  0x2E,0x20,0x20,0x20,0x20,0x20,0x20,0x20
	.DB  0x20,0x20,0x20,0x20,0x20,0x20,0x20,0x20
	.DB  0x20,0x20,0x20,0x20,0x20,0x20,0x20,0x20
	.DB  0x20,0x20,0x20,0x20,0x20,0x20,0x20,0x20
	.DB  0x20,0x20,0x20,0x20,0x20,0x20,0x20,0x20
	.DB  0x20,0x20,0x20,0x20,0x20,0x20,0x20,0x20
	.DB  0x20,0x20,0x20,0x20,0x20,0x20,0x20,0x20
	.DB  0x20,0x20,0x20,0x20,0x20,0x20,0x20,0x20
	.DB  0x20,0x20,0x20,0x20,0x20,0x20,0x0,0xC3
	.DB  0xE0,0xE9,0xEC,0xEE,0xF0,0xE8,0xF2,0x2C
	.DB  0x20,0xF4,0xF0,0xEE,0xED,0xF2,0xE8,0xF2
	.DB  0x2E,0x20,0x20,0x20,0x20,0x20,0x20,0x20
	.DB  0x20,0x20,0x20,0x20,0x20,0x20,0x20,0x20
	.DB  0x20,0x20,0x20,0x20,0x20,0x20,0x20,0x20
	.DB  0x20,0x20,0x20,0x20,0x20,0x20,0x20,0x20
	.DB  0x20,0x20,0x20,0x20,0x20,0x20,0x20,0x20
	.DB  0x20,0x20,0x20,0x20,0x20,0x20,0x20,0x20
	.DB  0x20,0x20,0x20,0x20,0x20,0x20,0x20,0x20
	.DB  0x20,0x20,0x20,0x20,0x20,0x20,0x20,0x20
	.DB  0x20,0x20,0x20,0x20,0x20,0x20,0x20,0x20
	.DB  0x20,0x20,0x20,0x20,0x20,0x20,0x20,0x20
	.DB  0x20,0x20,0x20,0x20,0x20,0x0,0xCF,0xE5
	.DB  0xF0,0xE8,0xE4,0xEE,0xED,0xF2,0xE8,0xF2
	.DB  0x2E,0x20,0x20,0x20,0x20,0x20,0x20,0x20
	.DB  0x20,0x20,0x20,0x20,0x20,0x20,0x20,0x20
	.DB  0x20,0x20,0x20,0x20,0x20,0x20,0x20,0x20
	.DB  0x20,0x20,0x20,0x20,0x20,0x20,0x20,0x20
	.DB  0x20,0x20,0x20,0x20,0x20,0x20,0x20,0x20
	.DB  0x20,0x20,0x20,0x20,0x20,0x20,0x20,0x20
	.DB  0x20,0x20,0x20,0x20,0x20,0x20,0x20,0x20
	.DB  0x20,0x20,0x20,0x20,0x20,0x20,0x20,0x20
	.DB  0x20,0x20,0x20,0x20,0x20,0x20,0x20,0x20
	.DB  0x20,0x20,0x20,0x20,0x20,0x20,0x20,0x20
	.DB  0x20,0x20,0x20,0x20,0x20,0x20,0x20,0x20
	.DB  0x20,0x20,0x20,0x20,0x0,0xD1,0xE5,0xEA
	.DB  0xF1,0xF3,0xE0,0xEB,0xFC,0xED,0xFB,0xE5
	.DB  0x20,0xF0,0xE0,0xF1,0xF1,0xF2,0xF0,0xEE
	.DB  0xE9,0xF1,0xF2,0xE2,0xE0,0x2E,0x20,0x20
	.DB  0x20,0x20,0x20,0x20,0x20,0x20,0x20,0x20
	.DB  0x20,0x20,0x20,0x20,0x20,0x20,0x20,0x20
	.DB  0x20,0x20,0x20,0x20,0x20,0x20,0x20,0x20
	.DB  0x20,0x20,0x20,0x20,0x20,0x20,0x20,0x20
	.DB  0x20,0x20,0x20,0x20,0x20,0x20,0x20,0x20
	.DB  0x20,0x20,0x20,0x20,0x20,0x20,0x20,0x20
	.DB  0x20,0x20,0x20,0x20,0x20,0x20,0x20,0x20
	.DB  0x20,0x20,0x20,0x20,0x20,0x20,0x20,0x20
	.DB  0x20,0x20,0x20,0x20,0x20,0x20,0x20,0x20
	.DB  0x20,0x20,0x20,0x0,0xCD,0xE0,0xF0,0xF3
	.DB  0xF8,0xE5,0xED,0xE8,0xFF,0x20,0xF0,0xE5
	.DB  0xF7,0xE5,0xE2,0xEE,0xE3,0xEE,0x20,0xF0
	.DB  0xE0,0xE7,0xE2,0xE8,0xF2,0xE8,0xFF,0x2E
	.DB  0x20,0x20,0x20,0x20,0x20,0x20,0x20,0x20
	.DB  0x20,0x20,0x20,0x20,0x20,0x20,0x20,0x20
	.DB  0x20,0x20,0x20,0x20,0x20,0x20,0x20,0x20
	.DB  0x20,0x20,0x20,0x20,0x20,0x20,0x20,0x20
	.DB  0x20,0x20,0x20,0x20,0x20,0x20,0x20,0x20
	.DB  0x20,0x20,0x20,0x20,0x20,0x20,0x20,0x20
	.DB  0x20,0x20,0x20,0x20,0x20,0x20,0x20,0x20
	.DB  0x20,0x20,0x20,0x20,0x20,0x20,0x20,0x20
	.DB  0x20,0x20,0x20,0x20,0x20,0x20,0x20,0x20
	.DB  0x20,0x20,0x0
_rezhimi:
	.DB  0x2,0x2,0x2,0x5,0x5,0x6,0x5,0x5
	.DB  0x4,0x4,0x2,0x2,0x2,0x5,0x5,0x6
	.DB  0x4,0x4,0x4,0x4,0x4,0x4,0x2,0x5
	.DB  0x5,0x3,0x5,0x4,0x4,0x4,0x4,0x4
	.DB  0x2,0x5,0x5,0x4,0x4,0x4,0x4,0x4
	.DB  0x2,0x2,0x2,0x5,0x5,0x5,0x5,0x2
	.DB  0x2,0x2,0x2,0x2,0x2,0x5,0x5,0x5
	.DB  0x5,0x2,0x2,0x2,0x4,0x4,0x2,0x5
	.DB  0x5,0x6,0x2,0x4,0x4,0x4,0x4,0x4
	.DB  0x2,0x5,0x5,0x6,0x2,0x4,0x4,0x4
	.DB  0x4,0x4,0x4,0x4,0x4,0x4,0x3,0x3
	.DB  0x3,0x4,0x4,0x4,0x4,0x4,0x4,0x4
	.DB  0x3,0x3,0x3,0x4,0x4,0x4,0x4,0x2
	.DB  0x2,0x2,0x2,0x5,0x5,0x4,0x4,0x4
	.DB  0x4,0x2,0x2,0x2,0x2,0x5,0x5,0x4
	.DB  0x2,0x2,0x2,0x2,0x5,0x5,0x1,0x5
	.DB  0x4,0x4,0x2,0x2,0x2,0x2,0x5,0x5
	.DB  0x1,0x5,0x4,0x4,0x4,0x4,0x4,0x4
	.DB  0x3,0x3,0x3,0x4,0x4,0x4,0x4,0x4
	.DB  0x4,0x4,0x3,0x3,0x3,0x4,0x4,0x4
	.DB  0x4,0x4,0x4,0x2,0x2,0x1,0x5,0x2
	.DB  0x4,0x4,0x4,0x4,0x4,0x2,0x2,0x1
	.DB  0x5,0x2,0x4,0x4,0x2,0x2,0x2,0x5
	.DB  0x5,0x6,0x6,0x5,0x2,0x2,0x2,0x2
	.DB  0x2,0x5,0x5,0x6,0x6,0x5,0x2,0x2
	.DB  0x4,0x4,0x4,0x4,0x2,0x5,0x5,0x4
	.DB  0x4,0x4,0x4,0x4,0x4,0x4,0x2,0x5
	.DB  0x5,0x4,0x4,0x4,0x4,0x4,0x4,0x4
	.DB  0x4,0x2,0x2,0x4,0x4,0x4,0x4,0x4
	.DB  0x4,0x4,0x4,0x2,0x2,0x4,0x4,0x4
	.DB  0x2,0x2,0x5,0x5,0x5,0x2,0x2,0x2
	.DB  0x4,0x4,0x2,0x2,0x5,0x5,0x5,0x2
	.DB  0x2,0x2,0x4,0x4,0x2,0x2,0x2,0x2
	.DB  0x1,0x1,0x1,0x5,0x6,0x2,0x2,0x2
	.DB  0x2,0x2,0x1,0x1,0x1,0x5,0x6,0x2
	.DB  0x2,0x2,0x1,0x5,0x5,0x3,0x3,0x5
	.DB  0x5,0x4,0x2,0x2,0x1,0x5,0x5,0x3
	.DB  0x3,0x3,0x4,0x4,0x2,0x2,0x2,0x5
	.DB  0x5,0x5,0x5,0x2,0x2,0x2,0x2,0x2
	.DB  0x2,0x5,0x5,0x5,0x5,0x2,0x2,0x2
	.DB  0x2,0x2,0x2,0x5,0x6,0x1,0x5,0x2
	.DB  0x4,0x4,0x2,0x2,0x2,0x5,0x6,0x1
	.DB  0x5,0x2,0x4,0x4,0x4,0x4,0x2,0x5
	.DB  0x5,0x5,0x5,0x5,0x4,0x4,0x4,0x4
	.DB  0x2,0x5,0x5,0x5,0x5,0x5,0x4,0x4
	.DB  0x2,0x2,0x2,0x5,0x5,0x4,0x4,0x5
	.DB  0x2,0x2,0x2,0x2,0x2,0x5,0x5,0x4
	.DB  0x4,0x5,0x2,0x2,0x4,0x4,0x4,0x4
	.DB  0x4,0x3,0x3,0x3,0x5,0x4,0x4,0x4
	.DB  0x4,0x4,0x4,0x3,0x3,0x4,0x4,0x4
	.DB  0x4,0x4,0x4,0x4,0x4,0x3,0x3,0x4
	.DB  0x4,0x4,0x4,0x4,0x4,0x4,0x4,0x3
	.DB  0x3,0x4,0x4,0x4,0x4,0x4,0x3,0x3
	.DB  0x3,0x5,0x5,0x5,0x5,0x5,0x4,0x4
	.DB  0x4,0x4,0x4,0x4,0x4,0x4,0x5,0x5
	.DB  0x4,0x4,0x3,0x3,0x3,0x3,0x5,0x4
	.DB  0x4,0x4,0x4,0x4,0x4,0x4,0x4,0x4
	.DB  0x4,0x4,0x4,0x4,0x2,0x2,0x2,0x2
	.DB  0x5,0x5,0x6,0x6,0x5,0x5,0x2,0x2
	.DB  0x2,0x2,0x5,0x5,0x6,0x6,0x5,0x5
	.DB  0x4,0x4,0x2,0x2,0x5,0x5,0x6,0x6
	.DB  0x2,0x2,0x4,0x4,0x2,0x2,0x5,0x5
	.DB  0x6,0x6,0x2,0x2,0x4,0x4,0x4,0x3
	.DB  0x2,0x2,0x4,0x4,0x4,0x4,0x4,0x4
	.DB  0x4,0x3,0x2,0x2,0x4,0x4,0x4,0x4
	.DB  0x2,0x1,0x5,0x6,0x6,0x5,0x3,0x3
	.DB  0x4,0x4,0x2,0x1,0x5,0x6,0x6,0x5
	.DB  0x3,0x3,0x4,0x4,0x2,0x5,0x5,0x5
	.DB  0x5,0x5,0x2,0x2,0x2,0x2,0x2,0x5
	.DB  0x5,0x5,0x5,0x5,0x3,0x3,0x2,0x2
	.DB  0x4,0x4,0x4,0x3,0x3,0x1,0x1,0x6
	.DB  0x5,0x5,0x4,0x4,0x4,0x3,0x3,0x1
	.DB  0x1,0x6,0x5,0x5,0x5,0x5,0x5,0x2
	.DB  0x2,0x3,0x4,0x4,0x5,0x5,0x5,0x5
	.DB  0x5,0x2,0x2,0x3,0x4,0x4,0x5,0x5
	.DB  0x2,0x2,0x2,0x1,0x1,0x1,0x1,0x1
	.DB  0x2,0x2,0x2,0x2,0x2,0x1,0x1,0x1
	.DB  0x1,0x1,0x2,0x2,0x4,0x4,0x4,0x3
	.DB  0x1,0x6,0x1,0x6,0x5,0x5,0x4,0x4
	.DB  0x4,0x3,0x1,0x6,0x1,0x6,0x5,0x5
	.DB  0x2,0x2,0x5,0x5,0x5,0x5,0x6,0x6
	.DB  0x4,0x4,0x2,0x2,0x5,0x5,0x5,0x5
	.DB  0x6,0x6,0x4,0x4,0x4,0x4,0x4,0x4
	.DB  0x3,0x3,0x6,0x1,0x5,0x5,0x4,0x4
	.DB  0x4,0x4,0x3,0x3,0x6,0x1,0x5,0x5
	.DB  0x2,0x5,0x1,0x2,0x5,0x5,0x5,0x2
	.DB  0x2,0x1,0x2,0x5,0x1,0x2,0x5,0x5
	.DB  0x5,0x2,0x2,0x1,0x2,0x2,0x2,0x2
	.DB  0x4,0x3,0x4,0x2,0x5,0x5,0x2,0x2
	.DB  0x2,0x2,0x4,0x3,0x4,0x2,0x5,0x5
	.DB  0x2,0x2,0x5,0x5,0x6,0x6,0x6,0x2
	.DB  0x4,0x4,0x2,0x2,0x5,0x5,0x6,0x6
	.DB  0x6,0x2,0x4,0x4,0x5,0x5,0x6,0x6
	.DB  0x6,0x2,0x2,0x2,0x2,0x2,0x5,0x5
	.DB  0x6,0x6,0x6,0x2,0x2,0x2,0x2,0x2
	.DB  0x5,0x5,0x6,0x6,0x4,0x4,0x3,0x5
	.DB  0x2,0x2,0x5,0x5,0x6,0x6,0x4,0x4
	.DB  0x3,0x5,0x2,0x2,0x2,0x2,0x5,0x5
	.DB  0x4,0x4,0x3,0x4,0x5,0x2,0x2,0x2
	.DB  0x5,0x5,0x4,0x4,0x3,0x4,0x5,0x2
	.DB  0x2,0x2,0x2,0x2,0x2,0x5,0x5,0x5
	.DB  0x5,0x5,0x2,0x2,0x2,0x2,0x2,0x5
	.DB  0x5,0x5,0x5,0x5,0x2,0x2,0x2,0x2
	.DB  0x5,0x5,0x5,0x6,0x5,0x5,0x2,0x2
	.DB  0x3,0x3,0x4,0x4,0x4,0x6,0x5,0x5
	.DB  0x2,0x2,0x2,0x2,0x5,0x1,0x1,0x5
	.DB  0x5,0x5,0x2,0x2,0x2,0x2,0x5,0x1
	.DB  0x1,0x5,0x5,0x5,0x4,0x3,0x6,0x5
	.DB  0x5,0x4,0x4,0x4,0x4,0x4,0x4,0x4
	.DB  0x3,0x4,0x4,0x4,0x4,0x4,0x4,0x4
	.DB  0x4,0x4,0x3,0x3,0x5,0x4,0x4,0x4
	.DB  0x4,0x4,0x4,0x4,0x4,0x4,0x4,0x4
	.DB  0x4,0x4,0x4,0x4

;REGISTER BIT VARIABLES INITIALIZATION
__REG_BIT_VARS:
	.DW  0x0000

_0x3:
	.DB  0x80,0xAE,0x80,0xD5,0x80,0x80,0x80,0xA8
	.DB  0x80,0x3F,0x80,0xD3,0x80,0x0,0x80,0x40
	.DB  0x80,0x8D,0x80,0x14,0x80,0x20,0x80,0x0
	.DB  0x80,0xA1,0x80,0xC8,0x80,0xDA,0x80,0x12
	.DB  0x80,0x81,0x80,0xCF,0x80,0xD9,0x80,0xF1
	.DB  0x80,0xDB,0x80,0x40,0x80,0xA4,0x80,0xA6
	.DB  0x80,0xAF
_0x4:
	.DB  0x0,0x0,0x0,0x0,0x0,0x0,0x0,0x0
	.DB  0x0,0x0,0x0,0x0,0x0,0x0,0x0,0x0
	.DB  0x0,0x0,0x0,0x0,0x0,0x0,0x0,0x0
	.DB  0x0,0x0,0x0,0x0,0x0,0x0,0x0,0x0
	.DB  0x0,0x0,0x0,0x0,0x0,0x0,0x0,0x0
	.DB  0x0,0x0,0x0,0x0,0x0,0x0,0x0,0x0
	.DB  0x0,0x0,0x0,0x0,0x0,0x0,0x0,0x0
	.DB  0x0,0x0,0x0,0x0,0x0,0x0,0x0,0x80
	.DB  0x80,0x80,0x0,0x0,0x0,0x0,0x0,0x0
	.DB  0x0,0x0,0x0,0x0,0x0,0x0,0x0,0x0
	.DB  0x0,0x80,0x80,0xC0,0xC0,0x0,0x0,0x0
	.DB  0x0,0x0,0x0,0x0,0x0,0x0,0x0,0x0
	.DB  0x0,0x0,0x0,0x0,0x0,0x0,0x0,0x0
	.DB  0x0,0x0,0x0,0x0,0x0,0x0,0x0,0x0
	.DB  0x0,0x0,0x0,0x0,0x0,0x0,0x0,0x0
	.DB  0x0,0x0,0x0,0x0,0x0,0x0,0x0,0x0
	.DB  0x0,0x0,0x0,0x0,0x0,0x0,0x0,0x0
	.DB  0x0,0x0,0x0,0x0,0x0,0x0,0x0,0x0
	.DB  0x0,0x0,0x0,0x0,0x80,0xC0,0xE0,0xF0
	.DB  0xF8,0xFC,0xF8,0xE0,0x0,0x0,0x0,0x0
	.DB  0x0,0x0,0x0,0x0,0x0,0x0,0x0,0x0
	.DB  0x0,0x0,0x0,0x0,0x0,0x80,0x80,0x80
	.DB  0x80,0x80,0x0,0x80,0x80,0x0,0x0,0x0
	.DB  0x0,0x80,0x80,0x80,0x80,0x80,0x0,0xFF
	.DB  0xFF,0xFF,0x0,0x0,0x0,0x0,0x80,0x80
	.DB  0x80,0x80,0x0,0x0,0x80,0x80,0x0,0x0
	.DB  0x80,0xFF,0xFF,0x80,0x80,0x0,0x80,0x80
	.DB  0x0,0x80,0x80,0x80,0x80,0x0,0x80,0x80
	.DB  0x0,0x0,0x0,0x0,0x0,0x80,0x80,0x0
	.DB  0x0,0x8C,0x8E,0x84,0x0,0x0,0x80,0xF8
	.DB  0xF8,0xF8,0x80,0x0,0x0,0x0,0x0,0x0
	.DB  0x0,0x0,0x0,0x0,0x0,0x0,0x0,0x0
	.DB  0xF0,0xF0,0xF0,0xF0,0xF0,0xF0,0xF0,0xF0
	.DB  0xF0,0xF0,0xF0,0xF0,0xE0,0xE0,0xC0,0x80
	.DB  0x0,0xE0,0xFC,0xFE,0xFF,0xFF,0xFF,0x7F
	.DB  0xFF,0xFF,0xFF,0xFF,0xFF,0x0,0x0,0x0
	.DB  0x0,0x0,0x0,0x0,0x0,0x0,0x0,0x0
	.DB  0x0,0x0,0x0,0xFE,0xFF,0xC7,0x1,0x1
	.DB  0x1,0x1,0x83,0xFF,0xFF,0x0,0x0,0x7C
	.DB  0xFE,0xC7,0x1,0x1,0x1,0x1,0x83,0xFF
	.DB  0xFF,0xFF,0x0,0x38,0xFE,0xC7,0x83,0x1
	.DB  0x1,0x1,0x83,0xC7,0xFF,0xFF,0x0,0x0
	.DB  0x1,0xFF,0xFF,0x1,0x1,0x0,0xFF,0xFF
	.DB  0x7,0x1,0x1,0x1,0x0,0x0,0x7F,0xFF
	.DB  0x80,0x0,0x0,0x0,0xFF,0xFF,0x7F,0x0
	.DB  0x0,0xFF,0xFF,0xFF,0x0,0x0,0x1,0xFF
	.DB  0xFF,0xFF,0x1,0x0,0x0,0x0,0x0,0x0
	.DB  0x0,0x0,0x0,0x0,0x0,0x0,0x0,0x0
	.DB  0x3,0xF,0x3F,0x7F,0x7F,0xFF,0xFF,0xFF
	.DB  0xFF,0xFF,0xFF,0xFF,0xE7,0xC7,0xC7,0x8F
	.DB  0x8F,0x9F,0xBF,0xFF,0xFF,0xC3,0xC0,0xF0
	.DB  0xFF,0xFF,0xFF,0xFF,0xFF,0xFC,0xFC,0xFC
	.DB  0xFC,0xFC,0xFC,0xFC,0xFC,0xF8,0xF8,0xF0
	.DB  0xF0,0xE0,0xC0,0x0,0x1,0x3,0x3,0x3
	.DB  0x3,0x3,0x1,0x3,0x3,0x0,0x0,0x0
	.DB  0x0,0x1,0x3,0x3,0x3,0x3,0x1,0x1
	.DB  0x3,0x1,0x0,0x0,0x0,0x1,0x3,0x3
	.DB  0x3,0x3,0x1,0x1,0x3,0x3,0x0,0x0
	.DB  0x0,0x3,0x3,0x0,0x0,0x0,0x3,0x3
	.DB  0x0,0x0,0x0,0x0,0x0,0x0,0x0,0x1
	.DB  0x3,0x3,0x3,0x3,0x3,0x1,0x0,0x0
	.DB  0x0,0x1,0x3,0x1,0x0,0x0,0x0,0x3
	.DB  0x3,0x1,0x0,0x0,0x0,0x0,0x0,0x0
	.DB  0x0,0x0,0x0,0x0,0x0,0x0,0x0,0x0
	.DB  0x0,0x0,0x0,0x80,0xC0,0xE0,0xF0,0xF9
	.DB  0xFF,0xFF,0xFF,0xFF,0xFF,0x3F,0x1F,0xF
	.DB  0x87,0xC7,0xF7,0xFF,0xFF,0x1F,0x1F,0x3D
	.DB  0xFC,0xF8,0xF8,0xF8,0xF8,0x7C,0x7D,0xFF
	.DB  0xFF,0xFF,0xFF,0xFF,0xFF,0xFF,0xFF,0x7F
	.DB  0x3F,0xF,0x7,0x0,0x30,0x30,0x0,0x0
	.DB  0x0,0x0,0x0,0x0,0x0,0x0,0x0,0x0
	.DB  0x0,0x0,0x0,0x0,0x0,0x0,0x0,0x0
	.DB  0x0,0x0,0x0,0x0,0xFE,0xFE,0xFC,0x0
	.DB  0x0,0x0,0x0,0x0,0x0,0x0,0x0,0x0
	.DB  0x0,0x0,0x0,0x0,0x0,0x0,0x0,0x0
	.DB  0x0,0x0,0x0,0x0,0x0,0xE0,0xC0,0x0
	.DB  0x0,0x0,0x0,0x0,0x0,0x0,0x0,0x0
	.DB  0x0,0x0,0x30,0x30,0x0,0x0,0x0,0x0
	.DB  0x0,0x0,0x0,0x0,0x0,0x0,0x0,0x0
	.DB  0x0,0x0,0x0,0x0,0x0,0x0,0x0,0x0
	.DB  0x0,0xC0,0xFE,0xFF,0xFF,0xFF,0xFF,0xFF
	.DB  0xFF,0xFF,0xFF,0xFF,0x7F,0x7F,0x3F,0x1F
	.DB  0xF,0x7,0x1F,0x7F,0xFF,0xFF,0xF8,0xF8
	.DB  0xFF,0xFF,0xFF,0xFF,0xFF,0xFE,0xF8,0xE0
	.DB  0x0,0x0,0x0,0x1,0x0,0x0,0x0,0x0
	.DB  0x0,0x0,0x0,0x0,0xFE,0xFE,0x0,0x0
	.DB  0x0,0xFC,0xFE,0xFC,0xC,0x6,0x6,0xE
	.DB  0xFC,0xF8,0x0,0x0,0xF0,0xF8,0x1C,0xE
	.DB  0x6,0x6,0x6,0xC,0xFF,0xFF,0xFF,0x0
	.DB  0x0,0xFE,0xFE,0x0,0x0,0x0,0x0,0xFC
	.DB  0xFE,0xFC,0x0,0x18,0x3C,0x7E,0x66,0xE6
	.DB  0xCE,0x84,0x0,0x0,0x6,0xFF,0xFF,0x6
	.DB  0x6,0xFC,0xFE,0xFC,0xC,0x6,0x6,0x6
	.DB  0x0,0x0,0xFE,0xFE,0x0,0x0,0xC0,0xF8
	.DB  0xFC,0x4E,0x46,0x46,0x46,0x4E,0x7C,0x78
	.DB  0x40,0x18,0x3C,0x76,0xE6,0xCE,0xCC,0x80
	.DB  0x0,0x0,0x0,0x0,0x0,0x0,0x0,0x0
	.DB  0x0,0x0,0x0,0x0,0x0,0x0,0x0,0x0
	.DB  0x0,0x0,0x0,0x0,0x1,0x7,0xF,0x1F
	.DB  0x1F,0x3F,0x3F,0x3F,0x3F,0x1F,0xF,0x3
	.DB  0x0,0x0,0x0,0x0,0x0,0x0,0x0,0x0
	.DB  0x0,0x0,0x0,0x0,0xF,0xF,0x0,0x0
	.DB  0x0,0xF,0xF,0xF,0x0,0x0,0x0,0x0
	.DB  0xF,0xF,0x0,0x0,0x3,0x7,0xE,0xC
	.DB  0x18,0x18,0xC,0x6,0xF,0xF,0xF,0x0
	.DB  0x0,0x1,0xF,0xE,0xC,0x18,0xC,0xF
	.DB  0x7,0x1,0x0,0x4,0xE,0xC,0x18,0xC
	.DB  0xF,0x7,0x0,0x0,0x0,0xF,0xF,0x0
	.DB  0x0,0xF,0xF,0xF,0x0,0x0,0x0,0x0
	.DB  0x0,0x0,0xF,0xF,0x0,0x0,0x0,0x7
	.DB  0x7,0xC,0xC,0x18,0x1C,0xC,0x6,0x6
	.DB  0x0,0x4,0xE,0xC,0x18,0xC,0xF,0x7
_0x0:
	.DB  0x20,0xC1,0xE0,0xF2,0xE0,0xF0,0xE5,0xFF
	.DB  0x3A,0x0,0x76,0x0,0xC2,0xFB,0xE1,0xE5
	.DB  0xF0,0xE8,0xF2,0xE5,0x3A,0x0,0xD2,0xF0
	.DB  0xE0,0xED,0xF1,0xE0,0xE8,0xF0,0x3A,0x2D
	.DB  0x0,0xCC,0xE5,0xE4,0xE0,0xEF,0xF2,0xEE
	.DB  0xED,0x3A,0x2B,0x0,0xC2,0xFB,0xE1,0xF0
	.DB  0xE0,0xED,0x0,0x20,0xD2,0xF0,0xE0,0xED
	.DB  0xF1,0xE0,0xE8,0xF0,0x20,0x0,0x20,0xCC
	.DB  0xE5,0xE4,0xE0,0xEF,0xF2,0xEE,0xED,0x20
	.DB  0x0,0xC2,0xFB,0xE1,0xE5,0xF0,0xE8,0xF2
	.DB  0xE5,0x0,0xEF,0xE0,0xF6,0xE8,0xE5,0xED
	.DB  0xF2,0xE0,0x0,0xCF,0xE0,0xF6,0xE8,0xE5
	.DB  0xED,0xF2,0x20,0x0,0xD3,0xE4,0xE5,0xF0
	.DB  0xE6,0xE8,0x20,0x2B,0x20,0x0,0xE4,0xEB
	.DB  0xFF,0x20,0xED,0xEE,0xE2,0xEE,0xE9,0x0
	.DB  0xF3,0xF1,0xF2,0xE0,0xED,0xEE,0xE2,0xEA
	.DB  0xE8,0x2E,0x0,0x20,0xD1,0xED,0xE0,0xF7
	.DB  0xE0,0xEB,0xE0,0x3F,0x20,0x0,0x2D,0x20
	.DB  0xCD,0xE5,0xF2,0x2C,0x2B,0x20,0xC4,0xE0
	.DB  0x0,0x20,0xCA,0xD3,0xD0,0xD1,0x20,0x20
	.DB  0x0,0xD1,0xCD,0xC0,0xD7,0xC0,0xCB,0xC0
	.DB  0x0,0xC7,0xE0,0xE1,0x2E,0x20,0x4E,0x6F
	.DB  0x20,0x0,0xF0,0xE5,0xE6,0xE8,0xEC,0x20
	.DB  0x20,0x0,0xEF,0xE0,0xF6,0xE8,0xE5,0xED
	.DB  0xF2,0x0,0xF1,0xE5,0xE0,0xED,0xF1,0x20
	.DB  0x20,0x0,0xD2,0xF0,0xE0,0xED,0xF1,0x2B
	.DB  0xC3,0xE8,0xEF,0xED,0x0,0x2B,0xC3,0xE8
	.DB  0xEF,0xED,0xEE,0xE7,0x0,0xCD,0xE0,0xE6
	.DB  0xEC,0xE8,0xF2,0xE5,0x0,0x2D,0x28,0xEF
	.DB  0xF3,0xF1,0xEA,0x29,0x0,0x53,0x69,0x6E
	.DB  0x50,0x20,0x30,0x31,0x34,0x6D,0x53,0x0
	.DB  0xD3,0xF1,0xF2,0xE0,0xED,0xEE,0xE2,0xEA
	.DB  0xE0,0x0,0xE2,0xF0,0xE5,0xEC,0xE5,0xED
	.DB  0xE8,0x0,0x37,0x37,0xC3,0xF6,0x20,0x30
	.DB  0x2E,0x35,0x6D,0x53,0x0,0x49,0x3D,0x0
	.DB  0x6D,0x41,0x0,0xC2,0xFB,0xEA,0xEB,0xFE
	.DB  0xF7,0xE5,0xED,0xE8,0xE5,0x0,0x20,0xCF
	.DB  0xEE,0xEA,0xE0,0x21,0x20,0x0
_0x2020003:
	.DB  0x7

__GLOBAL_INI_TBL:
	.DW  0x01
	.DW  0x02
	.DW  __REG_BIT_VARS*2

	.DW  0x32
	.DW  _bufer
	.DW  _0x3*2

	.DW  0x380
	.DW  _buffer
	.DW  _0x4*2

	.DW  0x01
	.DW  _twi_result
	.DW  _0x2020003*2

_0xFFFFFFFF:
	.DW  0

#define __GLOBAL_INI_TBL_PRESENT 1

__RESET:
	CLI
	CLR  R30
	OUT  EECR,R30

;INTERRUPT VECTORS ARE PLACED
;AT THE START OF FLASH
	LDI  R31,1
	OUT  MCUCR,R31
	OUT  MCUCR,R30

;CLEAR R2-R14
	LDI  R24,(14-2)+1
	LDI  R26,2
	CLR  R27
__CLEAR_REG:
	ST   X+,R30
	DEC  R24
	BRNE __CLEAR_REG

;CLEAR SRAM
	LDI  R24,LOW(__CLEAR_SRAM_SIZE)
	LDI  R25,HIGH(__CLEAR_SRAM_SIZE)
	LDI  R26,LOW(__SRAM_START)
	LDI  R27,HIGH(__SRAM_START)
__CLEAR_SRAM:
	ST   X+,R30
	SBIW R24,1
	BRNE __CLEAR_SRAM

;GLOBAL VARIABLES INITIALIZATION
	LDI  R30,LOW(__GLOBAL_INI_TBL*2)
	LDI  R31,HIGH(__GLOBAL_INI_TBL*2)
__GLOBAL_INI_NEXT:
	LPM  R24,Z+
	LPM  R25,Z+
	SBIW R24,0
	BREQ __GLOBAL_INI_END
	LPM  R26,Z+
	LPM  R27,Z+
	LPM  R0,Z+
	LPM  R1,Z+
	MOVW R22,R30
	MOVW R30,R0
__GLOBAL_INI_LOOP:
	LPM  R0,Z+
	ST   X+,R0
	SBIW R24,1
	BRNE __GLOBAL_INI_LOOP
	MOVW R30,R22
	RJMP __GLOBAL_INI_NEXT
__GLOBAL_INI_END:

;GPIOR0 INITIALIZATION
	LDI  R30,__GPIOR0_INIT
	OUT  GPIOR0,R30

;HARDWARE STACK POINTER INITIALIZATION
	LDI  R30,LOW(__SRAM_END-__HEAP_SIZE)
	OUT  SPL,R30
	LDI  R30,HIGH(__SRAM_END-__HEAP_SIZE)
	OUT  SPH,R30

;DATA STACK POINTER INITIALIZATION
	LDI  R28,LOW(__SRAM_START+__DSTACK_SIZE)
	LDI  R29,HIGH(__SRAM_START+__DSTACK_SIZE)

	JMP  _main

	.ESEG
	.ORG 0

	.DSEG
	.ORG 0x300

	.CSEG
;/*******************************************************
;This program was created by the
;CodeWizardAVR V3.12 Advanced
;Automatic Program Generator
; Copyright 1998-2014 Pavel Haiduc, HP InfoTech s.r.l.
;http://www.hpinfotech.com
;
;Project :
;Version :
;Date    : 25.02.2015
;Author  :
;Company :
;Comments:
;
;
;Chip type               : ATmega328P
;Program type            : Application
;AVR Core Clock frequency: 16,000000 MHz
;Memory model            : Small
;External RAM size       : 0
;Data Stack size         : 512
;*******************************************************/
;
;#include <mega328p.h>
	#ifndef __SLEEP_DEFINED__
	#define __SLEEP_DEFINED__
	.EQU __se_bit=0x01
	.EQU __sm_mask=0x0E
	.EQU __sm_adc_noise_red=0x02
	.EQU __sm_powerdown=0x04
	.EQU __sm_powersave=0x06
	.EQU __sm_standby=0x0C
	.EQU __sm_ext_standby=0x0E
	.SET power_ctrl_reg=smcr
	#endif
;#include <sleep.h>
;#include <delay.h>
;#include <ssd1306.c>
;/*
;       SSD1306
;
;*/                                       ;//, tx_data0[50] =
;
;unsigned char rx_data[1],bufer[129] = {0x80, 0xAE, 0x80, 0xD5,0x80, 0x80,0x80, 0xA8,0x80, 0x3F,0x80, 0xD3,
;0x80, 0x0,0x80, 0x40,0x80, 0x8D,0x80, 0x14,0x80, 0x20,0x80, 0x00,0x80,  0xA1, 0x80, 0xC8,0x80,//    0xA1 ...
;0xDA,0x80, 0x12,0x80, 0x81,0x80, 0xCF,0x80, 0xD9,0x80, 0xF1,0x80, 0xDB,0x80, 0x40,0x80, 0xA4,
;0x80, 0xA6, 0x80, 0xAF ,0,0,0,0,0,0,0,0,0,0,0,0,0,0,0,0,0,0,0,0,0,0,0,0,0,0,0,0,0,0,0,0,0,0,0,0,0,0,0,0,0,0,0,0,0,0,0,0, ...

	.DSEG
;
;
;
;// TWI functions
;#include "glcdfont.c"
;// Standard ASCII 5x7 font
;flash unsigned char font[] = {
;    0x00, 0x00, 0x00, 0x00, 0x00,
;	0x3E, 0x5B, 0x4F, 0x5B, 0x3E,
;	0x3E, 0x6B, 0x4F, 0x6B, 0x3E,
;	0x1C, 0x3E, 0x7C, 0x3E, 0x1C,
;	0x18, 0x3C, 0x7E, 0x3C, 0x18,
;	0x1C, 0x57, 0x7D, 0x57, 0x1C,
;	0x1C, 0x5E, 0x7F, 0x5E, 0x1C,
;	0x00, 0x18, 0x3C, 0x18, 0x00,
;	0xFF, 0xE7, 0xC3, 0xE7, 0xFF,
;	0x00, 0x18, 0x24, 0x18, 0x00,
;	0xFF, 0xE7, 0xDB, 0xE7, 0xFF,
;	0x30, 0x48, 0x3A, 0x06, 0x0E,
;	0x26, 0x29, 0x79, 0x29, 0x26,
;	0x40, 0x7F, 0x05, 0x05, 0x07,
;	0x40, 0x7F, 0x05, 0x25, 0x3F,
;	0x5A, 0x3C, 0xE7, 0x3C, 0x5A,
;	0x7F, 0x3E, 0x1C, 0x1C, 0x08,
;	0x08, 0x1C, 0x1C, 0x3E, 0x7F,
;	0x14, 0x22, 0x7F, 0x22, 0x14,
;	0x5F, 0x5F, 0x00, 0x5F, 0x5F,
;	0x06, 0x09, 0x7F, 0x01, 0x7F,
;	0x00, 0x66, 0x89, 0x95, 0x6A,
;	0x60, 0x60, 0x60, 0x60, 0x60,
;	0x94, 0xA2, 0xFF, 0xA2, 0x94,
;	0x08, 0x04, 0x7E, 0x04, 0x08,
;	0x10, 0x20, 0x7E, 0x20, 0x10,
;	0x08, 0x08, 0x2A, 0x1C, 0x08,
;	0x08, 0x1C, 0x2A, 0x08, 0x08,
;	0x1E, 0x10, 0x10, 0x10, 0x10,
;	0x0C, 0x1E, 0x0C, 0x1E, 0x0C,
;	0x30, 0x38, 0x3E, 0x38, 0x30,
;	0x06, 0x0E, 0x3E, 0x0E, 0x06,
;	0x00, 0x00, 0x00, 0x00, 0x00,
;	0x00, 0x00, 0x5F, 0x00, 0x00,
;	0x00, 0x07, 0x00, 0x07, 0x00,
;	0x14, 0x7F, 0x14, 0x7F, 0x14,
;	0x24, 0x2A, 0x7F, 0x2A, 0x12,
;	0x23, 0x13, 0x08, 0x64, 0x62,
;	0x36, 0x49, 0x56, 0x20, 0x50,
;	0x00, 0x08, 0x07, 0x03, 0x00,
;	0x00, 0x1C, 0x22, 0x41, 0x00,
;	0x00, 0x41, 0x22, 0x1C, 0x00,
;	0x2A, 0x1C, 0x7F, 0x1C, 0x2A,
;	0x08, 0x08, 0x3E, 0x08, 0x08,
;	0x00, 0x80, 0x70, 0x30, 0x00,
;	0x08, 0x08, 0x08, 0x08, 0x08,
;	0x00, 0x00, 0x60, 0x60, 0x00,
;	0x20, 0x10, 0x08, 0x04, 0x02,
;	0x3E, 0x51, 0x49, 0x45, 0x3E,
;	0x00, 0x42, 0x7F, 0x40, 0x00,
;	0x72, 0x49, 0x49, 0x49, 0x46,
;	0x21, 0x41, 0x49, 0x4D, 0x33,
;	0x18, 0x14, 0x12, 0x7F, 0x10,
;	0x27, 0x45, 0x45, 0x45, 0x39,
;	0x3C, 0x4A, 0x49, 0x49, 0x31,
;	0x41, 0x21, 0x11, 0x09, 0x07,
;	0x36, 0x49, 0x49, 0x49, 0x36,
;	0x46, 0x49, 0x49, 0x29, 0x1E,
;	0x00, 0x00, 0x14, 0x00, 0x00,
;	0x00, 0x40, 0x34, 0x00, 0x00,
;	0x00, 0x08, 0x14, 0x22, 0x41,
;	0x14, 0x14, 0x14, 0x14, 0x14,
;	0x00, 0x41, 0x22, 0x14, 0x08,
;	0x02, 0x01, 0x59, 0x09, 0x06,
;	0x3E, 0x41, 0x5D, 0x59, 0x4E,
;	0x7C, 0x12, 0x11, 0x12, 0x7C,
;	0x7F, 0x49, 0x49, 0x49, 0x36,
;	0x3E, 0x41, 0x41, 0x41, 0x22,
;	0x7F, 0x41, 0x41, 0x41, 0x3E,
;	0x7F, 0x49, 0x49, 0x49, 0x41,
;	0x7F, 0x09, 0x09, 0x09, 0x01,
;	0x3E, 0x41, 0x41, 0x51, 0x73,
;	0x7F, 0x08, 0x08, 0x08, 0x7F,
;	0x00, 0x41, 0x7F, 0x41, 0x00,
;	0x20, 0x40, 0x41, 0x3F, 0x01,
;	0x7F, 0x08, 0x14, 0x22, 0x41,
;	0x7F, 0x40, 0x40, 0x40, 0x40,
;	0x7F, 0x02, 0x1C, 0x02, 0x7F,
;	0x7F, 0x04, 0x08, 0x10, 0x7F,
;	0x3E, 0x41, 0x41, 0x41, 0x3E,
;	0x7F, 0x09, 0x09, 0x09, 0x06,
;	0x3E, 0x41, 0x51, 0x21, 0x5E,
;	0x7F, 0x09, 0x19, 0x29, 0x46,
;	0x26, 0x49, 0x49, 0x49, 0x32,
;	0x03, 0x01, 0x7F, 0x01, 0x03,
;	0x3F, 0x40, 0x40, 0x40, 0x3F,
;	0x1F, 0x20, 0x40, 0x20, 0x1F,
;	0x3F, 0x40, 0x38, 0x40, 0x3F,
;	0x63, 0x14, 0x08, 0x14, 0x63,
;	0x03, 0x04, 0x78, 0x04, 0x03,
;	0x61, 0x59, 0x49, 0x4D, 0x43,
;	0x00, 0x7F, 0x41, 0x41, 0x41,
;	0x02, 0x04, 0x08, 0x10, 0x20,
;	0x00, 0x41, 0x41, 0x41, 0x7F,
;	0x04, 0x02, 0x01, 0x02, 0x04,
;	0x40, 0x40, 0x40, 0x40, 0x40,
;	0x00, 0x03, 0x07, 0x08, 0x00,
;	0x20, 0x54, 0x54, 0x78, 0x40,
;	0x7F, 0x28, 0x44, 0x44, 0x38,
;	0x38, 0x44, 0x44, 0x44, 0x28,
;	0x38, 0x44, 0x44, 0x28, 0x7F,
;	0x38, 0x54, 0x54, 0x54, 0x18,
;	0x00, 0x08, 0x7E, 0x09, 0x02,
;	0x18, 0xA4, 0xA4, 0x9C, 0x78,
;	0x7F, 0x08, 0x04, 0x04, 0x78,
;	0x00, 0x44, 0x7D, 0x40, 0x00,
;	0x20, 0x40, 0x40, 0x3D, 0x00,
;	0x7F, 0x10, 0x28, 0x44, 0x00,
;	0x00, 0x41, 0x7F, 0x40, 0x00,
;	0x7C, 0x04, 0x78, 0x04, 0x78,
;	0x7C, 0x08, 0x04, 0x04, 0x78,
;	0x38, 0x44, 0x44, 0x44, 0x38,
;	0xFC, 0x18, 0x24, 0x24, 0x18,
;	0x18, 0x24, 0x24, 0x18, 0xFC,
;	0x7C, 0x08, 0x04, 0x04, 0x08,
;	0x48, 0x54, 0x54, 0x54, 0x24,
;	0x04, 0x04, 0x3F, 0x44, 0x24,
;	0x3C, 0x40, 0x40, 0x20, 0x7C,
;	0x1C, 0x20, 0x40, 0x20, 0x1C,
;	0x3C, 0x40, 0x30, 0x40, 0x3C,
;	0x44, 0x28, 0x10, 0x28, 0x44,
;	0x4C, 0x90, 0x90, 0x90, 0x7C,
;	0x44, 0x64, 0x54, 0x4C, 0x44,
;	0x00, 0x08, 0x36, 0x41, 0x00,
;	0x00, 0x00, 0x77, 0x00, 0x00,
;	0x00, 0x41, 0x36, 0x08, 0x00,
;	0x02, 0x01, 0x02, 0x04, 0x02,
;	0x3C, 0x26, 0x23, 0x26, 0x3C,
;    0x00, 0x00, 0x00, 0x00, 0x00,
;	0x7F, 0x01, 0x01, 0x01, 0x03 ,  // 
;	0x00, 0x00, 0x00, 0x00, 0x00,
;	0x00, 0x00, 0x00, 0x00, 0x00,
;	0x00, 0x00, 0x00, 0x00, 0x00,
;	0x00, 0x00, 0x00, 0x00, 0x00,
;	0x00, 0x00, 0x00, 0x00, 0x00,
;	0x00, 0x00, 0x00, 0x00, 0x00,
;	0x00, 0x00, 0x00, 0x00, 0x00,
;	0x00, 0x00, 0x00, 0x00, 0x00,
;	0x00, 0x00, 0x00, 0x00, 0x00,
;	0x00, 0x00, 0x00, 0x00, 0x00,
;	0x00, 0x00, 0x00, 0x00, 0x00,
;	0x00, 0x00, 0x00, 0x00, 0x00,
;	0x00, 0x00, 0x00, 0x00, 0x00,
;	0x00, 0x00, 0x00, 0x00, 0x00,
;	0x00, 0x00, 0x00, 0x00, 0x00,
;	0x00, 0x00, 0x00, 0x00, 0x00,
;	0x00, 0x00, 0x00, 0x00, 0x00,
;	0x00, 0x00, 0x00, 0x00, 0x00,
;	0x00, 0x00, 0x00, 0x00, 0x00,
;	0x00, 0x00, 0x00, 0x00, 0x00,
;	0x00, 0x00, 0x00, 0x00, 0x00,
;	0x00, 0x00, 0x00, 0x00, 0x00,
;	0x00, 0x00, 0x00, 0x00, 0x00,
;	0x00, 0x00, 0x00, 0x00, 0x00,
;	0x00, 0x00, 0x00, 0x00, 0x00,
;	0x00, 0x00, 0x00, 0x00, 0x00,
;	0x00, 0x00, 0x00, 0x00, 0x00,
;	0x00, 0x00, 0x00, 0x00, 0x00,
;	0x00, 0x00, 0x00, 0x00, 0x00,
;	0x00, 0x00, 0x00, 0x00, 0x00,
;	0x00, 0x00, 0x00, 0x00, 0x00,
;	0x00, 0x00, 0x00, 0x00, 0x00,
;	0x00, 0x00, 0x00, 0x00, 0x00,
;	0x00, 0x00, 0x00, 0x00, 0x00,
;	0x00, 0x00, 0x00, 0x00, 0x00,
;	   0x7F, 0x01, 0x01, 0x01, 0x03 ,  // 
;	0x00, 0x00, 0x00, 0x00, 0x00,
;	0x00, 0x00, 0x00, 0x00, 0x00,
;	    0x7F, 0x49, 0x49, 0x49, 0x49 ,  // 
;	0x00, 0x00, 0x00, 0x00, 0x00,
;	     0x3E, 0x49, 0x49, 0x41, 0x22 , // 
;	0x00, 0x00, 0x00, 0x00, 0x00,
;	0x00, 0x00, 0x00, 0x00, 0x00,
;	0x00, 0x00, 0x00, 0x00, 0x00,
;	0x00, 0x00, 0x00, 0x00, 0x00,
;	     0x00, 0x43, 0x7E, 0x43, 0x00,   // 
;	0x00, 0x00, 0x00, 0x00, 0x00,
;	0x00, 0x00, 0x00, 0x00, 0x00,
;	     0x00, 0x41, 0x7F, 0x41, 0x00 , // 
;	     0x00, 0x44, 0x7d, 0x40, 0x00 , // 
;	     0x7C, 0x04, 0x04, 0x04, 0x0C ,  // 
;	0x00, 0x00, 0x00, 0x00, 0x00,
;	0x00, 0x00, 0x00, 0x00, 0x00,
;	0x00, 0x00, 0x00, 0x00, 0x00,
;	     0x38, 0x54, 0x54, 0x54, 0x08 ,  // 
;	0x00, 0x00, 0x00, 0x00, 0x00,
;	     0x38, 0x54, 0x54, 0x44, 0x28 , // 
;	0x00, 0x00, 0x00, 0x00, 0x00,
;	0x00, 0x00, 0x00, 0x00, 0x00,
;	0x00, 0x00, 0x00, 0x00, 0x00,
;	0x00, 0x00, 0x00, 0x00, 0x00,
;     0x00, 0x45, 0x7C, 0x41, 0x00 , // 
;	 0x7E, 0x11, 0x11, 0x11, 0x7E ,  // 
;     0x7F, 0x49, 0x49, 0x49, 0x33 ,  // 
;     0x7F, 0x49, 0x49, 0x49, 0x36 ,  // 
;     0x7F, 0x01, 0x01, 0x01, 0x03 ,  // 
;     0xE0, 0x51, 0x4F, 0x41, 0xFF ,  // 
;     0x7F, 0x49, 0x49, 0x49, 0x49 ,  // 
;     0x77, 0x08, 0x7F, 0x08, 0x77 ,  // 
;     0x49, 0x49, 0x49, 0x49, 0x36 ,  // 
;     0x7F, 0x10, 0x08, 0x04, 0x7F ,  // 
;     0x7C, 0x21, 0x12, 0x09, 0x7C ,  // 
;     0x7F, 0x08, 0x14, 0x22, 0x41 ,  // 
;     0x20, 0x41, 0x3F, 0x01, 0x7F ,  // 
;     0x7F, 0x02, 0x0C, 0x02, 0x7F ,  // 
;     0x7F, 0x08, 0x08, 0x08, 0x7F ,  // 
;     0x3E, 0x41, 0x41, 0x41, 0x3E ,  // 
;     0x7F, 0x01, 0x01, 0x01, 0x7F ,  // 
;     0x7F, 0x09, 0x09, 0x09, 0x06 ,  // 
;     0x3E, 0x41, 0x41, 0x41, 0x22 ,  // 
;     0x01, 0x01, 0x7F, 0x01, 0x01 ,  // 
;     0x27, 0x48, 0x48, 0x48, 0x3F ,  // 
;     0x1C, 0x22, 0x7F, 0x22, 0x1C ,  // 
;     0x63, 0x14, 0x08, 0x14, 0x63 ,  // 
;     0x7F, 0x40, 0x40, 0x40, 0xFF ,  // 
;     0x07, 0x08, 0x08, 0x08, 0x7F ,  // 
;     0x7F, 0x40, 0x7F, 0x40, 0x7F ,  // 
;     0x7F, 0x40, 0x7F, 0x40, 0xFF ,  // 
;     0x01, 0x7F, 0x48, 0x48, 0x30 ,  // 
;     0x7F, 0x48, 0x30, 0x00, 0x7F ,  // 
;     0x7F, 0x48, 0x48, 0x30, 0x00 ,  // 
;     0x22, 0x41, 0x49, 0x49, 0x3E ,  // 
;     0x7F, 0x08, 0x3E, 0x41, 0x3E ,  // 
;     0x46, 0x29, 0x19, 0x09, 0x7F ,  // 
;     0x20, 0x54, 0x54, 0x54, 0x78 ,  // 
;     0x3C, 0x4A, 0x4A, 0x49, 0x31 ,  // 
;     0x7C, 0x54, 0x54, 0x28, 0x00 ,  // 
;     0x7C, 0x04, 0x04, 0x04, 0x0C ,  // 
;     0xE0, 0x54, 0x4C, 0x44, 0xFC ,  // 
;     0x38, 0x54, 0x54, 0x54, 0x08 ,  // 
;     0x6C, 0x10, 0x7C, 0x10, 0x6C ,  // 
;     0x44, 0x44, 0x54, 0x54, 0x28 ,  // 
;     0x7C, 0x20, 0x10, 0x08, 0x7C ,  // 
;     0x78, 0x42, 0x24, 0x12, 0x78 ,  // 
;     0x7C, 0x10, 0x28, 0x44, 0x00 ,  // 
;     0x20, 0x44, 0x3C, 0x04, 0x7C ,  // 
;     0x7C, 0x08, 0x10, 0x08, 0x7C ,  // 
;     0x7C, 0x10, 0x10, 0x10, 0x7C ,  // 
;     0x38, 0x44, 0x44, 0x44, 0x38 ,  // 
;     0x7C, 0x04, 0x04, 0x04, 0x7C ,  // 
;     0x7C, 0x14, 0x14, 0x14, 0x08 ,  // 
;     0x38, 0x44, 0x44, 0x44, 0x44 ,  // 
;     0x04, 0x04, 0x7C, 0x04, 0x04 ,  // 
;     0x0C, 0x50, 0x50, 0x50, 0x3C ,  // 
;     0x18, 0x24, 0x7E, 0x24, 0x18 ,  // 
;     0x44, 0x28, 0x10, 0x28, 0x44 ,  // 
;     0x7C, 0x40, 0x40, 0x40, 0xFC ,  // 
;     0x0C, 0x10, 0x10, 0x10, 0x7C ,  // 
;     0x7C, 0x40, 0x7C, 0x40, 0x7C ,  // 
;     0x7C, 0x40, 0x7C, 0x40, 0xFC ,  // 
;     0x04, 0x7C, 0x50, 0x50, 0x20 ,  // 
;     0x7C, 0x50, 0x20, 0x00, 0x7C ,  // 
;     0x7C, 0x50, 0x50, 0x20, 0x00 ,  // 
;     0x28, 0x44, 0x54, 0x54, 0x38 ,  // 
;     0x7C, 0x10, 0x38, 0x44, 0x38 ,  // 
;     0x08, 0x54, 0x34, 0x14, 0x7C   // 
;};
;
;
;
;
;unsigned char buffer[1024] =  {
;0x00, 0x00, 0x00, 0x00, 0x00, 0x00, 0x00, 0x00, 0x00, 0x00, 0x00, 0x00, 0x00, 0x00, 0x00, 0x00,
;0x00, 0x00, 0x00, 0x00, 0x00, 0x00, 0x00, 0x00, 0x00, 0x00, 0x00, 0x00, 0x00, 0x00, 0x00, 0x00,
;0x00, 0x00, 0x00, 0x00, 0x00, 0x00, 0x00, 0x00, 0x00, 0x00, 0x00, 0x00, 0x00, 0x00, 0x00, 0x00,
;0x00, 0x00, 0x00, 0x00, 0x00, 0x00, 0x00, 0x00, 0x00, 0x00, 0x00, 0x00, 0x00, 0x00, 0x00, 0x80,
;0x80, 0x80, 0x00, 0x00, 0x00, 0x00, 0x00, 0x00, 0x00, 0x00, 0x00, 0x00, 0x00, 0x00, 0x00, 0x00,
;0x00, 0x80, 0x80, 0xC0, 0xC0, 0x00, 0x00, 0x00, 0x00, 0x00, 0x00, 0x00, 0x00, 0x00, 0x00, 0x00,
;0x00, 0x00, 0x00, 0x00, 0x00, 0x00, 0x00, 0x00, 0x00, 0x00, 0x00, 0x00, 0x00, 0x00, 0x00, 0x00,
;0x00, 0x00, 0x00, 0x00, 0x00, 0x00, 0x00, 0x00, 0x00, 0x00, 0x00, 0x00, 0x00, 0x00, 0x00, 0x00,
;0x00, 0x00, 0x00, 0x00, 0x00, 0x00, 0x00, 0x00, 0x00, 0x00, 0x00, 0x00, 0x00, 0x00, 0x00, 0x00,
;0x00, 0x00, 0x00, 0x00, 0x80, 0xC0, 0xE0, 0xF0, 0xF8, 0xFC, 0xF8, 0xE0, 0x00, 0x00, 0x00, 0x00,
;0x00, 0x00, 0x00, 0x00, 0x00, 0x00, 0x00, 0x00, 0x00, 0x00, 0x00, 0x00, 0x00, 0x80, 0x80, 0x80,
;0x80, 0x80, 0x00, 0x80, 0x80, 0x00, 0x00, 0x00, 0x00, 0x80, 0x80, 0x80, 0x80, 0x80, 0x00, 0xFF,
;0xFF, 0xFF, 0x00, 0x00, 0x00, 0x00, 0x80, 0x80, 0x80, 0x80, 0x00, 0x00, 0x80, 0x80, 0x00, 0x00,
;0x80, 0xFF, 0xFF, 0x80, 0x80, 0x00, 0x80, 0x80, 0x00, 0x80, 0x80, 0x80, 0x80, 0x00, 0x80, 0x80,
;0x00, 0x00, 0x00, 0x00, 0x00, 0x80, 0x80, 0x00, 0x00, 0x8C, 0x8E, 0x84, 0x00, 0x00, 0x80, 0xF8,
;0xF8, 0xF8, 0x80, 0x00, 0x00, 0x00, 0x00, 0x00, 0x00, 0x00, 0x00, 0x00, 0x00, 0x00, 0x00, 0x00,
;0xF0, 0xF0, 0xF0, 0xF0, 0xF0, 0xF0, 0xF0, 0xF0, 0xF0, 0xF0, 0xF0, 0xF0, 0xE0, 0xE0, 0xC0, 0x80,
;0x00, 0xE0, 0xFC, 0xFE, 0xFF, 0xFF, 0xFF, 0x7F, 0xFF, 0xFF, 0xFF, 0xFF, 0xFF, 0x00, 0x00, 0x00,
;0x00, 0x00, 0x00, 0x00, 0x00, 0x00, 0x00, 0x00, 0x00, 0x00, 0x00, 0xFE, 0xFF, 0xC7, 0x01, 0x01,
;0x01, 0x01, 0x83, 0xFF, 0xFF, 0x00, 0x00, 0x7C, 0xFE, 0xC7, 0x01, 0x01, 0x01, 0x01, 0x83, 0xFF,
;0xFF, 0xFF, 0x00, 0x38, 0xFE, 0xC7, 0x83, 0x01, 0x01, 0x01, 0x83, 0xC7, 0xFF, 0xFF, 0x00, 0x00,
;0x01, 0xFF, 0xFF, 0x01, 0x01, 0x00, 0xFF, 0xFF, 0x07, 0x01, 0x01, 0x01, 0x00, 0x00, 0x7F, 0xFF,
;0x80, 0x00, 0x00, 0x00, 0xFF, 0xFF, 0x7F, 0x00, 0x00, 0xFF, 0xFF, 0xFF, 0x00, 0x00, 0x01, 0xFF,
;0xFF, 0xFF, 0x01, 0x00, 0x00, 0x00, 0x00, 0x00, 0x00, 0x00, 0x00, 0x00, 0x00, 0x00, 0x00, 0x00,
;0x03, 0x0F, 0x3F, 0x7F, 0x7F, 0xFF, 0xFF, 0xFF, 0xFF, 0xFF, 0xFF, 0xFF, 0xE7, 0xC7, 0xC7, 0x8F,
;0x8F, 0x9F, 0xBF, 0xFF, 0xFF, 0xC3, 0xC0, 0xF0, 0xFF, 0xFF, 0xFF, 0xFF, 0xFF, 0xFC, 0xFC, 0xFC,
;0xFC, 0xFC, 0xFC, 0xFC, 0xFC, 0xF8, 0xF8, 0xF0, 0xF0, 0xE0, 0xC0, 0x00, 0x01, 0x03, 0x03, 0x03,
;0x03, 0x03, 0x01, 0x03, 0x03, 0x00, 0x00, 0x00, 0x00, 0x01, 0x03, 0x03, 0x03, 0x03, 0x01, 0x01,
;0x03, 0x01, 0x00, 0x00, 0x00, 0x01, 0x03, 0x03, 0x03, 0x03, 0x01, 0x01, 0x03, 0x03, 0x00, 0x00,
;0x00, 0x03, 0x03, 0x00, 0x00, 0x00, 0x03, 0x03, 0x00, 0x00, 0x00, 0x00, 0x00, 0x00, 0x00, 0x01,
;0x03, 0x03, 0x03, 0x03, 0x03, 0x01, 0x00, 0x00, 0x00, 0x01, 0x03, 0x01, 0x00, 0x00, 0x00, 0x03,
;0x03, 0x01, 0x00, 0x00, 0x00, 0x00, 0x00, 0x00, 0x00, 0x00, 0x00, 0x00, 0x00, 0x00, 0x00, 0x00,
;0x00, 0x00, 0x00, 0x80, 0xC0, 0xE0, 0xF0, 0xF9, 0xFF, 0xFF, 0xFF, 0xFF, 0xFF, 0x3F, 0x1F, 0x0F,
;0x87, 0xC7, 0xF7, 0xFF, 0xFF, 0x1F, 0x1F, 0x3D, 0xFC, 0xF8, 0xF8, 0xF8, 0xF8, 0x7C, 0x7D, 0xFF,
;0xFF, 0xFF, 0xFF, 0xFF, 0xFF, 0xFF, 0xFF, 0x7F, 0x3F, 0x0F, 0x07, 0x00, 0x30, 0x30, 0x00, 0x00,
;0x00, 0x00, 0x00, 0x00, 0x00, 0x00, 0x00, 0x00, 0x00, 0x00, 0x00, 0x00, 0x00, 0x00, 0x00, 0x00,
;0x00, 0x00, 0x00, 0x00, 0xFE, 0xFE, 0xFC, 0x00, 0x00, 0x00, 0x00, 0x00, 0x00, 0x00, 0x00, 0x00,
;0x00, 0x00, 0x00, 0x00, 0x00, 0x00, 0x00, 0x00, 0x00, 0x00, 0x00, 0x00, 0x00, 0xE0, 0xC0, 0x00,
;0x00, 0x00, 0x00, 0x00, 0x00, 0x00, 0x00, 0x00, 0x00, 0x00, 0x30, 0x30, 0x00, 0x00, 0x00, 0x00,
;0x00, 0x00, 0x00, 0x00, 0x00, 0x00, 0x00, 0x00, 0x00, 0x00, 0x00, 0x00, 0x00, 0x00, 0x00, 0x00,
;0x00, 0xC0, 0xFE, 0xFF, 0xFF, 0xFF, 0xFF, 0xFF, 0xFF, 0xFF, 0xFF, 0xFF, 0x7F, 0x7F, 0x3F, 0x1F,
;0x0F, 0x07, 0x1F, 0x7F, 0xFF, 0xFF, 0xF8, 0xF8, 0xFF, 0xFF, 0xFF, 0xFF, 0xFF, 0xFE, 0xF8, 0xE0,
;0x00, 0x00, 0x00, 0x01, 0x00, 0x00, 0x00, 0x00, 0x00, 0x00, 0x00, 0x00, 0xFE, 0xFE, 0x00, 0x00,
;0x00, 0xFC, 0xFE, 0xFC, 0x0C, 0x06, 0x06, 0x0E, 0xFC, 0xF8, 0x00, 0x00, 0xF0, 0xF8, 0x1C, 0x0E,
;0x06, 0x06, 0x06, 0x0C, 0xFF, 0xFF, 0xFF, 0x00, 0x00, 0xFE, 0xFE, 0x00, 0x00, 0x00, 0x00, 0xFC,
;0xFE, 0xFC, 0x00, 0x18, 0x3C, 0x7E, 0x66, 0xE6, 0xCE, 0x84, 0x00, 0x00, 0x06, 0xFF, 0xFF, 0x06,
;0x06, 0xFC, 0xFE, 0xFC, 0x0C, 0x06, 0x06, 0x06, 0x00, 0x00, 0xFE, 0xFE, 0x00, 0x00, 0xC0, 0xF8,
;0xFC, 0x4E, 0x46, 0x46, 0x46, 0x4E, 0x7C, 0x78, 0x40, 0x18, 0x3C, 0x76, 0xE6, 0xCE, 0xCC, 0x80,
;0x00, 0x00, 0x00, 0x00, 0x00, 0x00, 0x00, 0x00, 0x00, 0x00, 0x00, 0x00, 0x00, 0x00, 0x00, 0x00,
;0x00, 0x00, 0x00, 0x00, 0x01, 0x07, 0x0F, 0x1F, 0x1F, 0x3F, 0x3F, 0x3F, 0x3F, 0x1F, 0x0F, 0x03,
;0x00, 0x00, 0x00, 0x00, 0x00, 0x00, 0x00, 0x00, 0x00, 0x00, 0x00, 0x00, 0x0F, 0x0F, 0x00, 0x00,
;0x00, 0x0F, 0x0F, 0x0F, 0x00, 0x00, 0x00, 0x00, 0x0F, 0x0F, 0x00, 0x00, 0x03, 0x07, 0x0E, 0x0C,
;0x18, 0x18, 0x0C, 0x06, 0x0F, 0x0F, 0x0F, 0x00, 0x00, 0x01, 0x0F, 0x0E, 0x0C, 0x18, 0x0C, 0x0F,
;0x07, 0x01, 0x00, 0x04, 0x0E, 0x0C, 0x18, 0x0C, 0x0F, 0x07, 0x00, 0x00, 0x00, 0x0F, 0x0F, 0x00,
;0x00, 0x0F, 0x0F, 0x0F, 0x00, 0x00, 0x00, 0x00, 0x00, 0x00, 0x0F, 0x0F, 0x00, 0x00, 0x00, 0x07,
;0x07, 0x0C, 0x0C, 0x18, 0x1C, 0x0C, 0x06, 0x06, 0x00, 0x04, 0x0E, 0x0C, 0x18, 0x0C, 0x0F, 0x07,
;0x00, 0x00, 0x00, 0x00, 0x00, 0x00, 0x00, 0x00, 0x00, 0x00, 0x00, 0x00, 0x00, 0x00, 0x00, 0x00,
;0x00, 0x00, 0x00, 0x00, 0x00, 0x00, 0x00, 0x00, 0x00, 0x00, 0x00, 0x00, 0x00, 0x00, 0x00, 0x00,
;0x00, 0x00, 0x00, 0x00, 0x00, 0x00, 0x00, 0x00, 0x00, 0x00, 0x00, 0x00, 0x00, 0x00, 0x00, 0x00,
;0x00, 0x00, 0x00, 0x00, 0x00, 0x00, 0x00, 0x00, 0x00, 0x00, 0x00, 0x00, 0x00, 0x00, 0x00, 0x00,
;0x00, 0x00, 0x00, 0x00, 0x00, 0x00, 0x00, 0x00, 0x00, 0x00, 0x00, 0x00, 0x00, 0x00, 0x00, 0x00,
;0x00, 0x00, 0x00, 0x00, 0x00, 0x00, 0x00, 0x00, 0x00, 0x00, 0x00, 0x00, 0x00, 0x00, 0x00, 0x00,
;0x00, 0x00, 0x00, 0x00, 0x00, 0x00, 0x00, 0x00, 0x00, 0x00, 0x00, 0x00, 0x00, 0x00, 0x00, 0x00,
;0x00, 0x00, 0x00, 0x00, 0x00, 0x00, 0x00, 0x00, 0x00, 0x00, 0x00, 0x00, 0x00, 0x00, 0x00, 0x00
;};
;
;
;
;
;
;void clearDisplay(void)
; 0000 001B {

	.CSEG
_clearDisplay:
; .FSTART _clearDisplay
;int i0;
;    for(i0=0; i0<1024;i0++) buffer[i0] = 0;
	CALL SUBOPT_0x0
;	i0 -> R16,R17
_0x6:
	__CPWRN 16,17,1024
	BRGE _0x7
	LDI  R26,LOW(_buffer)
	LDI  R27,HIGH(_buffer)
	ADD  R26,R16
	ADC  R27,R17
	LDI  R30,LOW(0)
	ST   X,R30
	__ADDWRN 16,17,1
	RJMP _0x6
_0x7:
	LD   R16,Y+
	LD   R17,Y+
	RET
; .FEND
;
;
;
;
;void drawPixel(int x0, int y0, int color) {
_drawPixel:
; .FSTART _drawPixel
;  if ((x0 < 0) || (x0 >= 128) || (y0 < 0) || (y0 >= 64))
	ST   -Y,R27
	ST   -Y,R26
;	x0 -> Y+4
;	y0 -> Y+2
;	color -> Y+0
	LDD  R26,Y+5
	TST  R26
	BRMI _0x9
	LDD  R26,Y+4
	LDD  R27,Y+4+1
	CPI  R26,LOW(0x80)
	LDI  R30,HIGH(0x80)
	CPC  R27,R30
	BRGE _0x9
	LDD  R26,Y+3
	TST  R26
	BRMI _0x9
	LDD  R26,Y+2
	LDD  R27,Y+2+1
	CPI  R26,LOW(0x40)
	LDI  R30,HIGH(0x40)
	CPC  R27,R30
	BRLT _0x8
_0x9:
;    return;
	RJMP _0x2060005
;
;//    x0 = 128 - x0 - 1;
;//    y0 = 64 - y0 - 1;
;
;  // x is which column
;    switch (color)
_0x8:
	LD   R30,Y
	LDD  R31,Y+1
;    {
;      case 1:   buffer[x0+ (y0/8)*128] |=  (1 << (y0&7)); break;
	CPI  R30,LOW(0x1)
	LDI  R26,HIGH(0x1)
	CPC  R31,R26
	BRNE _0xE
	CALL SUBOPT_0x1
	OR   R30,R1
	RJMP _0x276
;      case 0:   buffer[x0+ (y0/8)*128] &= ~(1 << (y0&7)); break;
_0xE:
	SBIW R30,0
	BRNE _0xF
	CALL SUBOPT_0x1
	COM  R30
	AND  R30,R1
	RJMP _0x276
;      case 2:  buffer[x0+ (y0/8)*128] ^=  (1 << (y0&7)); break;
_0xF:
	CPI  R30,LOW(0x2)
	LDI  R26,HIGH(0x2)
	CPC  R31,R26
	BRNE _0xD
	CALL SUBOPT_0x1
	EOR  R30,R1
_0x276:
	MOVW R26,R22
	ST   X,R30
;    }
_0xD:
;
;}
_0x2060005:
	ADIW R28,6
	RET
; .FEND
;
;void drawLine(int x1, int y1, int x2, int y2, int color)
;{
_drawLine:
; .FSTART _drawLine
;int kx,ky;
;int znx, zny;
;if (x2 > 127) x2 = 127;
	ST   -Y,R27
	ST   -Y,R26
	SBIW R28,2
	CALL __SAVELOCR6
;	x1 -> Y+16
;	y1 -> Y+14
;	x2 -> Y+12
;	y2 -> Y+10
;	color -> Y+8
;	kx -> R16,R17
;	ky -> R18,R19
;	znx -> R20,R21
;	zny -> Y+6
	LDD  R26,Y+12
	LDD  R27,Y+12+1
	CPI  R26,LOW(0x80)
	LDI  R30,HIGH(0x80)
	CPC  R27,R30
	BRLT _0x11
	LDI  R30,LOW(127)
	LDI  R31,HIGH(127)
	STD  Y+12,R30
	STD  Y+12+1,R31
;if (x2 < 0) x2 = 0;
_0x11:
	LDD  R26,Y+13
	TST  R26
	BRPL _0x12
	LDI  R30,LOW(0)
	STD  Y+12,R30
	STD  Y+12+1,R30
;if (x1 > 127) x1 = 127 ;
_0x12:
	LDD  R26,Y+16
	LDD  R27,Y+16+1
	CPI  R26,LOW(0x80)
	LDI  R30,HIGH(0x80)
	CPC  R27,R30
	BRLT _0x13
	LDI  R30,LOW(127)
	LDI  R31,HIGH(127)
	STD  Y+16,R30
	STD  Y+16+1,R31
;if (x1 < 0) x1 = 0 ;
_0x13:
	LDD  R26,Y+17
	TST  R26
	BRPL _0x14
	LDI  R30,LOW(0)
	STD  Y+16,R30
	STD  Y+16+1,R30
;if (y2 > 63) y2 = 63;
_0x14:
	LDD  R26,Y+10
	LDD  R27,Y+10+1
	CPI  R26,LOW(0x40)
	LDI  R30,HIGH(0x40)
	CPC  R27,R30
	BRLT _0x15
	LDI  R30,LOW(63)
	LDI  R31,HIGH(63)
	STD  Y+10,R30
	STD  Y+10+1,R31
;if (y2 < 0) y2 = 0;
_0x15:
	LDD  R26,Y+11
	TST  R26
	BRPL _0x16
	LDI  R30,LOW(0)
	STD  Y+10,R30
	STD  Y+10+1,R30
;if (y1 > 63) y1 = 63;
_0x16:
	LDD  R26,Y+14
	LDD  R27,Y+14+1
	CPI  R26,LOW(0x40)
	LDI  R30,HIGH(0x40)
	CPC  R27,R30
	BRLT _0x17
	LDI  R30,LOW(63)
	LDI  R31,HIGH(63)
	STD  Y+14,R30
	STD  Y+14+1,R31
;if (y1 < 0) y1 = 0;
_0x17:
	LDD  R26,Y+15
	TST  R26
	BRPL _0x18
	LDI  R30,LOW(0)
	STD  Y+14,R30
	STD  Y+14+1,R30
;    if (x1 > x2) znx = -1; else znx = 1;
_0x18:
	LDD  R30,Y+12
	LDD  R31,Y+12+1
	LDD  R26,Y+16
	LDD  R27,Y+16+1
	CP   R30,R26
	CPC  R31,R27
	BRGE _0x19
	__GETWRN 20,21,-1
	RJMP _0x1A
_0x19:
	__GETWRN 20,21,1
;    if (y1 > y2) zny = -1; else zny = 1;
_0x1A:
	LDD  R30,Y+10
	LDD  R31,Y+10+1
	LDD  R26,Y+14
	LDD  R27,Y+14+1
	CP   R30,R26
	CPC  R31,R27
	BRGE _0x1B
	LDI  R30,LOW(65535)
	LDI  R31,HIGH(65535)
	RJMP _0x277
_0x1B:
	LDI  R30,LOW(1)
	LDI  R31,HIGH(1)
_0x277:
	STD  Y+6,R30
	STD  Y+6+1,R31
;    kx = ((x2 - x1)*znx);
	CALL SUBOPT_0x2
;    ky = ((y2 - y1)*zny);
;    drawPixel(x1,y1,color);
;    while ((kx + ky) > 0)
_0x1D:
	MOVW R26,R18
	ADD  R26,R16
	ADC  R27,R17
	CALL __CPW02
	BRGE _0x1F
;    {
;        if (kx > 0) if (ky / kx <= 5) x1 = x1 + znx;
	CLR  R0
	CP   R0,R16
	CPC  R0,R17
	BRGE _0x20
	MOVW R30,R16
	MOVW R26,R18
	CALL __DIVW21
	SBIW R30,6
	BRGE _0x21
	MOVW R30,R20
	LDD  R26,Y+16
	LDD  R27,Y+16+1
	ADD  R30,R26
	ADC  R31,R27
	STD  Y+16,R30
	STD  Y+16+1,R31
;        if (ky > 0) if (kx / ky <= 5) y1 = y1 + zny;
_0x21:
_0x20:
	CLR  R0
	CP   R0,R18
	CPC  R0,R19
	BRGE _0x22
	MOVW R30,R18
	MOVW R26,R16
	CALL __DIVW21
	SBIW R30,6
	BRGE _0x23
	LDD  R30,Y+6
	LDD  R31,Y+6+1
	CALL SUBOPT_0x3
	STD  Y+14,R30
	STD  Y+14+1,R31
;        kx = ((x2 - x1)*znx);
_0x23:
_0x22:
	CALL SUBOPT_0x2
;        ky = ((y2 - y1)*zny);
;        drawPixel(x1,y1,color);
;    }
	RJMP _0x1D
_0x1F:
;
;}
	CALL __LOADLOCR6
	ADIW R28,18
	RET
; .FEND
;
;
;void fillRect(int x, int y, int w, int h,
;			    unsigned int color) {
_fillRect:
; .FSTART _fillRect
; int i;
;  // Update in subclasses if desired!
;  for (i=x; i<x+w; i++) {
	ST   -Y,R27
	ST   -Y,R26
	ST   -Y,R17
	ST   -Y,R16
;	x -> Y+10
;	y -> Y+8
;	w -> Y+6
;	h -> Y+4
;	color -> Y+2
;	i -> R16,R17
	__GETWRS 16,17,10
_0x25:
	LDD  R30,Y+6
	LDD  R31,Y+6+1
	CALL SUBOPT_0x4
	CP   R16,R30
	CPC  R17,R31
	BRGE _0x26
;    drawLine(i, y, i, y+h-1, color);
	ST   -Y,R17
	ST   -Y,R16
	CALL SUBOPT_0x5
	ST   -Y,R17
	ST   -Y,R16
	LDD  R30,Y+10
	LDD  R31,Y+10+1
	CALL SUBOPT_0x6
	ST   -Y,R27
	ST   -Y,R26
	LDD  R26,Y+10
	LDD  R27,Y+10+1
	RCALL _drawLine
;  }
	__ADDWRN 16,17,1
	RJMP _0x25
_0x26:
;}
	LDD  R17,Y+1
	LDD  R16,Y+0
	ADIW R28,12
	RET
; .FEND
;
;void drawChar(int x0, int y0, char c)
;{
_drawChar:
; .FSTART _drawChar
;int i0;
;for(i0 = 0 ;i0< 5;i0++) buffer[x0+y0*128+i0] = font[c*5+i0];
	ST   -Y,R26
	CALL SUBOPT_0x0
;	x0 -> Y+5
;	y0 -> Y+3
;	c -> Y+2
;	i0 -> R16,R17
_0x28:
	__CPWRN 16,17,5
	BRGE _0x29
	CALL SUBOPT_0x7
	ADD  R30,R16
	ADC  R31,R17
	SUBI R30,LOW(-_buffer)
	SBCI R31,HIGH(-_buffer)
	MOVW R22,R30
	LDD  R26,Y+2
	LDI  R30,LOW(5)
	MUL  R30,R26
	MOVW R30,R0
	ADD  R30,R16
	ADC  R31,R17
	SUBI R30,LOW(-_font*2)
	SBCI R31,HIGH(-_font*2)
	LPM  R30,Z
	MOVW R26,R22
	ST   X,R30
	__ADDWRN 16,17,1
	RJMP _0x28
_0x29:
	CALL SUBOPT_0x7
	__ADDW1MN _buffer,5
	LDI  R26,LOW(0)
	STD  Z+0,R26
;}
	LDD  R17,Y+1
	LDD  R16,Y+0
	ADIW R28,7
	RET
; .FEND
;
;// Draw a character
;void drawCharZ(int x, int y, unsigned char c, int color, int size) {
_drawCharZ:
; .FSTART _drawCharZ
;int j,i0;
;unsigned char line,i, j0;
;    if((x >= 128)            || // Clip right
	CALL SUBOPT_0x8
;	x -> Y+14
;	y -> Y+12
;	c -> Y+11
;	color -> Y+9
;	size -> Y+7
;	j -> R16,R17
;	i0 -> R18,R19
;	line -> R21
;	i -> R20
;	j0 -> Y+6
;     (y >= 64)           || // Clip bottom
;     ((x + 6 * size - 1) < 0) || // Clip left
;     ((y + 8 * size - 1) < 0))   // Clip top
	BRGE _0x2B
	LDD  R26,Y+12
	LDD  R27,Y+12+1
	CPI  R26,LOW(0x40)
	LDI  R30,HIGH(0x40)
	CPC  R27,R30
	BRGE _0x2B
	CALL SUBOPT_0x9
	TST  R27
	BRMI _0x2B
	CALL SUBOPT_0xA
	BRPL _0x2A
_0x2B:
;    return;
	RJMP _0x2060004
;
;  for (i0=0; i0<6; i0++ ) {
_0x2A:
	__GETWRN 18,19,0
_0x2E:
	__CPWRN 18,19,6
	BRGE _0x2F
;
;    if (i0 == 5) line = 0x0;
	LDI  R30,LOW(5)
	LDI  R31,HIGH(5)
	CP   R30,R18
	CPC  R31,R19
	BRNE _0x30
	LDI  R21,LOW(0)
;    else
	RJMP _0x31
_0x30:
;      line = font[c*5+i0];
	CALL SUBOPT_0xB
;    for (j = 0; j<8; j++) {
_0x31:
	__GETWRN 16,17,0
_0x33:
	__CPWRN 16,17,8
	BRGE _0x34
;      if (line & 0x1) {
	SBRS R21,0
	RJMP _0x35
;        if (size == 1) // default size
	LDD  R26,Y+7
	LDD  R27,Y+7+1
	SBIW R26,1
	BRNE _0x36
;          drawPixel(x+i0, y+j, color);
	MOVW R30,R18
	CALL SUBOPT_0x3
	ST   -Y,R31
	ST   -Y,R30
	MOVW R30,R16
	CALL SUBOPT_0x3
	CALL SUBOPT_0xC
;        else {  // big size
	RJMP _0x37
_0x36:
;          for (i = 0; i < size; i++) for (j0 = 0; j0 < size; j0++) drawPixel(x+i0*size+i,y+j*size+j0,color);
	LDI  R20,LOW(0)
_0x39:
	CALL SUBOPT_0xD
	BRGE _0x3A
	LDI  R30,LOW(0)
	STD  Y+6,R30
_0x3C:
	CALL SUBOPT_0xE
	BRGE _0x3D
	CALL SUBOPT_0xF
	LDD  R30,Y+6
	SUBI R30,-LOW(1)
	STD  Y+6,R30
	RJMP _0x3C
_0x3D:
	SUBI R20,-1
	RJMP _0x39
_0x3A:
_0x37:
;      }
;      line >>= 1;
_0x35:
	LSR  R21
;    }
	__ADDWRN 16,17,1
	RJMP _0x33
_0x34:
;  }
	__ADDWRN 18,19,1
	RJMP _0x2E
_0x2F:
;}
	RJMP _0x2060004
; .FEND
;
;void drawCharZo(int x, int y, unsigned char c, int color, int size) {
_drawCharZo:
; .FSTART _drawCharZo
;int j,i0;
;unsigned char line,i,j0;
;    if((x >= 128)            || // Clip right
	CALL SUBOPT_0x8
;	x -> Y+14
;	y -> Y+12
;	c -> Y+11
;	color -> Y+9
;	size -> Y+7
;	j -> R16,R17
;	i0 -> R18,R19
;	line -> R21
;	i -> R20
;	j0 -> Y+6
;     (y >= 64)           || // Clip bottom
;     ((x + 6 * size - 1) < 0) || // Clip left
;     ((y + 8 * size - 1) < 0))   // Clip top
	BRGE _0x3F
	LDD  R26,Y+12
	LDD  R27,Y+12+1
	CPI  R26,LOW(0x40)
	LDI  R30,HIGH(0x40)
	CPC  R27,R30
	BRGE _0x3F
	CALL SUBOPT_0x9
	TST  R27
	BRMI _0x3F
	CALL SUBOPT_0xA
	BRPL _0x3E
_0x3F:
;    return;
	RJMP _0x2060004
;
;
;  for(j = 0; j<size; j++)  for(i0=x+y*16; i0<(x+y*16+6*size);i0++) buffer[i0+j*128] = 0;
_0x3E:
	__GETWRN 16,17,0
_0x42:
	LDD  R30,Y+7
	LDD  R31,Y+7+1
	CP   R16,R30
	CPC  R17,R31
	BRGE _0x43
	CALL SUBOPT_0x10
	MOVW R18,R30
_0x45:
	CALL SUBOPT_0x10
	MOVW R22,R30
	LDD  R30,Y+7
	LDD  R31,Y+7+1
	CALL SUBOPT_0x11
	ADD  R30,R22
	ADC  R31,R23
	CP   R18,R30
	CPC  R19,R31
	BRGE _0x46
	MOVW R30,R16
	CALL SUBOPT_0x12
	ADD  R30,R18
	ADC  R31,R19
	SUBI R30,LOW(-_buffer)
	SBCI R31,HIGH(-_buffer)
	LDI  R26,LOW(0)
	STD  Z+0,R26
	__ADDWRN 18,19,1
	RJMP _0x45
_0x46:
	__ADDWRN 16,17,1
	RJMP _0x42
_0x43:
	__GETWRN 18,19,0
_0x48:
	__CPWRN 18,19,6
	BRGE _0x49
;
;    if (i0 == 5) line = 0x0;
	LDI  R30,LOW(5)
	LDI  R31,HIGH(5)
	CP   R30,R18
	CPC  R31,R19
	BRNE _0x4A
	LDI  R21,LOW(0)
;    else
	RJMP _0x4B
_0x4A:
;      line = font[c*5+i0];
	CALL SUBOPT_0xB
;    for (j = 0; j<8; j++) {
_0x4B:
	__GETWRN 16,17,0
_0x4D:
	__CPWRN 16,17,8
	BRGE _0x4E
;      if (line & 0x1) {
	SBRS R21,0
	RJMP _0x4F
;        if (size == 1) // default size
	LDD  R26,Y+7
	LDD  R27,Y+7+1
	SBIW R26,1
	BRNE _0x50
;          drawPixel(x+i0, y+j, color);
	MOVW R30,R18
	CALL SUBOPT_0x3
	ST   -Y,R31
	ST   -Y,R30
	MOVW R30,R16
	CALL SUBOPT_0x3
	CALL SUBOPT_0xC
;        else {  // big size
	RJMP _0x51
_0x50:
;          for (i = 0; i < size; i++) for (j0 = 0; j0 < size; j0++) drawPixel(x+i0*size+i,y+j*size+j0,color);
	LDI  R20,LOW(0)
_0x53:
	CALL SUBOPT_0xD
	BRGE _0x54
	LDI  R30,LOW(0)
	STD  Y+6,R30
_0x56:
	CALL SUBOPT_0xE
	BRGE _0x57
	CALL SUBOPT_0xF
	LDD  R30,Y+6
	SUBI R30,-LOW(1)
	STD  Y+6,R30
	RJMP _0x56
_0x57:
	SUBI R20,-1
	RJMP _0x53
_0x54:
_0x51:
;      }
;      line >>= 1;
_0x4F:
	LSR  R21
;    }
	__ADDWRN 16,17,1
	RJMP _0x4D
_0x4E:
;  }
	__ADDWRN 18,19,1
	RJMP _0x48
_0x49:
;}
_0x2060004:
	CALL __LOADLOCR6
	ADIW R28,16
	RET
; .FEND
;
;
;
;void drawString(int x0, int y0,flash char * str, int len)
;{
;int i0;
;    for (i0 = 0; i0<len; i0++) drawChar(x0+i0,y0, str[i0]) ;
;	x0 -> Y+8
;	y0 -> Y+6
;	*str -> Y+4
;	len -> Y+2
;	i0 -> R16,R17
;
;
;void drawStringZ(int x0, int y0,flash char * str, int len, int color, int size)
;{
_drawStringZ:
; .FSTART _drawStringZ
;int i0;
;    for (i0 = 0; i0<len; i0++) drawCharZ(x0+i0*6*size,y0, str[i0], color, size) ;
	ST   -Y,R27
	ST   -Y,R26
	CALL SUBOPT_0x0
;	x0 -> Y+12
;	y0 -> Y+10
;	*str -> Y+8
;	len -> Y+6
;	color -> Y+4
;	size -> Y+2
;	i0 -> R16,R17
_0x5C:
	LDD  R30,Y+6
	LDD  R31,Y+6+1
	CP   R16,R30
	CPC  R17,R31
	BRGE _0x5D
	MOVW R30,R16
	CALL SUBOPT_0x11
	LDD  R26,Y+2
	LDD  R27,Y+2+1
	CALL __MULW12
	LDD  R26,Y+12
	LDD  R27,Y+12+1
	ADD  R30,R26
	ADC  R31,R27
	ST   -Y,R31
	ST   -Y,R30
	LDD  R30,Y+12
	LDD  R31,Y+12+1
	ST   -Y,R31
	ST   -Y,R30
	MOVW R30,R16
	LDD  R26,Y+12
	LDD  R27,Y+12+1
	ADD  R30,R26
	ADC  R31,R27
	LPM  R30,Z
	ST   -Y,R30
	LDD  R30,Y+9
	LDD  R31,Y+9+1
	ST   -Y,R31
	ST   -Y,R30
	LDD  R26,Y+9
	LDD  R27,Y+9+1
	RCALL _drawCharZ
	__ADDWRN 16,17,1
	RJMP _0x5C
_0x5D:
	LDD  R17,Y+1
	LDD  R16,Y+0
	ADIW R28,14
	RET
; .FEND
;
;#include <twi.h>
;
;void initDisplay(void)
;{
_initDisplay:
; .FSTART _initDisplay
;
;    twi_master_init(400);
	LDI  R26,LOW(400)
	LDI  R27,HIGH(400)
	CALL _twi_master_init
;    #asm("sei")
	sei
;    twi_master_trans(0x3C, bufer, 50, rx_data, 0);    //      0x3C  
	CALL SUBOPT_0x13
	LDI  R30,LOW(50)
	CALL SUBOPT_0x14
;}
	RET
; .FEND
;
;
;void display(int x, int y, int x2, int y2)
;{
_display:
; .FSTART _display
; int i,n;
;    bufer[0] = 0x80;
	CALL SUBOPT_0x15
;	x -> Y+10
;	y -> Y+8
;	x2 -> Y+6
;	y2 -> Y+4
;	i -> R16,R17
;	n -> R18,R19
	LDI  R30,LOW(128)
	STS  _bufer,R30
;    bufer[1] = 0x21;
	LDI  R30,LOW(33)
	__PUTB1MN _bufer,1
;    bufer[2] = 0x80;
	LDI  R30,LOW(128)
	__PUTB1MN _bufer,2
;    bufer[3] = x;//0;
	LDD  R30,Y+10
	__PUTB1MN _bufer,3
;    bufer[4] = 0x80;
	LDI  R30,LOW(128)
	__PUTB1MN _bufer,4
;    bufer[5] = x2;//127;
	LDD  R30,Y+6
	__PUTB1MN _bufer,5
;    bufer[6] = 0x80;
	LDI  R30,LOW(128)
	__PUTB1MN _bufer,6
;    bufer[7] = 0x22;
	LDI  R30,LOW(34)
	__PUTB1MN _bufer,7
;    bufer[8] = 0x80;
	LDI  R30,LOW(128)
	__PUTB1MN _bufer,8
;    bufer[9] = y;//0;
	LDD  R30,Y+8
	__PUTB1MN _bufer,9
;    bufer[10] = 0x80;
	LDI  R30,LOW(128)
	__PUTB1MN _bufer,10
;    bufer[11] = y2;//7  ;
	LDD  R30,Y+4
	__PUTB1MN _bufer,11
;    twi_master_trans(0x3C, bufer, 12, rx_data, 0) ;
	CALL SUBOPT_0x13
	LDI  R30,LOW(12)
	CALL SUBOPT_0x14
;
;       for (i=0+y*128; i<128+y2*128; ) {
	LDD  R30,Y+8
	LDD  R31,Y+8+1
	CALL SUBOPT_0x12
	ADIW R30,0
	MOVW R16,R30
_0x5F:
	LDD  R30,Y+4
	LDD  R31,Y+4+1
	CALL SUBOPT_0x12
	SUBI R30,LOW(-128)
	SBCI R31,HIGH(-128)
	CP   R16,R30
	CPC  R17,R31
	BRGE _0x60
;      // send a bunch of data in one xmission
;        bufer[0] = 0x40;
	LDI  R30,LOW(64)
	STS  _bufer,R30
;        i+=x;
	LDD  R30,Y+10
	LDD  R31,Y+10+1
	__ADDWRR 16,17,30,31
;        for (n=0; n<x2-x+1; n++) {
	__GETWRN 18,19,0
_0x62:
	LDD  R26,Y+10
	LDD  R27,Y+10+1
	LDD  R30,Y+6
	LDD  R31,Y+6+1
	SUB  R30,R26
	SBC  R31,R27
	ADIW R30,1
	CP   R18,R30
	CPC  R19,R31
	BRGE _0x63
;        bufer[n+1] = buffer[i++];
	MOVW R30,R18
	__ADDW1MN _bufer,1
	MOVW R26,R30
	MOVW R30,R16
	__ADDWRN 16,17,1
	SUBI R30,LOW(-_buffer)
	SBCI R31,HIGH(-_buffer)
	LD   R30,Z
	ST   X,R30
;        }
	__ADDWRN 18,19,1
	RJMP _0x62
_0x63:
;        i+=(127-x2);
	LDD  R26,Y+6
	LDD  R27,Y+6+1
	LDI  R30,LOW(127)
	LDI  R31,HIGH(127)
	SUB  R30,R26
	SBC  R31,R27
	__ADDWRR 16,17,30,31
;        twi_master_trans(0x3C, bufer, x2+2-x, rx_data, 0) ;
	CALL SUBOPT_0x13
	LDD  R26,Y+9
	SUBI R26,-LOW(2)
	LDD  R30,Y+13
	SUB  R26,R30
	ST   -Y,R26
	LDI  R30,LOW(_rx_data)
	LDI  R31,HIGH(_rx_data)
	ST   -Y,R31
	ST   -Y,R30
	LDI  R26,LOW(0)
	CALL _twi_master_trans
;    }
	RJMP _0x5F
_0x60:
;}
	RJMP _0x2060003
; .FEND
;// Declare your global variables here
;
;#define dob PIND.1
;#define ubr PIND.2
;#define zvuk PORTB.1
;
;
;flash unsigned char signal[7][256] = {
;{0,3,6,9,13,16,19,22,25,28,31,34,37,41,44,47,50,53,56,59,62,65,68,71,
;74,77,80,83,86,89,92,95,98,100,103,106,109,112,115,117,120,123,126,128,131,134,136,139,142,144,147,
;149,152,154,157,159,162,164,167,169,171,174,176,178,180,183,185,187,189,191,193,195,197,199,201,203,
;205,207,208,210,212,214,215,217,219,220,222,223,225,226,228,229,231,232,233,234,236,237,238,239,240,
;241,242,243,244,245,246,247,247,248,249,249,250,251,251,252,252,253,253,253,254,254,254,255,255,255,
;255,255,255,255,255,255,255,255,254,254,254,253,253,253,252,252,251,251,250,249,249,248,247,247,246,
;245,244,243,242,241,240,239,238,237,236,234,233,232,231,229,228,226,225,223,222,220,219,217,215,214,
;212,210,208,207,205,203,201,199,197,195,193,191,189,187,185,183,180,178,176,174,171,169,167,164,162,
;159,157,154,152,149,147,144,142,139,136,134,131,128,126,123,120,117,115,112,109,106,103,100,98,95,92,
;89,86,83,80,77,74,71,68,65,62,59,56,53,50,47,44,41,37,34,31,28,25,22,19,16,13,9,6,3},
;{255,255,255,255,255,255,255,255,255,255,255,255,255,255,255,255,255,255,255,255,255,255,255,255,255,255,255,255,255,
;    255,255,255,255,255,255,255,255,255,255,255,255,255,255,255,255,255,255,255,255,255,255,255,255,255,255,255,255,
;    255,255,255,255,255,255,255,255,255,255,255,255,255,255,255,255,255,255,255,255,255,255,255,255,255,255,255,255,
;    255,255,255,255,255,255,255,255,255,255,255,255,255,255,255,255,255,255,255,255,255,255,255,255,255,255,255,255,
;    255,255,255,255,255,255,255,255,255,255,255,255,255,255,0,0,0,0,0,0,0,0,0,0,0,0,0,0,0,0,0,0,0,0,0,0,0,0,0,0,0,0,
;    0,0,0,0,0,0,0,0,0,0,0,0,0,0,0,0,0,0,0,0,0,0,0,0,0,0,0,0,0,0,0,0,0,0,0,0,0,0,0,0,0,0,0,0,0,0,0,0,0,0,0,0,0,0,0,0,
;    0,0,0,0,0,0,0,0,0,0,0,0,0,0,0,0,0,0,0,0,0,0,0,0,0,0,0,0,0,0,0,0,0,0,0,0,0,0,0,0,0,0,0,127,127},
;{255,255,255,255,255,255,255,255,255,255,255,255,255,255,255,255,255,255,255,255,255,255,255,255,255,255,255,255,255,
;    255,255,255,255,255,255,255,255,255,255,255,255,255,255,255,255,255,255,255,255,255,255,255,255,255,255,255,255,
;    255,255,255,255,255,255,255,255,255,255,255,255,255,255,255,255,255,255,255,255,255,255,255,255,255,255,255,255,
;    255,255,255,255,255,255,255,255,255,255,255,255,255,255,255,255,255,255,255,255,255,255,255,255,255,255,255,255,
;    255,255,255,255,255,255,255,255,255,255,255,255,255,255,85,85,85,85,85,85,85,85,85,85,85,85,85,85,
;    85,85,85,85,85,85,85,85,85,85,85,85,85,85,85,85,85,85,85,85,85,85,85,85,85,85,85,85,
;    85,85,85,85,85,85,85,85,85,85,85,85,85,85,85,85,85,85,85,85,85,85,85,85,85,85,85,85,
;    85,85,85,85,85,85,85,85,85,85,85,85,85,85,85,85,85,85,85,85,85,85,85,85,85,85,85,85,
;    85,85,85,85,85,85,85,85,85,85,85,85,85,85,85,85,85,85,85,85,85,85,85,85,85,85,85,85,85,85,85},
;{255,254,253,252,251,250,249,248,247,246,245,244,243,242,241,240,239,238,237,236,235,234,233,232,231,230,229,228,227,
;    226,225,224,223,222,221,220,219,218,217,216,215,214,213,212,211,210,209,208,207,206,205,204,203,202,201,200,199,
;    198,197,196,195,194,193,192,191,190,189,188,187,186,185,184,183,182,181,180,179,178,177,176,175,174,173,172,171,
;    170,169,168,167,166,165,164,163,162,161,160,159,158,157,156,155,154,153,152,151,150,149,148,147,146,145,144,143,
;    142,141,140,139,138,137,136,135,134,133,132,131,130,129,0,1,2,3,4,5,6,7,8,9,10,11,12,13,14,15,16,17,18,19,20,21,
;    22,23,24,25,26,27,28,29,30,31,32,33,34,35,36,37,38,39,40,41,42,43,44,45,46,47,48,49,50,51,52,53,54,55,56,57,58,
;    59,60,61,62,63,64,65,66,67,68,69,70,71,72,73,74,75,76,77,78,79,80,81,82,83,84,85,86,87,88,89,90,91,92,93,94,95,
;    96,97,98,99,100,101,102,103,104,105,106,107,108,109,110,111,112,113,114,115,116,117,118,119,120,121,122,123,124,125, ...
;{255,254,252,251,250,248,247,246,244,243,242,240,239,238,236,235,234,232,231,230,228,227,226,224,223,222,220,219,218,216 ...
;211,209,208,207,205,204,203,201,200,199,197,196,195,193,192,191,189,188,187,185,184,183,181,180,179,177,176,175,173,172, ...
;167,165,164,163,161,160,159,157,156,155,153,152,151,149,148,147,145,144,143,141,140,139,137,136,135,133,132,131,129,128, ...
;122,121,120,118,117,116,114,113,112,110,109,108,106,105,104,102,101,100,98,97,96,94,93,92,90,89,88,86,
;    85,85,85,85,85,85,85,85,85,85,85,85,85,85,85,
;    85,85,85,85,85,85,85,85,85,85,85,85,85,85,85,85,85,85,85,85,85,85,85,85,85,85,85,85,
;    85,85,85,85,85,85,85,85,85,85,85,85,85,85,85,85,85,85,85,85,85,85,85,85,85,85,85,85,
;    85,85,85,85,85,85,85,85,85,85,85,85,85,85,85,85,85,85,85,85,85,85,85,85,85,85,85,85,
;    85,85,85,85,85,85,85,85,85,85,85,85,85,85,85,85,85,85,85,85,85,85,85,85,85,85,85,85,85,85},
;{255,255,85,85,255,255,85,85,255,255,85,85,255,255,85,85,255,255,85,85,255,255,85,85,255,255,85,85,255,
;	255,85,85,255,255,85,85,255,255,85,85,255,255,85,85,255,255,85,85,255,255,85,85,255,255,85,85,255,
;	255,85,85,255,255,85,85,255,255,85,85,255,255,85,85,255,255,85,85,255,255,85,85,255,255,85,85,255,
;	255,85,85,255,255,85,85,255,255,85,85,255,255,85,85,255,255,85,85,255,255,85,85,255,255,85,85,255,
;	255,85,85,255,255,85,85,255,255,85,85,255,255,85,85,85,85,85,85,85,85,85,85,85,85,85,85,85,
;	85,85,85,85,85,85,85,85,85,85,85,85,85,85,85,85,85,85,85,85,85,85,85,85,85,85,85,85,
;	85,85,85,85,85,85,85,85,85,85,85,85,85,85,85,85,85,85,85,85,85,85,85,85,85,85,85,85,
;	85,85,85,85,85,85,85,85,85,85,85,85,85,85,85,85,85,85,85,85,85,85,85,85,85,85,85,85,
;	85,85,85,85,85,85,85,85,85,85,85,85,85,85,85,85,85,85,85,85,85,85,85,85,85,85,85,85,85,85,85},
;{255,255,127,127,255,255,127,127,255,255,127,127,255,255,127,127,255,255,127,127,255,255,127,127,255,255,127,127,255,
;	255,127,127,255,255,127,127,255,255,127,127,255,255,127,127,255,255,127,127,255,255,127,127,255,255,127,127,255,
;	255,127,127,255,255,127,127,255,255,127,127,255,255,127,127,255,255,127,127,255,255,127,127,255,255,127,127,255,
;	255,127,127,255,255,127,127,255,255,127,127,255,255,127,127,255,255,127,127,255,255,127,127,255,255,127,127,255,
;	255,127,127,255,255,127,127,255,255,127,127,255,255,127,0,0,127,127,0,0,127,127,0,0,127,127,0,0,127,127,0,0,127,
;	127,0,0,127,127,0,0,127,127,0,0,127,127,0,0,127,127,0,0,127,127,0,0,127,127,0,0,127,127,0,0,127,127,0,0,127,127,
;	0,0,127,127,0,0,127,127,0,0,127,127,0,0,127,127,0,0,127,127,0,0,127,127,0,0,127,127,0,0,127,127,0,0,127,127,0,0,
;	127,127,0,0,127,127,0,0,127,127,0,0,127,127,0,0,127,127,0,0,127,127,0,0,127,127,0,0,127,127,0,0,127,127,127}
;} ;
;
;
;
;int i,j,n,m,k,o, dn_reg, up_reg;
;char seans0,chel,vrem, bol0, l;
;//  
;flash char bolezni[45][103] = {
;":.                                                                                      ",
;":   .                                                           ",
;":  .                                                                          ",
;":,  .                                                        ",
;":,     .                      ",
;":, ,   .              ",
;"    .                                            ",
;"    .                                            ",
;"   .                                                                              ",
;".                                                                                            ",
;"  (, )   .                           ",
;"  (, ),    .               ",
;" .                                                                                   ",
;" ().                                                                                     ",
;" (,  ).                                                           ",
;"    12-  .                                                      ",
;".                                                                                              ",
;"-.                                                                                 ",
;".                                                                                                ",
;"  (   ).                                ",
;"- .                                                              ",
;"- .                                                                         ",
;"    .                                                   ",
;", .                                                                                   ",
;" .                                                                            ",
;".                                                                                              ",
;" .                                                                                      ",
;".                                                                                            ",
;" .                                                                                     ",
;".                                                                                          ",
;" , .                                                              ",
;"  .                                                                       ",
;", .                                                                                  ",
;".                                                                                              ",
;", .                                                                                          ",
;".                                                                                            ",
;" .                                                                              ",
;",      .                                                       ",
;"  .                                                                                  ",
;".                                                                                               ",
;"  .                                                                     ",
;", .                                                                                    ",
;".                                                                                           ",
;" .                                                                             ",
;"  .                                                                          "
;};
;
;// 
;flash unsigned char rezhimi[45][20] = {
;{2,2,2,5,5,6,5,5,4,4,2,2,2,5,5,6,4,4,4,4},
;{4,4,2,5,5,3,5,4,4,4,4,4,2,5,5,4,4,4,4,4},
;{2,2,2,5,5,5,5,2,2,2,2,2,2,5,5,5,5,2,2,2},
;{4,4,2,5,5,6,2,4,4,4,4,4,2,5,5,6,2,4,4,4},
;{4,4,4,4,4,4,3,3,3,4,4,4,4,4,4,4,3,3,3,4},
;{4,4,4,2,2,2,2,5,5,4,4,4,4,2,2,2,2,5,5,4},
;{2,2,2,2,5,5,1,5,4,4,2,2,2,2,5,5,1,5,4,4},
;{4,4,4,4,3,3,3,4,4,4,4,4,4,4,3,3,3,4,4,4},
;{4,4,4,2,2,1,5,2,4,4,4,4,4,2,2,1,5,2,4,4},
;{2,2,2,5,5,6,6,5,2,2,2,2,2,5,5,6,6,5,2,2},
;{4,4,4,4,2,5,5,4,4,4,4,4,4,4,2,5,5,4,4,4},
;{4,4,4,4,4,2,2,4,4,4,4,4,4,4,4,2,2,4,4,4},
;{2,2,5,5,5,2,2,2,4,4,2,2,5,5,5,2,2,2,4,4},
;{2,2,2,2,1,1,1,5,6,2,2,2,2,2,1,1,1,5,6,2},
;{2,2,1,5,5,3,3,5,5,4,2,2,1,5,5,3,3,3,4,4},
;{2,2,2,5,5,5,5,2,2,2,2,2,2,5,5,5,5,2,2,2},
;{2,2,2,5,6,1,5,2,4,4,2,2,2,5,6,1,5,2,4,4},
;{4,4,2,5,5,5,5,5,4,4,4,4,2,5,5,5,5,5,4,4},
;{2,2,2,5,5,4,4,5,2,2,2,2,2,5,5,4,4,5,2,2},
;{4,4,4,4,4,3,3,3,5,4,4,4,4,4,4,3,3,4,4,4},
;{4,4,4,4,4,3,3,4,4,4,4,4,4,4,4,3,3,4,4,4},
;{4,4,3,3,3,5,5,5,5,5,4,4,4,4,4,4,4,4,5,5},
;{4,4,3,3,3,3,5,4,4,4,4,4,4,4,4,4,4,4,4,4},
;{2,2,2,2,5,5,6,6,5,5,2,2,2,2,5,5,6,6,5,5},
;{4,4,2,2,5,5,6,6,2,2,4,4,2,2,5,5,6,6,2,2},
;{4,4,4,3,2,2,4,4,4,4,4,4,4,3,2,2,4,4,4,4},
;{2,1,5,6,6,5,3,3,4,4,2,1,5,6,6,5,3,3,4,4},
;{2,5,5,5,5,5,2,2,2,2,2,5,5,5,5,5,3,3,2,2},
;{4,4,4,3,3,1,1,6,5,5,4,4,4,3,3,1,1,6,5,5},
;{5,5,5,2,2,3,4,4,5,5,5,5,5,2,2,3,4,4,5,5},
;{2,2,2,1,1,1,1,1,2,2,2,2,2,1,1,1,1,1,2,2},
;{4,4,4,3,1,6,1,6,5,5,4,4,4,3,1,6,1,6,5,5},
;{2,2,5,5,5,5,6,6,4,4,2,2,5,5,5,5,6,6,4,4},
;{4,4,4,4,3,3,6,1,5,5,4,4,4,4,3,3,6,1,5,5},
;{2,5,1,2,5,5,5,2,2,1,2,5,1,2,5,5,5,2,2,1},
;{2,2,2,2,4,3,4,2,5,5,2,2,2,2,4,3,4,2,5,5},
;{2,2,5,5,6,6,6,2,4,4,2,2,5,5,6,6,6,2,4,4},
;{5,5,6,6,6,2,2,2,2,2,5,5,6,6,6,2,2,2,2,2},
;{5,5,6,6,4,4,3,5,2,2,5,5,6,6,4,4,3,5,2,2},
;{2,2,5,5,4,4,3,4,5,2,2,2,5,5,4,4,3,4,5,2},
;{2,2,2,2,2,5,5,5,5,5,2,2,2,2,2,5,5,5,5,5},
;{2,2,2,2,5,5,5,6,5,5,2,2,3,3,4,4,4,6,5,5},
;{2,2,2,2,5,1,1,5,5,5,2,2,2,2,5,1,1,5,5,5},
;{4,3,6,5,5,4,4,4,4,4,4,4,3,4,4,4,4,4,4,4},
;{4,4,3,3,5,4,4,4,4,4,4,4,4,4,4,4,4,4,4,4}
;};
;
;
;
;eeprom char seans[10], bol[10];
;
;
;
;unsigned int tok,tok0, period, a, mod, paus, time;
;unsigned char a1,a2,a3, rezh0,tok1;
;long timer;
;bit fl1, fl2, fl3, fl4, fl5, reg1, reg2, flag0, fubr;
;
;// Voltage Reference: Int., cap. on AREF
;#define ADC_VREF_TYPE ((1<<REFS1) | (1<<REFS0) | (0<<ADLAR))
;
;// Read the AD conversion result
;unsigned int read_adc(unsigned char adc_input)
; 0000 00D8 {
_read_adc:
; .FSTART _read_adc
; 0000 00D9 ADMUX=adc_input | ADC_VREF_TYPE;
	ST   -Y,R26
;	adc_input -> Y+0
	LD   R30,Y
	ORI  R30,LOW(0xC0)
	STS  124,R30
; 0000 00DA // Delay needed for the stabilization of the ADC input voltage
; 0000 00DB delay_us(10);
	__DELAY_USB 53
; 0000 00DC // Start the AD conversion
; 0000 00DD ADCSRA|=(1<<ADSC);
	LDS  R30,122
	ORI  R30,0x40
	STS  122,R30
; 0000 00DE // Wait for the AD conversion to complete
; 0000 00DF while ((ADCSRA & (1<<ADIF))==0);
_0x64:
	LDS  R30,122
	ANDI R30,LOW(0x10)
	BREQ _0x64
; 0000 00E0 ADCSRA|=(1<<ADIF);
	CALL SUBOPT_0x16
; 0000 00E1 return ADCW;
	ADIW R28,1
	RET
; 0000 00E2 }
; .FEND
;
;// External Interrupt 0 service routine
;interrupt [EXT_INT0] void ext_int0_isr(void)
; 0000 00E6 {
_ext_int0_isr:
; .FSTART _ext_int0_isr
	ST   -Y,R30
	IN   R30,SREG
; 0000 00E7 // Place your code here
; 0000 00E8     fubr = 1;
	SET
	BLD  R2,0
; 0000 00E9 }
	OUT  SREG,R30
	LD   R30,Y+
	RETI
; .FEND
;
;
;// Timer1 overflow interrupt service routine
;interrupt [TIM1_OVF] void timer1_ovf_isr(void)
; 0000 00EE {
_timer1_ovf_isr:
; .FSTART _timer1_ovf_isr
	ST   -Y,R0
	ST   -Y,R1
	ST   -Y,R15
	ST   -Y,R22
	ST   -Y,R23
	ST   -Y,R24
	ST   -Y,R25
	ST   -Y,R26
	ST   -Y,R27
	ST   -Y,R30
	ST   -Y,R31
	IN   R30,SREG
	ST   -Y,R30
; 0000 00EF     if(reg1)
	SBIS 0x1E,5
	RJMP _0x67
; 0000 00F0     {
; 0000 00F1       if(reg2)
	SBIS 0x1E,6
	RJMP _0x68
; 0000 00F2       {
; 0000 00F3             TCNT1H=period >> 8;
	CALL SUBOPT_0x17
; 0000 00F4             TCNT1L=period & 0xff;
; 0000 00F5             if(a1 < 254)
	LDS  R26,_a1
	CPI  R26,LOW(0xFE)
	BRSH _0x69
; 0000 00F6             {
; 0000 00F7                  OCR2A = signal[0][a1++];
	CALL SUBOPT_0x18
	LDI  R31,0
	SUBI R30,LOW(-_signal*2)
	SBCI R31,HIGH(-_signal*2)
	LPM  R30,Z
	STS  179,R30
; 0000 00F8             }
; 0000 00F9             else
	RJMP _0x6A
_0x69:
; 0000 00FA             {
; 0000 00FB                 a1 = 0;
	LDI  R30,LOW(0)
	STS  _a1,R30
; 0000 00FC                 if(timer > 9000000) period = 2048 + (timer - 9000000)/143;  // 15584  64736
	CALL SUBOPT_0x19
	__CPD2N 0x895441
	BRLT _0x6B
	CALL SUBOPT_0x1A
	__SUBD1N 9000000
	MOVW R26,R30
	MOVW R24,R22
	__GETD1N 0x8F
	CALL __DIVD21
	SUBI R30,LOW(-2048)
	SBCI R31,HIGH(-2048)
	CALL SUBOPT_0x1B
; 0000 00FD                 else
	RJMP _0x6C
_0x6B:
; 0000 00FE                 if (timer > 6000000) period = 58592 - (timer - 6000000)/53;
	CALL SUBOPT_0x19
	__CPD2N 0x5B8D81
	BRLT _0x6D
	CALL SUBOPT_0x1A
	__SUBD1N 6000000
	MOVW R26,R30
	MOVW R24,R22
	__GETD1N 0x35
	CALL __DIVD21
	LDI  R26,LOW(58592)
	LDI  R27,HIGH(58592)
	SUB  R26,R30
	SBC  R27,R31
	STS  _period,R26
	STS  _period+1,R27
; 0000 00FF                 else
	RJMP _0x6E
_0x6D:
; 0000 0100                 {
; 0000 0101                     if(fl2) period-=4; else period+=4;
	SBIS 0x1E,1
	RJMP _0x6F
	CALL SUBOPT_0x1C
	SBIW R30,4
	RJMP _0x278
_0x6F:
	CALL SUBOPT_0x1C
	ADIW R30,4
_0x278:
	STS  _period,R30
	STS  _period+1,R31
; 0000 0102                     if (period > 0xED40) fl2 = 1;
	CALL SUBOPT_0x1D
	CPI  R26,LOW(0xED41)
	LDI  R30,HIGH(0xED41)
	CPC  R27,R30
	BRLO _0x71
	SBI  0x1E,1
; 0000 0103                     if (period < 0xE4E0) fl2 = 0;
_0x71:
	CALL SUBOPT_0x1D
	CPI  R26,LOW(0xE4E0)
	LDI  R30,HIGH(0xE4E0)
	CPC  R27,R30
	BRSH _0x74
	CBI  0x1E,1
; 0000 0104                 }
_0x74:
_0x6E:
_0x6C:
; 0000 0105                 if (tok >= tok0)
	CALL SUBOPT_0x1E
	BRLO _0x77
; 0000 0106                 {
; 0000 0107                     if(fl1) { if(a3<128) a3 += 1;} else a3 = 1;
	SBIS 0x1E,0
	RJMP _0x78
	LDS  R26,_a3
	CPI  R26,LOW(0x80)
	BRSH _0x79
	CALL SUBOPT_0x1F
_0x79:
	RJMP _0x7A
_0x78:
	LDI  R30,LOW(1)
	STS  _a3,R30
; 0000 0108                     fl1 = 1;
_0x7A:
	SBI  0x1E,0
; 0000 0109                     if (OCR0B == 0)
	IN   R30,0x28
	CPI  R30,0
	BRNE _0x7D
; 0000 010A                     {
; 0000 010B                         if(OCR0A > 64) OCR0A = 64;
	IN   R30,0x27
	CPI  R30,LOW(0x41)
	BRLO _0x7E
	LDI  R30,LOW(64)
	OUT  0x27,R30
; 0000 010C                         if((unsigned char)OCR0A > a3) OCR0A = OCR0A - a3; else OCR0A=0x00;
_0x7E:
	CALL SUBOPT_0x20
	BRSH _0x7F
	CALL SUBOPT_0x21
	RJMP _0x279
_0x7F:
	LDI  R30,LOW(0)
_0x279:
	OUT  0x27,R30
; 0000 010D                     }
; 0000 010E                     else
	RJMP _0x81
_0x7D:
; 0000 010F                     {  if((unsigned char)OCR0B > a3) OCR0B = OCR0B - a3;
	CALL SUBOPT_0x22
	BRSH _0x82
	CALL SUBOPT_0x23
; 0000 0110                         else
	RJMP _0x83
_0x82:
; 0000 0111                         {
; 0000 0112                             OCR0B=0x00;
	CALL SUBOPT_0x24
; 0000 0113                             a3 = 1;
; 0000 0114                         }
_0x83:
; 0000 0115                     }
_0x81:
; 0000 0116                 }
; 0000 0117                 else
	RJMP _0x84
_0x77:
; 0000 0118                 {
; 0000 0119                     if(fl1==0)  { if(a3<16) a3 *= 1;} else a3 = 1;
	SBIC 0x1E,0
	RJMP _0x85
	LDS  R26,_a3
	CPI  R26,LOW(0x10)
	BRSH _0x86
	CALL SUBOPT_0x25
_0x86:
	RJMP _0x87
_0x85:
	LDI  R30,LOW(1)
	STS  _a3,R30
; 0000 011A                     fl1 = 0;
_0x87:
	CBI  0x1E,0
; 0000 011B                     if (OCR0A == 0xFF)
	IN   R30,0x27
	CPI  R30,LOW(0xFF)
	BRNE _0x8A
; 0000 011C                     { if((unsigned char)OCR0B < (0x98 - a3)) OCR0B = OCR0B + a3; else OCR0B=0x98; }
	CALL SUBOPT_0x26
	BRGE _0x8B
	CALL SUBOPT_0x27
	RJMP _0x27A
_0x8B:
	LDI  R30,LOW(152)
_0x27A:
	OUT  0x28,R30
; 0000 011D                     else
	RJMP _0x8D
_0x8A:
; 0000 011E                     {   if(OCR0A < (0xFF - a3) & OCR0A < 64) OCR0A = OCR0A + a3;
	CALL SUBOPT_0x28
	BREQ _0x8E
	CALL SUBOPT_0x29
; 0000 011F                         else
	RJMP _0x8F
_0x8E:
; 0000 0120                         {
; 0000 0121                             OCR0A=0xFF;
	CALL SUBOPT_0x2A
; 0000 0122                             a3 = 1;
; 0000 0123                         }
_0x8F:
; 0000 0124                     }
_0x8D:
; 0000 0125                 }
_0x84:
; 0000 0126 
; 0000 0127 
; 0000 0128             }
_0x6A:
; 0000 0129             if (a1 == 128) tok = read_adc(0);
	LDS  R26,_a1
	CPI  R26,LOW(0x80)
	BRNE _0x90
	CALL SUBOPT_0x2B
; 0000 012A 
; 0000 012B       }
_0x90:
; 0000 012C       else
	RJMP _0x91
_0x68:
; 0000 012D       {
; 0000 012E         // Reinitialize Timer1 value
; 0000 012F         TCNT1H=0xE0;//80 >> 8;
	LDI  R30,LOW(224)
	STS  133,R30
; 0000 0130         TCNT1L=0xC0;//0xFE80 & 0xff;      // 0.5 ms
	LDI  R30,LOW(192)
	STS  132,R30
; 0000 0131         if (a1++ == 0)
	CALL SUBOPT_0x18
	BRNE _0x92
; 0000 0132         {
; 0000 0133             OCR2A = 0xFF;
	LDI  R30,LOW(255)
	STS  179,R30
; 0000 0134         }
; 0000 0135         else
	RJMP _0x93
_0x92:
; 0000 0136         {
; 0000 0137             TCNT1H=0x06;
	LDI  R30,LOW(6)
	STS  133,R30
; 0000 0138             TCNT1L=0x00;
	LDI  R30,LOW(0)
	STS  132,R30
; 0000 0139             if(a1 == 2)
	LDS  R26,_a1
	CPI  R26,LOW(0x2)
	BREQ PC+2
	RJMP _0x94
; 0000 013A             {
; 0000 013B                 tok = read_adc(0);
	CALL SUBOPT_0x2B
; 0000 013C                 OCR2A = 0x00;
	LDI  R30,LOW(0)
	STS  179,R30
; 0000 013D                 if (tok >= tok0)
	CALL SUBOPT_0x1E
	BRLO _0x95
; 0000 013E                 {
; 0000 013F                     if(fl1) { if(a3<128) a3 += 1;} else a3 = 1;
	SBIS 0x1E,0
	RJMP _0x96
	LDS  R26,_a3
	CPI  R26,LOW(0x80)
	BRSH _0x97
	CALL SUBOPT_0x1F
_0x97:
	RJMP _0x98
_0x96:
	LDI  R30,LOW(1)
	STS  _a3,R30
; 0000 0140                     fl1 = 1;
_0x98:
	SBI  0x1E,0
; 0000 0141                     if (OCR0B == 0)
	IN   R30,0x28
	CPI  R30,0
	BRNE _0x9B
; 0000 0142                     {
; 0000 0143                         if(OCR0A > 64) OCR0A = 64;
	IN   R30,0x27
	CPI  R30,LOW(0x41)
	BRLO _0x9C
	LDI  R30,LOW(64)
	OUT  0x27,R30
; 0000 0144                         if((unsigned char)OCR0A > a3) OCR0A = OCR0A - a3; else OCR0A=0x00;
_0x9C:
	CALL SUBOPT_0x20
	BRSH _0x9D
	CALL SUBOPT_0x21
	RJMP _0x27B
_0x9D:
	LDI  R30,LOW(0)
_0x27B:
	OUT  0x27,R30
; 0000 0145                     }
; 0000 0146                     else
	RJMP _0x9F
_0x9B:
; 0000 0147                     {  if((unsigned char)OCR0B > a3) OCR0B = OCR0B - a3;
	CALL SUBOPT_0x22
	BRSH _0xA0
	CALL SUBOPT_0x23
; 0000 0148                         else
	RJMP _0xA1
_0xA0:
; 0000 0149                         {
; 0000 014A                             OCR0B=0x00;
	CALL SUBOPT_0x24
; 0000 014B                             a3 = 1;
; 0000 014C                         }
_0xA1:
; 0000 014D                     }
_0x9F:
; 0000 014E                 }
; 0000 014F                 else
	RJMP _0xA2
_0x95:
; 0000 0150                 {
; 0000 0151                     if(fl1==0)  { if(a3<16) a3 *= 1;} else a3 = 1;
	SBIC 0x1E,0
	RJMP _0xA3
	LDS  R26,_a3
	CPI  R26,LOW(0x10)
	BRSH _0xA4
	CALL SUBOPT_0x25
_0xA4:
	RJMP _0xA5
_0xA3:
	LDI  R30,LOW(1)
	STS  _a3,R30
; 0000 0152                     fl1 = 0;
_0xA5:
	CBI  0x1E,0
; 0000 0153                     if (OCR0A == 0xFF)
	IN   R30,0x27
	CPI  R30,LOW(0xFF)
	BRNE _0xA8
; 0000 0154                     { if((unsigned char)OCR0B < (0x98 - a3)) OCR0B = OCR0B + a3; else OCR0B=0x98; }
	CALL SUBOPT_0x26
	BRGE _0xA9
	CALL SUBOPT_0x27
	RJMP _0x27C
_0xA9:
	LDI  R30,LOW(152)
_0x27C:
	OUT  0x28,R30
; 0000 0155                     else
	RJMP _0xAB
_0xA8:
; 0000 0156                     {   if(OCR0A < (0xFF - a3) & OCR0A < 64) OCR0A = OCR0A + a3;
	CALL SUBOPT_0x28
	BREQ _0xAC
	CALL SUBOPT_0x29
; 0000 0157                         else
	RJMP _0xAD
_0xAC:
; 0000 0158                         {
; 0000 0159                             OCR0A=0xFF;
	CALL SUBOPT_0x2A
; 0000 015A                             a3 = 1;
; 0000 015B                         }
_0xAD:
; 0000 015C                     }
_0xAB:
; 0000 015D                 }
_0xA2:
; 0000 015E 
; 0000 015F                 timer = timer - 130;
	CALL SUBOPT_0x1A
	__SUBD1N 130
	CALL SUBOPT_0x2C
; 0000 0160             }
; 0000 0161             if(a1 > 4)
_0x94:
	LDS  R26,_a1
	CPI  R26,LOW(0x5)
	BRLO _0xAE
; 0000 0162             {
; 0000 0163             TCNT1H=0xE2;
	LDI  R30,LOW(226)
	STS  133,R30
; 0000 0164             TCNT1L=0xC4 ;
	LDI  R30,LOW(196)
	STS  132,R30
; 0000 0165             a1 = 0;
	LDI  R30,LOW(0)
	STS  _a1,R30
; 0000 0166             }
; 0000 0167         }
_0xAE:
_0x93:
; 0000 0168       }
_0x91:
; 0000 0169     }
; 0000 016A     else
	RJMP _0xAF
_0x67:
; 0000 016B     {
; 0000 016C         // Reinitialize Timer1 value
; 0000 016D         TCNT1H=0xFE;//80 >> 8;
	LDI  R30,LOW(254)
	STS  133,R30
; 0000 016E         TCNT1L=0x40;//0xFE80 & 0xff;
	LDI  R30,LOW(64)
	STS  132,R30
; 0000 016F             if(a1 < 254)
	LDS  R26,_a1
	CPI  R26,LOW(0xFE)
	BRSH _0xB0
; 0000 0170             {
; 0000 0171                 if(a1 == 2)
	CPI  R26,LOW(0x2)
	BRNE _0xB1
; 0000 0172                 {
; 0000 0173                     ADMUX = ADC_VREF_TYPE;
	LDI  R30,LOW(192)
	STS  124,R30
; 0000 0174                     // Delay needed for the stabilization of the ADC input voltage
; 0000 0175                     delay_us(5);
	__DELAY_USB 27
; 0000 0176                     // Start the AD conversion
; 0000 0177                     ADCSRA|=(1<<ADSC);
	LDS  R30,122
	ORI  R30,0x40
	STS  122,R30
; 0000 0178                     // Wait for the AD conversion to complete
; 0000 0179                     while ((ADCSRA & (1<<ADIF))==0);
_0xB2:
	LDS  R30,122
	ANDI R30,LOW(0x10)
	BREQ _0xB2
; 0000 017A                     ADCSRA|=(1<<ADIF);
	CALL SUBOPT_0x16
; 0000 017B                     tok = ADCW;
	STS  _tok,R30
	STS  _tok+1,R31
; 0000 017C                 }
; 0000 017D                 OCR2A = signal[rezh0][a1++];       //8 ms
_0xB1:
	LDS  R31,_rezh0
	LDI  R30,LOW(0)
	SUBI R30,LOW(-_signal*2)
	SBCI R31,HIGH(-_signal*2)
	MOVW R26,R30
	CALL SUBOPT_0x18
	LDI  R31,0
	ADD  R30,R26
	ADC  R31,R27
	LPM  R30,Z
	STS  179,R30
; 0000 017E             }
; 0000 017F             else
	RJMP _0xB5
_0xB0:
; 0000 0180             {
; 0000 0181                 if(a1 == 254)
	LDS  R26,_a1
	CPI  R26,LOW(0xFE)
	BRNE _0xB6
; 0000 0182                 {
; 0000 0183                     TCNT1H=0x4B;
	LDI  R30,LOW(75)
	STS  133,R30
; 0000 0184                     TCNT1L=0x80;
	LDI  R30,LOW(128)
	STS  132,R30
; 0000 0185                     OCR2A = signal[rezh0][254];
	LDS  R31,_rezh0
	LDI  R30,LOW(0)
	SUBI R30,LOW(-_signal*2)
	SBCI R31,HIGH(-_signal*2)
	SUBI R30,LOW(-254)
	SBCI R31,HIGH(-254)
	LPM  R30,Z
	STS  179,R30
; 0000 0186                     a1++;
	LDS  R30,_a1
	SUBI R30,-LOW(1)
	RJMP _0x27D
; 0000 0187                 }
; 0000 0188                 else
_0xB6:
; 0000 0189                 {
; 0000 018A 
; 0000 018B                     if(fl2) period -=  mod; else period +=  mod;
	SBIS 0x1E,1
	RJMP _0xB8
	LDS  R26,_mod
	LDS  R27,_mod+1
	CALL SUBOPT_0x1C
	SUB  R30,R26
	SBC  R31,R27
	RJMP _0x27E
_0xB8:
	LDS  R30,_mod
	LDS  R31,_mod+1
	CALL SUBOPT_0x1D
	ADD  R30,R26
	ADC  R31,R27
_0x27E:
	STS  _period,R30
	STS  _period+1,R31
; 0000 018C                     if (period > 60000) fl2 = 1;
	CALL SUBOPT_0x1D
	CPI  R26,LOW(0xEA61)
	LDI  R30,HIGH(0xEA61)
	CPC  R27,R30
	BRLO _0xBA
	SBI  0x1E,1
; 0000 018D                     if (period < 5000) fl2 = 0;
_0xBA:
	CALL SUBOPT_0x1D
	CPI  R26,LOW(0x1388)
	LDI  R30,HIGH(0x1388)
	CPC  R27,R30
	BRSH _0xBD
	CBI  0x1E,1
; 0000 018E                     TCNT1H=period >> 8;
_0xBD:
	CALL SUBOPT_0x17
; 0000 018F                     TCNT1L=period & 0xff;
; 0000 0190                     timer = timer - 111 - (60000-period)/1618;
	CALL SUBOPT_0x1A
	__SUBD1N 111
	PUSH R23
	PUSH R22
	PUSH R31
	PUSH R30
	CALL SUBOPT_0x1D
	LDI  R30,LOW(60000)
	LDI  R31,HIGH(60000)
	SUB  R30,R26
	SBC  R31,R27
	MOVW R26,R30
	LDI  R30,LOW(1618)
	LDI  R31,HIGH(1618)
	CALL __DIVW21U
	POP  R26
	POP  R27
	POP  R24
	POP  R25
	CLR  R22
	CLR  R23
	CALL __SUBD21
	STS  _timer,R26
	STS  _timer+1,R27
	STS  _timer+2,R24
	STS  _timer+3,R25
; 0000 0191                     if (tok >= tok0)
	CALL SUBOPT_0x1E
	BRLO _0xC0
; 0000 0192                     {
; 0000 0193                         if(fl1) { if(a3<128) a3 += 1;} else a3 = 1;
	SBIS 0x1E,0
	RJMP _0xC1
	LDS  R26,_a3
	CPI  R26,LOW(0x80)
	BRSH _0xC2
	CALL SUBOPT_0x1F
_0xC2:
	RJMP _0xC3
_0xC1:
	LDI  R30,LOW(1)
	STS  _a3,R30
; 0000 0194                         fl1 = 1;
_0xC3:
	SBI  0x1E,0
; 0000 0195                         if (OCR0B == 0)
	IN   R30,0x28
	CPI  R30,0
	BRNE _0xC6
; 0000 0196                         {
; 0000 0197                             if(OCR0A > 64) OCR0A = 64;
	IN   R30,0x27
	CPI  R30,LOW(0x41)
	BRLO _0xC7
	LDI  R30,LOW(64)
	OUT  0x27,R30
; 0000 0198                             if((unsigned char)OCR0A > a3) OCR0A = OCR0A - a3; else OCR0A=0x00;
_0xC7:
	CALL SUBOPT_0x20
	BRSH _0xC8
	CALL SUBOPT_0x21
	RJMP _0x27F
_0xC8:
	LDI  R30,LOW(0)
_0x27F:
	OUT  0x27,R30
; 0000 0199                         }
; 0000 019A                         else
	RJMP _0xCA
_0xC6:
; 0000 019B                         {  if((unsigned char)OCR0B > a3) OCR0B = OCR0B - a3;
	CALL SUBOPT_0x22
	BRSH _0xCB
	CALL SUBOPT_0x23
; 0000 019C                             else
	RJMP _0xCC
_0xCB:
; 0000 019D                             {
; 0000 019E                                 OCR0B=0x00;
	CALL SUBOPT_0x24
; 0000 019F                                 a3 = 1;
; 0000 01A0                             }
_0xCC:
; 0000 01A1                         }
_0xCA:
; 0000 01A2                     }
; 0000 01A3                     else
	RJMP _0xCD
_0xC0:
; 0000 01A4                     {
; 0000 01A5                         if(fl1==0)  { if(a3<16) a3 *= 1;} else a3 = 1;
	SBIC 0x1E,0
	RJMP _0xCE
	LDS  R26,_a3
	CPI  R26,LOW(0x10)
	BRSH _0xCF
	CALL SUBOPT_0x25
_0xCF:
	RJMP _0xD0
_0xCE:
	LDI  R30,LOW(1)
	STS  _a3,R30
; 0000 01A6                         fl1 = 0;
_0xD0:
	CBI  0x1E,0
; 0000 01A7                         if (OCR0A == 0xFF)
	IN   R30,0x27
	CPI  R30,LOW(0xFF)
	BRNE _0xD3
; 0000 01A8                         { if((unsigned char)OCR0B < (0x98 - a3)) OCR0B = OCR0B + a3; else OCR0B=0x98; }
	CALL SUBOPT_0x26
	BRGE _0xD4
	CALL SUBOPT_0x27
	RJMP _0x280
_0xD4:
	LDI  R30,LOW(152)
_0x280:
	OUT  0x28,R30
; 0000 01A9                         else
	RJMP _0xD6
_0xD3:
; 0000 01AA                         {   if(OCR0A < (0xFF - a3) & OCR0A < 64) OCR0A = OCR0A + a3;
	CALL SUBOPT_0x28
	BREQ _0xD7
	CALL SUBOPT_0x29
; 0000 01AB                             else
	RJMP _0xD8
_0xD7:
; 0000 01AC                             {
; 0000 01AD                                 OCR0A=0xFF;
	CALL SUBOPT_0x2A
; 0000 01AE                                 a3 = 1;
; 0000 01AF                             }
_0xD8:
; 0000 01B0                         }
_0xD6:
; 0000 01B1                     }
_0xCD:
; 0000 01B2 
; 0000 01B3                     a2 = 0;
	LDI  R30,LOW(0)
	STS  _a2,R30
; 0000 01B4                     a1 = 0;
_0x27D:
	STS  _a1,R30
; 0000 01B5 
; 0000 01B6                 }
; 0000 01B7             }
_0xB5:
; 0000 01B8 
; 0000 01B9     }
_0xAF:
; 0000 01BA }
	LD   R30,Y+
	OUT  SREG,R30
	LD   R31,Y+
	LD   R30,Y+
	LD   R27,Y+
	LD   R26,Y+
	LD   R25,Y+
	LD   R24,Y+
	LD   R23,Y+
	LD   R22,Y+
	LD   R15,Y+
	LD   R1,Y+
	LD   R0,Y+
	RETI
; .FEND
;
;
;// Timer2 overflow interrupt service routine
;interrupt [TIM2_OVF] void timer2_ovf_isr(void)
; 0000 01BF {
_timer2_ovf_isr:
; .FSTART _timer2_ovf_isr
	ST   -Y,R30
	IN   R30,SREG
	ST   -Y,R30
; 0000 01C0 // Place your code here
; 0000 01C1 if (fl5) OCR2B = ++l; else OCR2B = --l;
	SBIS 0x1E,4
	RJMP _0xD9
	LDS  R30,_l
	SUBI R30,-LOW(1)
	RJMP _0x281
_0xD9:
	LDS  R30,_l
	SUBI R30,LOW(1)
_0x281:
	STS  _l,R30
	STS  180,R30
; 0000 01C2 if (l == 0) fl5 = !fl5;
	LDS  R30,_l
	CPI  R30,0
	BRNE _0xDB
	SBIS 0x1E,4
	RJMP _0xDC
	CBI  0x1E,4
	RJMP _0xDD
_0xDC:
	SBI  0x1E,4
_0xDD:
; 0000 01C3 }
_0xDB:
	LD   R30,Y+
	OUT  SREG,R30
	LD   R30,Y+
	RETI
; .FEND
;
;
;void ZnachZ(int x, int y, int zn, int zoom)
; 0000 01C7 {
_ZnachZ:
; .FSTART _ZnachZ
; 0000 01C8   int a,b;
; 0000 01C9 
; 0000 01CA     if(zn<10)
	CALL SUBOPT_0x15
;	x -> Y+10
;	y -> Y+8
;	zn -> Y+6
;	zoom -> Y+4
;	a -> R16,R17
;	b -> R18,R19
	LDD  R26,Y+6
	LDD  R27,Y+6+1
	SBIW R26,10
	BRGE _0xDE
; 0000 01CB     {
; 0000 01CC         drawCharZo(x,y,'0',1, zoom);
	CALL SUBOPT_0x5
	CALL SUBOPT_0x5
	CALL SUBOPT_0x2D
; 0000 01CD         drawCharZo(x+12*zoom,y,'0',1, zoom);
	CALL SUBOPT_0x2E
	CALL SUBOPT_0x2F
	LDI  R30,LOW(48)
	RJMP _0x282
; 0000 01CE         drawCharZo(x+18*zoom,y,0x30+zn,1, zoom);
; 0000 01CF     }
; 0000 01D0     else
_0xDE:
; 0000 01D1     if(zn<100)
	LDD  R26,Y+6
	LDD  R27,Y+6+1
	CPI  R26,LOW(0x64)
	LDI  R30,HIGH(0x64)
	CPC  R27,R30
	BRGE _0xE0
; 0000 01D2     {
; 0000 01D3         a = zn/10;
	CALL SUBOPT_0x30
; 0000 01D4         zn = zn - a*10;
; 0000 01D5         drawCharZo(x,y,'0',1, zoom);
	CALL SUBOPT_0x5
	LDI  R30,LOW(48)
	RJMP _0x283
; 0000 01D6         drawCharZo(x+12*zoom,y,0x30+a,1, zoom);
; 0000 01D7         drawCharZo(x+18*zoom,y,0x30+zn,1, zoom);
; 0000 01D8     }
; 0000 01D9     else
_0xE0:
; 0000 01DA     {   b = zn/100;
	CALL SUBOPT_0x31
; 0000 01DB         a = (zn - b*100)/10;
; 0000 01DC         zn = zn - b*100 - a*10;
; 0000 01DD         drawCharZo(x,y,0x30+b,1, zoom);
	CALL SUBOPT_0x5
	MOV  R30,R18
	SUBI R30,-LOW(48)
_0x283:
	ST   -Y,R30
	CALL SUBOPT_0x32
; 0000 01DE         drawCharZo(x+12*zoom,y,0x30+a,1, zoom);
	CALL SUBOPT_0x2E
	CALL SUBOPT_0x2F
	MOV  R30,R16
	SUBI R30,-LOW(48)
_0x282:
	ST   -Y,R30
	CALL SUBOPT_0x32
; 0000 01DF         drawCharZo(x+18*zoom,y,0x30+zn,1, zoom);
	CALL SUBOPT_0x33
	CALL SUBOPT_0x2F
	CALL SUBOPT_0x34
; 0000 01E0 
; 0000 01E1     }
; 0000 01E2     drawCharZo(x+6*zoom,y,'.',1, zoom);
	LDD  R30,Y+4
	LDD  R31,Y+4+1
	CALL SUBOPT_0x11
	CALL SUBOPT_0x4
	CALL SUBOPT_0x2F
	LDI  R30,LOW(46)
	CALL SUBOPT_0x35
; 0000 01E3 }
	RJMP _0x2060003
; .FEND
;
;void ZnachZo(int x, int y, int zn, int zoom)
; 0000 01E6 {
_ZnachZo:
; .FSTART _ZnachZo
; 0000 01E7    int a,b;
; 0000 01E8     if(zn<10)
	CALL SUBOPT_0x15
;	x -> Y+10
;	y -> Y+8
;	zn -> Y+6
;	zoom -> Y+4
;	a -> R16,R17
;	b -> R18,R19
	LDD  R26,Y+6
	LDD  R27,Y+6+1
	SBIW R26,10
	BRGE _0xE2
; 0000 01E9     {
; 0000 01EA         drawCharZo(x,y,'0',1, zoom);
	CALL SUBOPT_0x5
	CALL SUBOPT_0x5
	CALL SUBOPT_0x2D
; 0000 01EB         drawCharZo(x+6*zoom,y,'0',1, zoom);
	CALL SUBOPT_0x11
	CALL SUBOPT_0x4
	CALL SUBOPT_0x2F
	LDI  R30,LOW(48)
	RJMP _0x284
; 0000 01EC         drawCharZo(x+12*zoom,y,0x30+zn,1, zoom);
; 0000 01ED     }
; 0000 01EE     else
_0xE2:
; 0000 01EF     if(zn<100)
	LDD  R26,Y+6
	LDD  R27,Y+6+1
	CPI  R26,LOW(0x64)
	LDI  R30,HIGH(0x64)
	CPC  R27,R30
	BRGE _0xE4
; 0000 01F0     {
; 0000 01F1         a = zn/10;
	CALL SUBOPT_0x30
; 0000 01F2         zn = zn - a*10;
; 0000 01F3         drawCharZo(x,y,'0',1, zoom);
	CALL SUBOPT_0x5
	LDI  R30,LOW(48)
	RJMP _0x285
; 0000 01F4         drawCharZo(x+6*zoom,y,0x30+a,1, zoom);
; 0000 01F5         drawCharZo(x+12*zoom,y,0x30+zn,1, zoom);
; 0000 01F6     }
; 0000 01F7     else
_0xE4:
; 0000 01F8     {   b = zn/100;
	CALL SUBOPT_0x31
; 0000 01F9         a = (zn - b*100)/10;
; 0000 01FA         zn = zn - b*100 - a*10;
; 0000 01FB         drawCharZo(x,y,0x30+b,1, zoom);
	CALL SUBOPT_0x5
	MOV  R30,R18
	SUBI R30,-LOW(48)
_0x285:
	ST   -Y,R30
	CALL SUBOPT_0x32
; 0000 01FC         drawCharZo(x+6*zoom,y,0x30+a,1, zoom);
	CALL SUBOPT_0x11
	CALL SUBOPT_0x4
	CALL SUBOPT_0x2F
	MOV  R30,R16
	SUBI R30,-LOW(48)
_0x284:
	ST   -Y,R30
	CALL SUBOPT_0x32
; 0000 01FD         drawCharZo(x+12*zoom,y,0x30+zn,1, zoom);
	CALL SUBOPT_0x2E
	CALL SUBOPT_0x2F
	CALL SUBOPT_0x34
; 0000 01FE 
; 0000 01FF     }
; 0000 0200 }
	RJMP _0x2060003
; .FEND
;
;
;void timeZ(int x, int y, int sec, int zoom)
; 0000 0204 {
_timeZ:
; .FSTART _timeZ
; 0000 0205 int min,a;
; 0000 0206     min = sec / 60;
	CALL SUBOPT_0x15
;	x -> Y+10
;	y -> Y+8
;	sec -> Y+6
;	zoom -> Y+4
;	min -> R16,R17
;	a -> R18,R19
	LDD  R26,Y+6
	LDD  R27,Y+6+1
	LDI  R30,LOW(60)
	LDI  R31,HIGH(60)
	CALL __DIVW21
	MOVW R16,R30
; 0000 0207     sec -=  min * 60;
	LDI  R26,LOW(60)
	LDI  R27,HIGH(60)
	CALL SUBOPT_0x36
; 0000 0208     if(min<10)
	__CPWRN 16,17,10
	BRGE _0xE6
; 0000 0209     {
; 0000 020A         drawCharZo(x,y,'0',1, zoom);
	CALL SUBOPT_0x5
	CALL SUBOPT_0x5
	LDI  R30,LOW(48)
	RJMP _0x286
; 0000 020B         drawCharZo(x+6*zoom,y,0x30+min,1, zoom);
; 0000 020C     }
; 0000 020D     else
_0xE6:
; 0000 020E     {
; 0000 020F         a = min/10;
	MOVW R26,R16
	CALL SUBOPT_0x37
; 0000 0210         min -= a*10;
	CALL __MULW12
	__SUBWRR 16,17,30,31
; 0000 0211         drawCharZo(x,y,0x30+a,1, zoom);
	CALL SUBOPT_0x5
	CALL SUBOPT_0x5
	MOV  R30,R18
	SUBI R30,-LOW(48)
_0x286:
	ST   -Y,R30
	CALL SUBOPT_0x32
; 0000 0212         drawCharZo(x+6*zoom,y,0x30+min,1, zoom);
	CALL SUBOPT_0x11
	CALL SUBOPT_0x4
	CALL SUBOPT_0x2F
	MOV  R30,R16
	SUBI R30,-LOW(48)
	CALL SUBOPT_0x35
; 0000 0213     }
; 0000 0214     drawCharZ(x+12*zoom,y,':',1, zoom);
	LDD  R30,Y+4
	LDD  R31,Y+4+1
	CALL SUBOPT_0x2E
	CALL SUBOPT_0x2F
	LDI  R30,LOW(58)
	CALL SUBOPT_0x38
	LDD  R26,Y+11
	LDD  R27,Y+11+1
	RCALL _drawCharZ
; 0000 0215     if(sec<10)
	LDD  R26,Y+6
	LDD  R27,Y+6+1
	SBIW R26,10
	BRGE _0xE8
; 0000 0216     {
; 0000 0217         drawCharZo(x+18*zoom,y,'0',1, zoom);
	LDD  R30,Y+4
	LDD  R31,Y+4+1
	CALL SUBOPT_0x33
	CALL SUBOPT_0x2F
	LDI  R30,LOW(48)
	RJMP _0x287
; 0000 0218         drawCharZo(x+24*zoom,y,0x30+sec,1, zoom);
; 0000 0219     }
; 0000 021A     else
_0xE8:
; 0000 021B     {
; 0000 021C         a = sec/10;
	LDD  R26,Y+6
	LDD  R27,Y+6+1
	CALL SUBOPT_0x37
; 0000 021D         sec -= a*10;
	CALL SUBOPT_0x36
; 0000 021E         drawCharZo(x+18*zoom,y,0x30+a,1, zoom);
	LDD  R30,Y+4
	LDD  R31,Y+4+1
	CALL SUBOPT_0x33
	CALL SUBOPT_0x2F
	MOV  R30,R18
	SUBI R30,-LOW(48)
_0x287:
	ST   -Y,R30
	CALL SUBOPT_0x32
; 0000 021F         drawCharZo(x+24*zoom,y,0x30+sec,1, zoom);
	LDI  R26,LOW(24)
	LDI  R27,HIGH(24)
	CALL __MULW12
	CALL SUBOPT_0x4
	CALL SUBOPT_0x2F
	CALL SUBOPT_0x34
; 0000 0220     }
; 0000 0221 
; 0000 0222 }
_0x2060003:
	CALL __LOADLOCR4
	ADIW R28,12
	RET
; .FEND
;
;
;
;int vibor(void)
; 0000 0227 {
_vibor:
; .FSTART _vibor
; 0000 0228 flag0 = 1;
	SBI  0x1E,7
; 0000 0229 j=-2;
	LDI  R30,LOW(65534)
	LDI  R31,HIGH(65534)
	__PUTW1R 5,6
; 0000 022A   while (flag0)
_0xEC:
	SBIS 0x1E,7
	RJMP _0xEE
; 0000 022B   {
; 0000 022C     timer=0;
	CALL SUBOPT_0x39
; 0000 022D     if(!dob)
	SBIC 0x9,1
	RJMP _0xEF
; 0000 022E     {
; 0000 022F         delay_ms(200);
	CALL SUBOPT_0x3A
; 0000 0230         while(!dob& timer++<100000);
_0xF0:
	CALL SUBOPT_0x3B
	CALL SUBOPT_0x3C
	BRNE _0xF0
; 0000 0231          for(o=0;o<32;o++) { zvuk = 1 ; delay_us(200); zvuk = 0; delay_us(200); }
	CLR  R13
	CLR  R14
_0xF4:
	CALL SUBOPT_0x3D
	BRGE _0xF5
	CALL SUBOPT_0x3E
	CALL SUBOPT_0x3F
	RJMP _0xF4
_0xF5:
; 0000 0232         j++;
	LDI  R30,LOW(1)
	LDI  R31,HIGH(1)
	__ADDWRR 5,6,30,31
; 0000 0233     }
; 0000 0234     if(!ubr)
_0xEF:
	SBIC 0x9,2
	RJMP _0xFA
; 0000 0235     {
; 0000 0236         delay_ms(200);
	CALL SUBOPT_0x3A
; 0000 0237         while(!ubr & timer++<100000) ;
_0xFB:
	CALL SUBOPT_0x40
	CALL SUBOPT_0x3C
	BRNE _0xFB
; 0000 0238          for(o=0;o<32;o++) { zvuk = 1 ; delay_us(200); zvuk = 0; delay_us(200); }
	CLR  R13
	CLR  R14
_0xFF:
	CALL SUBOPT_0x3D
	BRGE _0x100
	CALL SUBOPT_0x3E
	CALL SUBOPT_0x3F
	RJMP _0xFF
_0x100:
; 0000 0239         if (timer>=100000) flag0 = 0;
	CALL SUBOPT_0x19
	__CPD2N 0x186A0
	BRLT _0x105
	CBI  0x1E,7
; 0000 023A         else j--;
	RJMP _0x108
_0x105:
	__GETW1R 5,6
	SBIW R30,1
	__PUTW1R 5,6
; 0000 023B     }
_0x108:
; 0000 023C     if(j > 42) j = -2;
_0xFA:
	LDI  R30,LOW(42)
	LDI  R31,HIGH(42)
	CP   R30,R5
	CPC  R31,R6
	BRGE _0x109
	LDI  R30,LOW(65534)
	LDI  R31,HIGH(65534)
	__PUTW1R 5,6
; 0000 023D     if(j<-2) j = 42;
_0x109:
	LDI  R30,LOW(65534)
	LDI  R31,HIGH(65534)
	CP   R5,R30
	CPC  R6,R31
	BRGE _0x10A
	LDI  R30,LOW(42)
	LDI  R31,HIGH(42)
	__PUTW1R 5,6
; 0000 023E     clearDisplay();
_0x10A:
	RCALL _clearDisplay
; 0000 023F     for(i = 0 ; i < 2 ; i++)
	CLR  R3
	CLR  R4
_0x10C:
	LDI  R30,LOW(2)
	LDI  R31,HIGH(2)
	CP   R3,R30
	CPC  R4,R31
	BRGE _0x10D
; 0000 0240     {
; 0000 0241         for (n = 0; n < 21; n++)
	CLR  R7
	CLR  R8
_0x10F:
	LDI  R30,LOW(21)
	LDI  R31,HIGH(21)
	CP   R7,R30
	CPC  R8,R31
	BRGE _0x110
; 0000 0242         {
; 0000 0243            if((j+i) < 45 & (j+i) >= 0) drawChar(6*n,i,bolezni[j+i+ubr-dob][n]);
	CALL SUBOPT_0x41
	CALL SUBOPT_0x42
	LDI  R30,LOW(0)
	LDI  R31,HIGH(0)
	CALL __GEW12
	AND  R30,R0
	BREQ _0x111
	CALL SUBOPT_0x43
	ST   -Y,R31
	ST   -Y,R30
	ST   -Y,R4
	ST   -Y,R3
	CALL SUBOPT_0x41
	CALL SUBOPT_0x44
	CALL SUBOPT_0x45
; 0000 0244         }
_0x111:
	CALL SUBOPT_0x46
	RJMP _0x10F
_0x110:
; 0000 0245     }
	CALL SUBOPT_0x47
	RJMP _0x10C
_0x10D:
; 0000 0246     if(!dob | !ubr)   for (n = 0; n < 11; n++) if((j+i) < 45 & (j+i) >= 0) drawCharZ(12*n,16,bolezni[j+2+ ubr][n],1,2);
	CALL SUBOPT_0x48
	BREQ _0x112
	CLR  R7
	CLR  R8
_0x114:
	LDI  R30,LOW(11)
	LDI  R31,HIGH(11)
	CP   R7,R30
	CPC  R8,R31
	BRGE _0x115
	CALL SUBOPT_0x41
	CALL SUBOPT_0x42
	LDI  R30,LOW(0)
	LDI  R31,HIGH(0)
	CALL __GEW12
	AND  R30,R0
	BREQ _0x116
	CALL SUBOPT_0x49
	CALL SUBOPT_0x4A
	__GETW2R 5,6
	ADIW R26,2
	CALL SUBOPT_0x44
	ADD  R30,R26
	ADC  R31,R27
	CALL SUBOPT_0x4B
	ADD  R30,R7
	ADC  R31,R8
	LPM  R30,Z
	CALL SUBOPT_0x38
	CALL SUBOPT_0x4C
; 0000 0247     for(i = 4 ; i < 7 ; i++)
_0x116:
	CALL SUBOPT_0x46
	RJMP _0x114
_0x115:
_0x112:
	LDI  R30,LOW(4)
	LDI  R31,HIGH(4)
	__PUTW1R 3,4
_0x118:
	LDI  R30,LOW(7)
	LDI  R31,HIGH(7)
	CP   R3,R30
	CPC  R4,R31
	BRGE _0x119
; 0000 0248     {
; 0000 0249         for (n = 0; n < 21; n++)
	CLR  R7
	CLR  R8
_0x11B:
	LDI  R30,LOW(21)
	LDI  R31,HIGH(21)
	CP   R7,R30
	CPC  R8,R31
	BRGE _0x11C
; 0000 024A         {
; 0000 024B            if((j+i) < 45) drawChar(6*n,i,bolezni[j+i-1+ubr-dob][n]);
	CALL SUBOPT_0x41
	SBIW R26,45
	BRGE _0x11D
	CALL SUBOPT_0x43
	ST   -Y,R31
	ST   -Y,R30
	ST   -Y,R4
	ST   -Y,R3
	__GETW1R 3,4
	ADD  R30,R5
	ADC  R31,R6
	SBIW R30,1
	MOVW R26,R30
	CALL SUBOPT_0x44
	CALL SUBOPT_0x45
; 0000 024C         }
_0x11D:
	CALL SUBOPT_0x46
	RJMP _0x11B
_0x11C:
; 0000 024D     }
	CALL SUBOPT_0x47
	RJMP _0x118
_0x119:
; 0000 024E     display(0,0,127,7);
	CALL SUBOPT_0x4D
	CALL SUBOPT_0x4D
	CALL SUBOPT_0x4E
	CALL SUBOPT_0x4F
; 0000 024F     for (i = 0 ; i < 102 ; i++)
	CLR  R3
	CLR  R4
_0x11F:
	LDI  R30,LOW(102)
	LDI  R31,HIGH(102)
	CP   R3,R30
	CPC  R4,R31
	BRLT PC+2
	RJMP _0x120
; 0000 0250     {
; 0000 0251     //
; 0000 0252         for(m = 12; m >= 0; m-=2)
	LDI  R30,LOW(12)
	LDI  R31,HIGH(12)
	__PUTW1R 9,10
_0x122:
	CLR  R0
	CP   R9,R0
	CPC  R10,R0
	BRGE PC+2
	RJMP _0x123
; 0000 0253         {
; 0000 0254 //      //      delay_ms(10);
; 0000 0255             for (n = 0; n < 10; n++)
	CLR  R7
	CLR  R8
_0x125:
	LDI  R30,LOW(10)
	LDI  R31,HIGH(10)
	CP   R7,R30
	CPC  R8,R31
	BRLT PC+2
	RJMP _0x126
; 0000 0256             {
; 0000 0257         //               clearDisplay();
; 0000 0258 //
; 0000 0259                     if ((n+i)>9)  drawCharZo(m+12*n,16,bolezni[j+2][n+i-10],1,2);
	__GETW2R 3,4
	ADD  R26,R7
	ADC  R27,R8
	SBIW R26,10
	BRLT _0x127
	CALL SUBOPT_0x49
	ADD  R30,R9
	ADC  R31,R10
	CALL SUBOPT_0x4A
	__GETW1R 5,6
	ADIW R30,2
	CALL SUBOPT_0x4B
	MOVW R26,R30
	__GETW1R 3,4
	ADD  R30,R7
	ADC  R31,R8
	SBIW R30,10
	ADD  R30,R26
	ADC  R31,R27
	LPM  R30,Z
	CALL SUBOPT_0x38
	LDI  R26,LOW(2)
	LDI  R27,0
	RCALL _drawCharZo
; 0000 025A                     else  for(k = 0; k < 12; k++)
	RJMP _0x128
_0x127:
	CLR  R11
	CLR  R12
_0x12A:
	LDI  R30,LOW(12)
	LDI  R31,HIGH(12)
	CP   R11,R30
	CPC  R12,R31
	BRGE _0x12B
; 0000 025B                     {
; 0000 025C                         buffer[256+11-m+12*n+k] = buffer[256+12-m+12*n+k];
	LDI  R30,LOW(267)
	LDI  R31,HIGH(267)
	CALL SUBOPT_0x50
	CALL SUBOPT_0x51
	MOVW R24,R30
	LDI  R30,LOW(268)
	LDI  R31,HIGH(268)
	CALL SUBOPT_0x50
	CALL SUBOPT_0x51
	LD   R30,Z
	MOVW R26,R24
	ST   X,R30
; 0000 025D                         buffer[384+11-m+12*n+k] = buffer[384+12-m+12*n+k];
	LDI  R30,LOW(395)
	LDI  R31,HIGH(395)
	CALL SUBOPT_0x50
	CALL SUBOPT_0x51
	MOVW R24,R30
	LDI  R30,LOW(396)
	LDI  R31,HIGH(396)
	CALL SUBOPT_0x50
	CALL SUBOPT_0x51
	LD   R30,Z
	MOVW R26,R24
	ST   X,R30
; 0000 025E                     }
	LDI  R30,LOW(1)
	LDI  R31,HIGH(1)
	__ADDWRR 11,12,30,31
	RJMP _0x12A
_0x12B:
_0x128:
; 0000 025F                     if(bolezni[j+2][i+n-11]=='.')
	__GETW1R 5,6
	ADIW R30,2
	CALL SUBOPT_0x4B
	MOVW R26,R30
	__GETW1R 7,8
	ADD  R30,R3
	ADC  R31,R4
	SBIW R30,11
	ADD  R30,R26
	ADC  R31,R27
	LPM  R26,Z
	CPI  R26,LOW(0x2E)
	BRNE _0x12C
; 0000 0260                     {
; 0000 0261                         i = 0; //else i = 102;// m = 0;
	CLR  R3
	CLR  R4
; 0000 0262                     }
; 0000 0263                     if (!dob | !ubr) i = 102;
_0x12C:
	CALL SUBOPT_0x48
	BREQ _0x12D
	LDI  R30,LOW(102)
	LDI  R31,HIGH(102)
	__PUTW1R 3,4
; 0000 0264             }
_0x12D:
	CALL SUBOPT_0x46
	RJMP _0x125
_0x126:
; 0000 0265             if (dob & ubr) display(0,2,127,3);
	LDI  R26,0
	SBIC 0x9,1
	LDI  R26,1
	LDI  R30,0
	SBIC 0x9,2
	LDI  R30,1
	AND  R30,R26
	BREQ _0x12E
	CALL SUBOPT_0x4D
	CALL SUBOPT_0x52
	LDI  R26,LOW(3)
	LDI  R27,0
	RCALL _display
; 0000 0266 
; 0000 0267         }
_0x12E:
	__GETW1R 9,10
	SBIW R30,2
	__PUTW1R 9,10
	RJMP _0x122
_0x123:
; 0000 0268 //     if(i == 0) delay_ms(300);
; 0000 0269 //     if(i == 101) delay_ms(500);
; 0000 026A 
; 0000 026B       //  drawString(0,0,bol0,41);
; 0000 026C     //    display(0,0,63,1);
; 0000 026D     }
	CALL SUBOPT_0x47
	RJMP _0x11F
_0x120:
; 0000 026E 
; 0000 026F   }
	RJMP _0xEC
_0xEE:
; 0000 0270   return (j+2);
	__GETW1R 5,6
	ADIW R30,2
	RET
; 0000 0271 }
; .FEND
;
;
;
;
;void main(void)
; 0000 0277 {
_main:
; .FSTART _main
; 0000 0278 // Declare your local variables here
; 0000 0279 
; 0000 027A // Crystal Oscillator division factor: 1
; 0000 027B #pragma optsize-
; 0000 027C CLKPR=(1<<CLKPCE);
	LDI  R30,LOW(128)
	STS  97,R30
; 0000 027D CLKPR=(0<<CLKPCE) | (0<<CLKPS3) | (0<<CLKPS2) | (0<<CLKPS1) | (0<<CLKPS0);
	LDI  R30,LOW(0)
	STS  97,R30
; 0000 027E #ifdef _OPTIMIZE_SIZE_
; 0000 027F #pragma optsize+
; 0000 0280 #endif
; 0000 0281 
; 0000 0282 // Input/Output Ports initialization
; 0000 0283 // Port B initialization
; 0000 0284 // Function: Bit7=In Bit6=In Bit5=In Bit4=In Bit3=Out Bit2=In Bit1=In Bit0=In
; 0000 0285 DDRB=(0<<DDB7) | (0<<DDB6) | (0<<DDB5) | (0<<DDB4) | (1<<DDB3) | (0<<DDB2) | (1<<DDB1) | (0<<DDB0);
	LDI  R30,LOW(10)
	OUT  0x4,R30
; 0000 0286 // State: Bit7=T Bit6=T Bit5=T Bit4=T Bit3=0 Bit2=T Bit1=T Bit0=T
; 0000 0287 PORTB=(0<<PORTB7) | (0<<PORTB6) | (0<<PORTB5) | (0<<PORTB4) | (0<<PORTB3) | (0<<PORTB2) | (0<<PORTB1) | (0<<PORTB0);
	LDI  R30,LOW(0)
	OUT  0x5,R30
; 0000 0288 
; 0000 0289 // Port C initialization
; 0000 028A // Function: Bit6=In Bit5=In Bit4=In Bit3=In Bit2=In Bit1=In Bit0=In
; 0000 028B DDRC=(0<<DDC6) | (0<<DDC5) | (0<<DDC4) | (0<<DDC3) | (0<<DDC2) | (1<<DDC1) | (0<<DDC0);
	LDI  R30,LOW(2)
	OUT  0x7,R30
; 0000 028C // State: Bit6=T Bit5=T Bit4=T Bit3=T Bit2=T Bit1=T Bit0=T
; 0000 028D PORTC=(0<<PORTC6) | (0<<PORTC5) | (0<<PORTC4) | (0<<PORTC3) | (0<<PORTC2) | (0<<PORTC1) | (1<<PORTC0);
	LDI  R30,LOW(1)
	OUT  0x8,R30
; 0000 028E 
; 0000 028F // Port D initialization
; 0000 0290 // State: Bit7=T Bit6=0 Bit5=0 Bit4=T Bit3=T Bit2=T Bit1=T Bit0=T
; 0000 0291 PORTD=(0<<PORTD7) | (1<<PORTD6) | (0<<PORTD5) | (0<<PORTD4) | (0<<PORTD3) | (0<<PORTD2) | (1<<PORTD1) | (1<<PORTD0);
	LDI  R30,LOW(67)
	OUT  0xB,R30
; 0000 0292 // Function: Bit7=In Bit6=Out Bit5=Out Bit4=In Bit3=In Bit2=In Bit1=In Bit0=In
; 0000 0293 DDRD=(0<<DDD7) | (1<<DDD6) | (1<<DDD5) | (0<<DDD4) | (1<<DDD3) | (0<<DDD2) | (0<<DDD1) | (1<<DDD0);
	LDI  R30,LOW(105)
	OUT  0xA,R30
; 0000 0294 
; 0000 0295 // Timer/Counter 0 initialization
; 0000 0296 // Clock source: System Clock
; 0000 0297 // Clock value: 16000,000 kHz
; 0000 0298 // Mode: Fast PWM top=0xFF
; 0000 0299 // OC0A output: Inverted PWM
; 0000 029A // OC0B output: Non-Inverted PWM
; 0000 029B // Timer Period: 0,016 ms
; 0000 029C // Output Pulse(s):
; 0000 029D // OC0A Period: 0,016 ms Width: 0,016 ms
; 0000 029E // OC0B Period: 0,016 ms Width: 0 us
; 0000 029F TCCR0A=(1<<COM0A1) | (1<<COM0A0) | (1<<COM0B1) | (0<<COM0B0) | (1<<WGM01) | (1<<WGM00);
	LDI  R30,LOW(227)
	OUT  0x24,R30
; 0000 02A0 TCCR0B=(0<<WGM02) | (0<<CS02) | (0<<CS01) | (1<<CS00);
	LDI  R30,LOW(1)
	OUT  0x25,R30
; 0000 02A1 TCNT0=0x00;
	LDI  R30,LOW(0)
	OUT  0x26,R30
; 0000 02A2 OCR0A=0x00;
	CALL SUBOPT_0x53
; 0000 02A3 OCR0B=0x00;
; 0000 02A4 
; 0000 02A5 
; 0000 02A6 // Timer/Counter 1 initialization
; 0000 02A7 // Clock source: System Clock
; 0000 02A8 // Clock value: 16000,000 kHz
; 0000 02A9 // Mode: Normal top=0xFFFF
; 0000 02AA // OC1A output: Disconnected
; 0000 02AB // OC1B output: Disconnected
; 0000 02AC // Noise Canceler: Off
; 0000 02AD // Input Capture on Falling Edge
; 0000 02AE // Timer Period: 1,9179 ms
; 0000 02AF // Timer1 Overflow Interrupt: On
; 0000 02B0 // Input Capture Interrupt: Off
; 0000 02B1 // Compare A Match Interrupt: Off
; 0000 02B2 // Compare B Match Interrupt: Off
; 0000 02B3 TCCR1A=(0<<COM1A1) | (0<<COM1A0) | (0<<COM1B1) | (0<<COM1B0) | (0<<WGM11) | (0<<WGM10);
	LDI  R30,LOW(0)
	STS  128,R30
; 0000 02B4 TCCR1B=(0<<ICNC1) | (0<<ICES1) | (0<<WGM13) | (0<<WGM12) | (0<<CS12) | (0<<CS11) | (1<<CS10);
	LDI  R30,LOW(1)
	STS  129,R30
; 0000 02B5 TCNT1H=0x88;
	LDI  R30,LOW(136)
	STS  133,R30
; 0000 02B6 TCNT1L=0x22;
	LDI  R30,LOW(34)
	STS  132,R30
; 0000 02B7 ICR1H=0x00;
	LDI  R30,LOW(0)
	STS  135,R30
; 0000 02B8 ICR1L=0x00;
	STS  134,R30
; 0000 02B9 OCR1AH=0x00;
	STS  137,R30
; 0000 02BA OCR1AL=0x00;
	STS  136,R30
; 0000 02BB OCR1BH=0x00;
	STS  139,R30
; 0000 02BC OCR1BL=0x00;
	STS  138,R30
; 0000 02BD 
; 0000 02BE // Timer/Counter 2 initialization
; 0000 02BF // Clock source: System Clock
; 0000 02C0 // Clock value: 16000,000 kHz
; 0000 02C1 // Mode: Fast PWM top=0xFF
; 0000 02C2 // OC2A output: Inverted PWM
; 0000 02C3 // OC2B output: Non-Inverted PWM
; 0000 02C4 // Timer Period: 0,016 ms
; 0000 02C5 // Output Pulse(s):
; 0000 02C6 // OC2A Period: 0,016 ms Width: 0,016 ms
; 0000 02C7 // OC2B Period: 0,016 ms Width: 0 us
; 0000 02C8 ASSR=(0<<EXCLK) | (0<<AS2);
	STS  182,R30
; 0000 02C9 TCCR2A=(1<<COM2A1) | (1<<COM2A0) | (1<<COM2B1) | (0<<COM2B0) | (1<<WGM21) | (1<<WGM20);
	LDI  R30,LOW(227)
	STS  176,R30
; 0000 02CA TCCR2B=(0<<WGM22) | (0<<CS22) | (0<<CS21) | (1<<CS20);
	LDI  R30,LOW(1)
	STS  177,R30
; 0000 02CB TCNT2=0x00;
	LDI  R30,LOW(0)
	STS  178,R30
; 0000 02CC OCR2A=0x00;
	STS  179,R30
; 0000 02CD OCR2B=0x00;
	STS  180,R30
; 0000 02CE 
; 0000 02CF 
; 0000 02D0 // Timer/Counter 0 Interrupt(s) initialization
; 0000 02D1 TIMSK0=(0<<OCIE0B) | (0<<OCIE0A) | (0<<TOIE0);
	STS  110,R30
; 0000 02D2 
; 0000 02D3 // Timer/Counter 1 Interrupt(s) initialization
; 0000 02D4 TIMSK1=(0<<ICIE1) | (0<<OCIE1B) | (0<<OCIE1A) | (0<<TOIE1);
	STS  111,R30
; 0000 02D5 
; 0000 02D6 // Timer/Counter 2 Interrupt(s) initialization
; 0000 02D7 TIMSK2=(0<<OCIE2B) | (0<<OCIE2A) | (0<<TOIE2);
	STS  112,R30
; 0000 02D8 
; 0000 02D9 
; 0000 02DA // External Interrupt(s) initialization
; 0000 02DB // INT0: On
; 0000 02DC // INT0 Mode: Falling Edge
; 0000 02DD // INT1: Off
; 0000 02DE // Interrupt on any change on pins PCINT0-7: Off
; 0000 02DF // Interrupt on any change on pins PCINT8-14: Off
; 0000 02E0 // Interrupt on any change on pins PCINT16-23: Off
; 0000 02E1 EICRA=(0<<ISC11) | (0<<ISC10) | (1<<ISC01) | (0<<ISC00);
	LDI  R30,LOW(2)
	STS  105,R30
; 0000 02E2 EIMSK=(0<<INT1) | (1<<INT0);
	LDI  R30,LOW(1)
	OUT  0x1D,R30
; 0000 02E3 EIFR=(0<<INTF1) | (1<<INTF0);
	OUT  0x1C,R30
; 0000 02E4 PCICR=(0<<PCIE2) | (0<<PCIE1) | (0<<PCIE0);
	LDI  R30,LOW(0)
	STS  104,R30
; 0000 02E5 
; 0000 02E6 // USART initialization
; 0000 02E7 // USART disabled
; 0000 02E8 UCSR0B=(0<<RXCIE0) | (0<<TXCIE0) | (0<<UDRIE0) | (0<<RXEN0) | (0<<TXEN0) | (0<<UCSZ02) | (0<<RXB80) | (0<<TXB80);
	STS  193,R30
; 0000 02E9 
; 0000 02EA // Analog Comparator initialization
; 0000 02EB // Analog Comparator: Off
; 0000 02EC // The Analog Comparator's positive input is
; 0000 02ED // connected to the AIN0 pin
; 0000 02EE // The Analog Comparator's negative input is
; 0000 02EF // connected to the AIN1 pin
; 0000 02F0 ACSR=(1<<ACD) | (0<<ACBG) | (0<<ACO) | (0<<ACI) | (0<<ACIE) | (0<<ACIC) | (0<<ACIS1) | (0<<ACIS0);
	LDI  R30,LOW(128)
	OUT  0x30,R30
; 0000 02F1 // Digital input buffer on AIN0: On
; 0000 02F2 // Digital input buffer on AIN1: On
; 0000 02F3 DIDR1=(0<<AIN0D) | (0<<AIN1D);
	LDI  R30,LOW(0)
	STS  127,R30
; 0000 02F4 
; 0000 02F5 // ADC initialization
; 0000 02F6 // ADC Clock frequency: 1000,000 kHz
; 0000 02F7 // ADC Voltage Reference: Int., cap. on AREF
; 0000 02F8 // ADC Auto Trigger Source: ADC Stopped
; 0000 02F9 // Digital input buffers on ADC0: On, ADC1: On, ADC2: On, ADC3: On
; 0000 02FA // ADC4: On, ADC5: On
; 0000 02FB DIDR0=(0<<ADC5D) | (0<<ADC4D) | (0<<ADC3D) | (0<<ADC2D) | (0<<ADC1D) | (0<<ADC0D);
	STS  126,R30
; 0000 02FC ADMUX=ADC_VREF_TYPE;
	LDI  R30,LOW(192)
	STS  124,R30
; 0000 02FD ADCSRA=(1<<ADEN) | (0<<ADSC) | (0<<ADATE) | (0<<ADIF) | (0<<ADIE) | (1<<ADPS2) | (0<<ADPS1) | (0<<ADPS0);
	LDI  R30,LOW(132)
	STS  122,R30
; 0000 02FE ADCSRB=(0<<ADTS2) | (0<<ADTS1) | (0<<ADTS0);
	LDI  R30,LOW(0)
	STS  123,R30
; 0000 02FF 
; 0000 0300 
; 0000 0301 // SPI initialization
; 0000 0302 // SPI disabled
; 0000 0303 SPCR=(0<<SPIE) | (0<<SPE) | (0<<DORD) | (0<<MSTR) | (0<<CPOL) | (0<<CPHA) | (0<<SPR1) | (0<<SPR0);
	OUT  0x2C,R30
; 0000 0304 
; 0000 0305 // TWI initialization
; 0000 0306 // TWI disabled
; 0000 0307 TWCR=(0<<TWEA) | (0<<TWSTA) | (0<<TWSTO) | (0<<TWEN) | (0<<TWIE);
	STS  188,R30
; 0000 0308 
; 0000 0309 // Global enable interrupts
; 0000 030A #asm("sei")
	sei
; 0000 030B //OCR0B=0xE0;
; 0000 030C for(o=0;o<128;o++) { zvuk = 1 ; delay_us(200); zvuk = 0; delay_us(200); }
	CLR  R13
	CLR  R14
_0x130:
	CALL SUBOPT_0x54
	BRGE _0x131
	CALL SUBOPT_0x3E
	CALL SUBOPT_0x3F
	RJMP _0x130
_0x131:
; 0000 030D delay_ms(2);
	LDI  R26,LOW(2)
	LDI  R27,0
	CALL _delay_ms
; 0000 030E a3 = 1;
	LDI  R30,LOW(1)
	STS  _a3,R30
; 0000 030F tok0 = 0;
	CALL SUBOPT_0x55
; 0000 0310 mod = 2;
	LDI  R30,LOW(2)
	LDI  R31,HIGH(2)
	STS  _mod,R30
	STS  _mod+1,R31
; 0000 0311 period = 10000;
	LDI  R30,LOW(10000)
	LDI  R31,HIGH(10000)
	CALL SUBOPT_0x1B
; 0000 0312 //period = 10900;
; 0000 0313 initDisplay();
	RCALL _initDisplay
; 0000 0314 zvuk = 1;
	SBI  0x5,1
; 0000 0315 clearDisplay();
	CALL _clearDisplay
; 0000 0316 tok = read_adc(0);
	CALL SUBOPT_0x2B
; 0000 0317 zvuk = 0;
	CBI  0x5,1
; 0000 0318 drawStringZ(0, 0, " :", 9, 1, 2);
	CALL SUBOPT_0x4D
	CALL SUBOPT_0x4D
	__POINTW1FN _0x0,0
	CALL SUBOPT_0x56
; 0000 0319 ZnachZ(16,24,tok,3) ;
	LDI  R30,LOW(16)
	LDI  R31,HIGH(16)
	CALL SUBOPT_0x57
	CALL SUBOPT_0x58
	LDI  R26,LOW(3)
	LDI  R27,0
	RCALL _ZnachZ
; 0000 031A drawStringZ(16+24*3, 24, "v", 1, 1, 3);
	LDI  R30,LOW(88)
	LDI  R31,HIGH(88)
	CALL SUBOPT_0x57
	__POINTW1FN _0x0,10
	CALL SUBOPT_0x59
	CALL SUBOPT_0x59
	CALL SUBOPT_0x5A
; 0000 031B display(0,0,127,7);
	CALL SUBOPT_0x4D
	CALL SUBOPT_0x4E
	CALL SUBOPT_0x4F
; 0000 031C delay_ms(2000);
	LDI  R26,LOW(2000)
	LDI  R27,HIGH(2000)
	CALL _delay_ms
; 0000 031D PORTC.0 = 0;
	CBI  0x8,0
; 0000 031E //TIMSK1=(0<<ICIE1) | (0<<OCIE1B) | (0<<OCIE1A) | (1<<TOIE1);
; 0000 031F clearDisplay();
	CALL SUBOPT_0x5B
; 0000 0320 drawStringZ(0, 0, ":", 9, 1, 2);
	CALL SUBOPT_0x4D
	__POINTW1FN _0x0,12
	CALL SUBOPT_0x56
; 0000 0321 drawStringZ(0, 20, ":-", 10, 1, 2);
	CALL SUBOPT_0x4D
	LDI  R30,LOW(20)
	LDI  R31,HIGH(20)
	ST   -Y,R31
	ST   -Y,R30
	__POINTW1FN _0x0,22
	CALL SUBOPT_0x5C
	CALL SUBOPT_0x5D
; 0000 0322 drawStringZ(0, 40, ":+", 10, 1, 2);
	CALL SUBOPT_0x5E
	__POINTW1FN _0x0,33
	CALL SUBOPT_0x5C
	CALL SUBOPT_0x5D
; 0000 0323 display(0,0,127,7);
	CALL SUBOPT_0x4D
	CALL SUBOPT_0x4E
	CALL SUBOPT_0x4F
; 0000 0324 for(o=0;o<128;o++) { zvuk = 1 ; delay_us(200); zvuk = 0; delay_us(200); }
	CLR  R13
	CLR  R14
_0x13D:
	CALL SUBOPT_0x54
	BRGE _0x13E
	CALL SUBOPT_0x3E
	CALL SUBOPT_0x3F
	RJMP _0x13D
_0x13E:
; 0000 0325 while(ubr & dob & paus++<1000)
_0x143:
	CALL SUBOPT_0x5F
	BREQ _0x145
; 0000 0326 {
; 0000 0327     delay_ms(10);
	CALL SUBOPT_0x60
; 0000 0328 
; 0000 0329 }
	RJMP _0x143
_0x145:
; 0000 032A for(o=0;o<128;o++) { zvuk = 1 ; delay_us(200); zvuk = 0; delay_us(200); }
	CLR  R13
	CLR  R14
_0x147:
	CALL SUBOPT_0x54
	BRGE _0x148
	CALL SUBOPT_0x3E
	CALL SUBOPT_0x3F
	RJMP _0x147
_0x148:
; 0000 032B clearDisplay();
	CALL _clearDisplay
; 0000 032C delay_ms(50);
	CALL SUBOPT_0x61
; 0000 032D if(fubr)
	SBRS R2,0
	RJMP _0x14D
; 0000 032E {
; 0000 032F     drawStringZ(0, 0, "", 6, 1, 3);
	CALL SUBOPT_0x4D
	CALL SUBOPT_0x4D
	CALL SUBOPT_0x62
	CALL SUBOPT_0x5A
; 0000 0330     drawStringZ(0, 30, "  ", 10, 1, 2);
	CALL SUBOPT_0x63
	__POINTW1FN _0x0,51
	CALL SUBOPT_0x5C
	CALL SUBOPT_0x64
; 0000 0331     reg1 = 1;
	SBI  0x1E,5
; 0000 0332     fubr = 0;
	CLT
	BLD  R2,0
; 0000 0333 }
; 0000 0334 else
	RJMP _0x150
_0x14D:
; 0000 0335 {
; 0000 0336     drawStringZ(0, 0, "", 6, 1, 3);
	CALL SUBOPT_0x4D
	CALL SUBOPT_0x4D
	CALL SUBOPT_0x62
	CALL SUBOPT_0x5A
; 0000 0337     drawStringZ(0, 30, "  ", 10, 1, 2);
	CALL SUBOPT_0x63
	__POINTW1FN _0x0,62
	CALL SUBOPT_0x5C
	CALL SUBOPT_0x64
; 0000 0338 }
_0x150:
; 0000 0339 display(0,0,127,7);
	CALL SUBOPT_0x4D
	CALL SUBOPT_0x4D
	CALL SUBOPT_0x4E
	CALL SUBOPT_0x4F
; 0000 033A clearDisplay();
	CALL _clearDisplay
; 0000 033B delay_ms(1000);
	CALL SUBOPT_0x65
; 0000 033C if(!reg1)
	SBIC 0x1E,5
	RJMP _0x151
; 0000 033D {
; 0000 033E 
; 0000 033F   clearDisplay();
	CALL _clearDisplay
; 0000 0340   chel = 0;
	LDI  R30,LOW(0)
	STS  _chel,R30
; 0000 0341   drawStringZ(0, 0, "", 8, 1, 2);
	CALL SUBOPT_0x4D
	CALL SUBOPT_0x4D
	__POINTW1FN _0x0,73
	CALL SUBOPT_0x66
	CALL SUBOPT_0x64
; 0000 0342   drawStringZ(0, 16, "", 8, 1, 2);
	CALL SUBOPT_0x67
	__POINTW1FN _0x0,82
	CALL SUBOPT_0x66
	CALL SUBOPT_0x5D
; 0000 0343   drawStringZ(0, 40, " ", 8, 1, 2);
	CALL SUBOPT_0x5E
	__POINTW1FN _0x0,91
	CALL SUBOPT_0x66
	CALL SUBOPT_0x64
; 0000 0344   drawCharZ(96, 40, 0x30 + chel, 1, 2);
	CALL SUBOPT_0x68
	CALL SUBOPT_0x69
	CALL SUBOPT_0x4C
; 0000 0345   display(0,0,127,7);
	CALL SUBOPT_0x4D
	CALL SUBOPT_0x4D
	CALL SUBOPT_0x4E
	CALL SUBOPT_0x4F
; 0000 0346   for(o=0;o<128;o++) { zvuk = 1 ; delay_us(200); zvuk = 0; delay_us(200); }
	CLR  R13
	CLR  R14
_0x153:
	CALL SUBOPT_0x54
	BRGE _0x154
	CALL SUBOPT_0x3E
	CALL SUBOPT_0x3F
	RJMP _0x153
_0x154:
; 0000 0347  flag0 = 1;
	SBI  0x1E,7
; 0000 0348  while (flag0 & timer++<650)
_0x15B:
	LDI  R30,0
	SBIC 0x1E,7
	LDI  R30,1
	MOV  R0,R30
	LDI  R26,LOW(_timer)
	LDI  R27,HIGH(_timer)
	CALL __GETD1P_INC
	__SUBD1N -1
	CALL __PUTDP1_DEC
	SBIW R30,1
	SBCI R22,0
	SBCI R23,0
	MOVW R26,R30
	MOVW R24,R22
	__GETD1N 0x28A
	CALL __LTD12
	AND  R30,R0
	BRNE PC+2
	RJMP _0x15D
; 0000 0349   {     if(!dob)
	SBIC 0x9,1
	RJMP _0x15E
; 0000 034A     {
; 0000 034B         delay_ms(200);
	CALL SUBOPT_0x3A
; 0000 034C         while(!dob& time++<65000);
_0x15F:
	CALL SUBOPT_0x3B
	CALL SUBOPT_0x6A
	BRNE _0x15F
; 0000 034D          for(o=0;o<32;o++) { zvuk = 1 ; delay_us(200); zvuk = 0; delay_us(200); }
	CLR  R13
	CLR  R14
_0x163:
	CALL SUBOPT_0x3D
	BRGE _0x164
	CALL SUBOPT_0x3E
	CALL SUBOPT_0x3F
	RJMP _0x163
_0x164:
; 0000 034E         chel++ ;
	LDS  R30,_chel
	SUBI R30,-LOW(1)
	STS  _chel,R30
; 0000 034F          timer = 0;
	CALL SUBOPT_0x39
; 0000 0350     }
; 0000 0351     if(!ubr)
_0x15E:
	SBIC 0x9,2
	RJMP _0x169
; 0000 0352     {
; 0000 0353         delay_ms(200);
	CALL SUBOPT_0x3A
; 0000 0354         while(!ubr & time++<65000) ;
_0x16A:
	CALL SUBOPT_0x40
	CALL SUBOPT_0x6A
	BRNE _0x16A
; 0000 0355         for(o=0;o<32;o++) { zvuk = 1 ; delay_us(200); zvuk = 0; delay_us(200); }
	CLR  R13
	CLR  R14
_0x16E:
	CALL SUBOPT_0x3D
	BRGE _0x16F
	CALL SUBOPT_0x3E
	CALL SUBOPT_0x3F
	RJMP _0x16E
_0x16F:
; 0000 0356         if (time>=65000) flag0 = 0;
	CALL SUBOPT_0x6B
	BRLO _0x174
	CBI  0x1E,7
; 0000 0357         else if(chel != 0) chel--;
	RJMP _0x177
_0x174:
	LDS  R30,_chel
	CPI  R30,0
	BREQ _0x178
	SUBI R30,LOW(1)
	STS  _chel,R30
; 0000 0358          timer = 0;
_0x178:
_0x177:
	CALL SUBOPT_0x39
; 0000 0359     }
; 0000 035A     time = 0;
_0x169:
	LDI  R30,LOW(0)
	STS  _time,R30
	STS  _time+1,R30
; 0000 035B     if(chel > 9) chel = 9;
	LDS  R26,_chel
	CPI  R26,LOW(0xA)
	BRLO _0x179
	LDI  R30,LOW(9)
	STS  _chel,R30
; 0000 035C     drawCharZo(96, 40, 0x30 + chel, 1, 2);
_0x179:
	CALL SUBOPT_0x68
	CALL SUBOPT_0x69
	LDI  R26,LOW(2)
	LDI  R27,0
	CALL _drawCharZo
; 0000 035D     display(96,5,127,7) ;
	CALL SUBOPT_0x6C
	CALL SUBOPT_0x6D
	CALL SUBOPT_0x4E
	CALL SUBOPT_0x4F
; 0000 035E   }
	RJMP _0x15B
_0x15D:
; 0000 035F   clearDisplay();
	CALL SUBOPT_0x5B
; 0000 0360   drawStringZ(0, 0, " ", 8, 1, 2);
	CALL SUBOPT_0x4D
	__POINTW1FN _0x0,91
	CALL SUBOPT_0x66
	CALL SUBOPT_0x64
; 0000 0361   drawCharZ(96, 0, 0x30 + chel, 1, 2);
	CALL SUBOPT_0x6C
	CALL SUBOPT_0x4D
	CALL SUBOPT_0x69
	CALL SUBOPT_0x4C
; 0000 0362   drawStringZ(0, 16, " + ", 9, 1, 2);
	CALL SUBOPT_0x67
	__POINTW1FN _0x0,100
	CALL SUBOPT_0x56
; 0000 0363   drawStringZ(0, 32, " ", 9, 1, 2);
	CALL SUBOPT_0x4D
	CALL SUBOPT_0x6E
	__POINTW1FN _0x0,110
	CALL SUBOPT_0x56
; 0000 0364   drawStringZ(0, 48, ".", 10, 1, 2);
	CALL SUBOPT_0x4D
	CALL SUBOPT_0x6F
	__POINTW1FN _0x0,120
	CALL SUBOPT_0x5C
	CALL SUBOPT_0x5D
; 0000 0365   display(0,0,127,7);
	CALL SUBOPT_0x4D
	CALL SUBOPT_0x4E
	CALL SUBOPT_0x4F
; 0000 0366   for(o=0;o<128;o++) { zvuk = 1 ; delay_us(200); zvuk = 0; delay_us(200); }
	CLR  R13
	CLR  R14
_0x17B:
	CALL SUBOPT_0x54
	BRGE _0x17C
	CALL SUBOPT_0x3E
	CALL SUBOPT_0x3F
	RJMP _0x17B
_0x17C:
; 0000 0367   while(!ubr);
_0x181:
	SBIS 0x9,2
	RJMP _0x181
; 0000 0368   delay_ms(300);
	LDI  R26,LOW(300)
	LDI  R27,HIGH(300)
	CALL _delay_ms
; 0000 0369   paus = 0;
	CALL SUBOPT_0x70
; 0000 036A     while(ubr & paus++<500)
_0x184:
	LDI  R30,0
	SBIC 0x9,2
	LDI  R30,1
	MOV  R0,R30
	CALL SUBOPT_0x71
	ADIW R30,1
	ST   -X,R31
	ST   -X,R30
	SBIW R30,1
	MOVW R26,R30
	LDI  R30,LOW(500)
	LDI  R31,HIGH(500)
	CALL __LTW12U
	AND  R30,R0
	BREQ _0x186
; 0000 036B     {
; 0000 036C         delay_ms(10);
	CALL SUBOPT_0x60
; 0000 036D 
; 0000 036E     }
	RJMP _0x184
_0x186:
; 0000 036F //=========================================
; 0000 0370 //  
; 0000 0371 //=========================================
; 0000 0372         if (!dob)
	SBIC 0x9,1
	RJMP _0x187
; 0000 0373         {
; 0000 0374                 for(o=0;o<128;o++) { zvuk = 1 ; delay_us(200); zvuk = 0; delay_us(200); }
	CLR  R13
	CLR  R14
_0x189:
	CALL SUBOPT_0x54
	BRGE _0x18A
	CALL SUBOPT_0x3E
	CALL SUBOPT_0x3F
	RJMP _0x189
_0x18A:
; 0000 0375          paus = 0;
	CALL SUBOPT_0x70
; 0000 0376           clearDisplay();
	CALL _clearDisplay
; 0000 0377         drawStringZ(0, 16, " ? ", 10, 1, 2);
	CALL SUBOPT_0x67
	__POINTW1FN _0x0,131
	CALL SUBOPT_0x5C
	CALL SUBOPT_0x5D
; 0000 0378         drawStringZ(0, 32, "- ,+ ", 10, 1, 2);
	CALL SUBOPT_0x6E
	__POINTW1FN _0x0,142
	CALL SUBOPT_0x5C
	CALL SUBOPT_0x5D
; 0000 0379         display(0,2,127,5);
	CALL SUBOPT_0x52
	LDI  R26,LOW(5)
	LDI  R27,0
	CALL _display
; 0000 037A         delay_ms(400);
	LDI  R26,LOW(400)
	LDI  R27,HIGH(400)
	CALL _delay_ms
; 0000 037B         while(!dob) #asm("wdr");
_0x18F:
	SBIC 0x9,1
	RJMP _0x191
	wdr
; 0000 037C         while (ubr&&dob&&(paus<100)) {#asm("wdr") delay_ms(100); paus = paus+1;};
	RJMP _0x18F
_0x191:
_0x192:
	SBIS 0x9,2
	RJMP _0x195
	SBIS 0x9,1
	RJMP _0x195
	LDS  R26,_paus
	LDS  R27,_paus+1
	CPI  R26,LOW(0x64)
	LDI  R30,HIGH(0x64)
	CPC  R27,R30
	BRLO _0x196
_0x195:
	RJMP _0x194
_0x196:
	wdr
	LDI  R26,LOW(100)
	LDI  R27,0
	CALL _delay_ms
	LDS  R30,_paus
	LDS  R31,_paus+1
	ADIW R30,1
	CALL SUBOPT_0x72
	RJMP _0x192
_0x194:
; 0000 037D             if(!dob)
	SBIC 0x9,1
	RJMP _0x197
; 0000 037E             {
; 0000 037F //        2
; 0000 0380             bol[chel] = vibor();
	LDS  R30,_chel
	LDI  R31,0
	SUBI R30,LOW(-_bol)
	SBCI R31,HIGH(-_bol)
	PUSH R31
	PUSH R30
	RCALL _vibor
	POP  R26
	POP  R27
	CALL __EEPROMWRB
; 0000 0381             for(o=0;o<128;o++) { zvuk = 1 ; delay_us(200); zvuk = 0; delay_us(200); }
	CLR  R13
	CLR  R14
_0x199:
	CALL SUBOPT_0x54
	BRGE _0x19A
	CALL SUBOPT_0x3E
	CALL SUBOPT_0x3F
	RJMP _0x199
_0x19A:
; 0000 0382             delay_ms(400);
	LDI  R26,LOW(400)
	LDI  R27,HIGH(400)
	CALL _delay_ms
; 0000 0383             seans[chel] = 0;
	CALL SUBOPT_0x73
	LDI  R30,LOW(0)
	CALL __EEPROMWRB
; 0000 0384             };
_0x197:
; 0000 0385 
; 0000 0386         };
_0x187:
; 0000 0387 clearDisplay();
	CALL _clearDisplay
; 0000 0388 seans0=seans[chel];
	CALL SUBOPT_0x73
	CALL __EEPROMRDB
	STS  _seans0,R30
; 0000 0389 bol0 = bol[chel];
	LDS  R26,_chel
	LDI  R27,0
	SUBI R26,LOW(-_bol)
	SBCI R27,HIGH(-_bol)
	CALL __EEPROMRDB
	STS  _bol0,R30
; 0000 038A     if (seans0 == 0)
	LDS  R30,_seans0
	CPI  R30,0
	BRNE _0x19F
; 0000 038B     {
; 0000 038C     n=0;
	CLR  R7
	CLR  R8
; 0000 038D         drawStringZ(0, 0, "   ", 7, 1, 3);
	CALL SUBOPT_0x4D
	CALL SUBOPT_0x4D
	__POINTW1FN _0x0,153
	CALL SUBOPT_0x74
	CALL SUBOPT_0x5A
; 0000 038E         drawStringZ(0, 32, "", 7, 1, 3);
	CALL SUBOPT_0x6E
	__POINTW1FN _0x0,161
	CALL SUBOPT_0x74
	CALL SUBOPT_0x5A
; 0000 038F         display(0,0,127,7);
	CALL SUBOPT_0x4D
	CALL SUBOPT_0x4E
	CALL SUBOPT_0x4F
; 0000 0390         while(n++<20)
_0x1A0:
	CALL SUBOPT_0x75
	BRGE _0x1A2
; 0000 0391         {
; 0000 0392             delay_ms(30);                      //  20 
	CALL SUBOPT_0x76
; 0000 0393             for(o=0;o<96;o++) { zvuk = 1 ; delay_us(300); zvuk = 0; delay_us(300); }
_0x1A4:
	LDI  R30,LOW(96)
	LDI  R31,HIGH(96)
	CP   R13,R30
	CPC  R14,R31
	BRGE _0x1A5
	CALL SUBOPT_0x77
	CALL SUBOPT_0x3F
	RJMP _0x1A4
_0x1A5:
; 0000 0394         }
	RJMP _0x1A0
_0x1A2:
; 0000 0395     n=290;
	LDI  R30,LOW(290)
	LDI  R31,HIGH(290)
	__PUTW1R 7,8
; 0000 0396     }
; 0000 0397 clearDisplay();
_0x19F:
	CALL SUBOPT_0x5B
; 0000 0398 drawStringZ(0, 0, ". No ", 8, 1, 2);
	CALL SUBOPT_0x4D
	__POINTW1FN _0x0,169
	CALL SUBOPT_0x66
	CALL SUBOPT_0x64
; 0000 0399 i = bol0;
	LDS  R3,_bol0
	CLR  R4
; 0000 039A     if(i<10)
	LDI  R30,LOW(10)
	LDI  R31,HIGH(10)
	CP   R3,R30
	CPC  R4,R31
	BRGE _0x1AA
; 0000 039B     {
; 0000 039C         drawCharZ(104,0,'0',1, 2);
	CALL SUBOPT_0x78
	LDI  R30,LOW(48)
	RJMP _0x288
; 0000 039D         drawCharZ(116,0,0x30+i,1, 2);
; 0000 039E     }
; 0000 039F     else if(i < 100)
_0x1AA:
	LDI  R30,LOW(100)
	LDI  R31,HIGH(100)
	CP   R3,R30
	CPC  R4,R31
	BRGE _0x1AC
; 0000 03A0     {
; 0000 03A1         a = i/10;
	__GETW2R 3,4
	LDI  R30,LOW(10)
	LDI  R31,HIGH(10)
	CALL __DIVW21
	STS  _a,R30
	STS  _a+1,R31
; 0000 03A2         i -= a*10;
	LDS  R26,_a
	LDS  R27,_a+1
	LDI  R30,LOW(10)
	CALL __MULB1W2U
	__SUBWRR 3,4,30,31
; 0000 03A3         drawCharZ(104,0,0x30+a,1, 2);
	CALL SUBOPT_0x78
	LDS  R30,_a
	SUBI R30,-LOW(48)
_0x288:
	ST   -Y,R30
	LDI  R30,LOW(1)
	LDI  R31,HIGH(1)
	ST   -Y,R31
	ST   -Y,R30
	CALL SUBOPT_0x4C
; 0000 03A4         drawCharZ(116,0,0x30+i,1, 2);
	LDI  R30,LOW(116)
	LDI  R31,HIGH(116)
	CALL SUBOPT_0x79
	MOV  R30,R3
	SUBI R30,-LOW(48)
	CALL SUBOPT_0x38
	CALL SUBOPT_0x4C
; 0000 03A5     }
; 0000 03A6 
; 0000 03A7 rezh0 = rezhimi[bol0][seans0] ;
_0x1AC:
	CALL SUBOPT_0x7A
	MOVW R26,R30
	LDS  R30,_seans0
	LDI  R31,0
	ADD  R30,R26
	ADC  R31,R27
	LPM  R0,Z
	STS  _rezh0,R0
; 0000 03A8 drawCharZ(0, 16, rezh0+0x30, 1, 2);
	CALL SUBOPT_0x67
	LDS  R30,_rezh0
	SUBI R30,-LOW(48)
	CALL SUBOPT_0x38
	CALL SUBOPT_0x4C
; 0000 03A9 drawStringZ(12, 16, "  ", 7, 1, 2);
	LDI  R30,LOW(12)
	LDI  R31,HIGH(12)
	CALL SUBOPT_0x4A
	__POINTW1FN _0x0,178
	CALL SUBOPT_0x74
	CALL SUBOPT_0x5D
; 0000 03AA drawCharZ(0, 32, chel+0x30, 1, 2);
	CALL SUBOPT_0x6E
	CALL SUBOPT_0x69
	CALL SUBOPT_0x4C
; 0000 03AB drawStringZ(12, 32, "", 7, 1, 2);
	LDI  R30,LOW(12)
	LDI  R31,HIGH(12)
	ST   -Y,R31
	ST   -Y,R30
	CALL SUBOPT_0x6E
	__POINTW1FN _0x0,186
	CALL SUBOPT_0x74
	CALL SUBOPT_0x5D
; 0000 03AC drawCharZ(0, 48, seans0+0x30, 1, 2);
	CALL SUBOPT_0x6F
	LDS  R30,_seans0
	SUBI R30,-LOW(48)
	CALL SUBOPT_0x38
	CALL SUBOPT_0x4C
; 0000 03AD drawStringZ(12, 48, "  ", 7, 1, 2);
	LDI  R30,LOW(12)
	LDI  R31,HIGH(12)
	ST   -Y,R31
	ST   -Y,R30
	CALL SUBOPT_0x6F
	__POINTW1FN _0x0,194
	CALL SUBOPT_0x74
	CALL SUBOPT_0x5D
; 0000 03AE display(0,0,127,7);
	CALL SUBOPT_0x4D
	CALL SUBOPT_0x4E
	CALL SUBOPT_0x4F
; 0000 03AF for(o=0;o<128;o++) { zvuk = 1 ; delay_us(200); zvuk = 0; delay_us(200); }
	CLR  R13
	CLR  R14
_0x1AE:
	CALL SUBOPT_0x54
	BRGE _0x1AF
	CALL SUBOPT_0x3E
	CALL SUBOPT_0x3F
	RJMP _0x1AE
_0x1AF:
; 0000 03B0 delay_ms(1000);
	CALL SUBOPT_0x65
; 0000 03B1 paus = 0;
	CALL SUBOPT_0x70
; 0000 03B2 vrem = 0;
	LDI  R30,LOW(0)
	STS  _vrem,R30
; 0000 03B3 #asm("wdr")
	wdr
; 0000 03B4 PORTC = 0b1000000;
	LDI  R30,LOW(64)
	OUT  0x8,R30
; 0000 03B5 timer = 18600000;
	__GETD1N 0x11BD040
	CALL SUBOPT_0x2C
; 0000 03B6 clearDisplay();
	CALL _clearDisplay
; 0000 03B7 for (n = 0; n < 42; n++) drawChar(6*n+2,0,bolezni[bol0][n]);
	CLR  R7
	CLR  R8
_0x1B5:
	LDI  R30,LOW(42)
	LDI  R31,HIGH(42)
	CP   R7,R30
	CPC  R8,R31
	BRGE _0x1B6
	CALL SUBOPT_0x43
	ADIW R30,2
	CALL SUBOPT_0x79
	LDS  R30,_bol0
	LDI  R26,LOW(103)
	MUL  R30,R26
	MOVW R30,R0
	SUBI R30,LOW(-_bolezni*2)
	SBCI R31,HIGH(-_bolezni*2)
	ADD  R30,R7
	ADC  R31,R8
	LPM  R26,Z
	CALL _drawChar
	CALL SUBOPT_0x46
	RJMP _0x1B5
_0x1B6:
; 0000 03B8 display(0,0,127,1);
	CALL SUBOPT_0x4D
	CALL SUBOPT_0x4D
	CALL SUBOPT_0x4E
	LDI  R26,LOW(1)
	LDI  R27,0
	CALL _display
; 0000 03B9 for(o=0;o<128;o++) { zvuk = 1 ; delay_us(200); zvuk = 0; delay_us(200); }
	CLR  R13
	CLR  R14
_0x1B8:
	CALL SUBOPT_0x54
	BRGE _0x1B9
	CALL SUBOPT_0x3E
	CALL SUBOPT_0x3F
	RJMP _0x1B8
_0x1B9:
; 0000 03BA }
; 0000 03BB else
	RJMP _0x1BE
_0x151:
; 0000 03BC {
; 0000 03BD       clearDisplay();
	CALL SUBOPT_0x5B
; 0000 03BE       drawStringZ(0, 0, "+", 10, 1, 2);
	CALL SUBOPT_0x4D
	__POINTW1FN _0x0,202
	CALL SUBOPT_0x5C
	CALL SUBOPT_0x64
; 0000 03BF       drawStringZ(30, 48, "+", 7, 1, 2);
	CALL SUBOPT_0x63
	CALL SUBOPT_0x6F
	__POINTW1FN _0x0,213
	CALL SUBOPT_0x74
	CALL SUBOPT_0x5D
; 0000 03C0       display(0,0,127,7);
	CALL SUBOPT_0x4D
	CALL SUBOPT_0x4E
	CALL SUBOPT_0x4F
; 0000 03C1 }
_0x1BE:
; 0000 03C2 
; 0000 03C3 
; 0000 03C4 drawStringZ(30, 16, "", 7, 1, 2);
	LDI  R30,LOW(30)
	LDI  R31,HIGH(30)
	CALL SUBOPT_0x4A
	__POINTW1FN _0x0,221
	CALL SUBOPT_0x74
	CALL SUBOPT_0x64
; 0000 03C5 drawStringZ(30, 32, "-()", 7, 1, 2);
	CALL SUBOPT_0x63
	CALL SUBOPT_0x6E
	__POINTW1FN _0x0,229
	CALL SUBOPT_0x74
	CALL SUBOPT_0x64
; 0000 03C6 for(o=0;o<128;o++) { zvuk = 1 ; delay_us(200); zvuk = 0; delay_us(200); }
	CLR  R13
	CLR  R14
_0x1C0:
	CALL SUBOPT_0x54
	BRGE _0x1C1
	CALL SUBOPT_0x3E
	CALL SUBOPT_0x3F
	RJMP _0x1C0
_0x1C1:
; 0000 03C7 display(24,2,127,7);
	CALL SUBOPT_0x7B
	CALL SUBOPT_0x4F
; 0000 03C8 clearDisplay();
	CALL _clearDisplay
; 0000 03C9 while(ubr & dob & paus++<1000)
_0x1C6:
	CALL SUBOPT_0x5F
	BREQ _0x1C8
; 0000 03CA {
; 0000 03CB     delay_ms(10);
	CALL SUBOPT_0x60
; 0000 03CC 
; 0000 03CD }
	RJMP _0x1C6
_0x1C8:
; 0000 03CE delay_ms(50);
	CALL SUBOPT_0x61
; 0000 03CF if(reg1)
	SBIS 0x1E,5
	RJMP _0x1C9
; 0000 03D0 {
; 0000 03D1     if(!fubr)
	SBRC R2,0
	RJMP _0x1CA
; 0000 03D2     {
; 0000 03D3         reg2 = 1;
	SBI  0x1E,6
; 0000 03D4       clearDisplay();
	CALL SUBOPT_0x5B
; 0000 03D5       drawStringZ(0, 0, "SinP 014mS", 10, 1, 2);
	CALL SUBOPT_0x4D
	__POINTW1FN _0x0,237
	CALL SUBOPT_0x5C
	CALL SUBOPT_0x5D
; 0000 03D6       drawChar(0,2,'');
	CALL SUBOPT_0x7C
	LDI  R26,LOW(195)
	CALL SUBOPT_0x7D
; 0000 03D7       drawChar(0,3,'');
	LDI  R30,LOW(3)
	LDI  R31,HIGH(3)
	ST   -Y,R31
	ST   -Y,R30
	LDI  R26,LOW(232)
	CALL SUBOPT_0x7D
; 0000 03D8       drawChar(0,4,'');
	LDI  R30,LOW(4)
	LDI  R31,HIGH(4)
	ST   -Y,R31
	ST   -Y,R30
	LDI  R26,LOW(239)
	CALL SUBOPT_0x7D
; 0000 03D9       drawChar(0,5,'');
	CALL SUBOPT_0x6D
	LDI  R26,LOW(237)
	CALL SUBOPT_0x7D
; 0000 03DA       drawChar(0,6,'');
	LDI  R30,LOW(6)
	LDI  R31,HIGH(6)
	ST   -Y,R31
	ST   -Y,R30
	LDI  R26,LOW(238)
	CALL SUBOPT_0x7D
; 0000 03DB       drawChar(0,7,'');
	LDI  R30,LOW(7)
	LDI  R31,HIGH(7)
	ST   -Y,R31
	ST   -Y,R30
	LDI  R26,LOW(231)
	CALL SUBOPT_0x7D
; 0000 03DC       display(0,0,127,7);
	CALL SUBOPT_0x4D
	CALL SUBOPT_0x4E
	CALL SUBOPT_0x4F
; 0000 03DD       period = 64736;
	LDI  R30,LOW(64736)
	LDI  R31,HIGH(64736)
	CALL SUBOPT_0x1B
; 0000 03DE       timer = 18000000;
	__GETD1N 0x112A880
	CALL SUBOPT_0x2C
; 0000 03DF       TIMSK2=(0<<OCIE2B) | (0<<OCIE2A) | (1<<TOIE2);
	LDI  R30,LOW(1)
	STS  112,R30
; 0000 03E0     }
; 0000 03E1     else
	RJMP _0x1CD
_0x1CA:
; 0000 03E2     {
; 0000 03E3       fubr = 0;
	CLT
	BLD  R2,0
; 0000 03E4       clearDisplay();
	CALL _clearDisplay
; 0000 03E5       timer = 3300000;
	CALL SUBOPT_0x7E
; 0000 03E6       drawStringZ(0, 0, "", 9, 1, 2);
	CALL SUBOPT_0x4D
	CALL SUBOPT_0x4D
	__POINTW1FN _0x0,248
	CALL SUBOPT_0x56
; 0000 03E7       drawStringZ(0, 16, "", 7, 1, 2);
	CALL SUBOPT_0x67
	__POINTW1FN _0x0,258
	CALL SUBOPT_0x74
	CALL SUBOPT_0x64
; 0000 03E8       timeZ(30,40,timer/10000,3);
	CALL SUBOPT_0x63
	CALL SUBOPT_0x5E
	CALL SUBOPT_0x7F
; 0000 03E9       display(0,0,127,7);
	CALL SUBOPT_0x4D
	CALL SUBOPT_0x4E
	CALL SUBOPT_0x4F
; 0000 03EA       for(o=0;o<128;o++) { zvuk = 1 ; delay_us(200); zvuk = 0; delay_us(200); }
	CLR  R13
	CLR  R14
_0x1CF:
	CALL SUBOPT_0x54
	BRGE _0x1D0
	CALL SUBOPT_0x3E
	CALL SUBOPT_0x3F
	RJMP _0x1CF
_0x1D0:
; 0000 03EB       flag0 = 1;
	SBI  0x1E,7
; 0000 03EC       paus = 150;
	CALL SUBOPT_0x80
; 0000 03ED      while (flag0 & --paus > 0)
_0x1D7:
	LDI  R30,0
	SBIC 0x1E,7
	LDI  R30,1
	MOV  R0,R30
	CALL SUBOPT_0x71
	SBIW R30,1
	ST   -X,R31
	ST   -X,R30
	MOVW R26,R30
	LDI  R30,LOW(0)
	LDI  R31,HIGH(0)
	CALL __GTW12U
	AND  R30,R0
	BRNE PC+2
	RJMP _0x1D9
; 0000 03EE       {
; 0000 03EF         if(!dob)
	SBIC 0x9,1
	RJMP _0x1DA
; 0000 03F0         {
; 0000 03F1             delay_ms(200);
	CALL SUBOPT_0x3A
; 0000 03F2             paus = 150;
	CALL SUBOPT_0x80
; 0000 03F3             while(!dob& time++<65000);
_0x1DB:
	CALL SUBOPT_0x3B
	CALL SUBOPT_0x6A
	BRNE _0x1DB
; 0000 03F4             for(o=0;o<32;o++) { zvuk = 1 ; delay_us(200); zvuk = 0; delay_us(200); }
	CLR  R13
	CLR  R14
_0x1DF:
	CALL SUBOPT_0x3D
	BRGE _0x1E0
	CALL SUBOPT_0x3E
	CALL SUBOPT_0x3F
	RJMP _0x1DF
_0x1E0:
; 0000 03F5             timer += 3000000;
	CALL SUBOPT_0x1A
	__ADDD1N 3000000
	CALL SUBOPT_0x2C
; 0000 03F6         }
; 0000 03F7         if(!ubr)
_0x1DA:
	SBIC 0x9,2
	RJMP _0x1E5
; 0000 03F8         {
; 0000 03F9             delay_ms(200);
	CALL SUBOPT_0x3A
; 0000 03FA             paus = 150;
	CALL SUBOPT_0x80
; 0000 03FB             while(!ubr & time++<65000) ;
_0x1E6:
	CALL SUBOPT_0x40
	CALL SUBOPT_0x6A
	BRNE _0x1E6
; 0000 03FC             for(o=0;o<32;o++) { zvuk = 1 ; delay_us(200); zvuk = 0; delay_us(200); }
	CLR  R13
	CLR  R14
_0x1EA:
	CALL SUBOPT_0x3D
	BRGE _0x1EB
	CALL SUBOPT_0x3E
	CALL SUBOPT_0x3F
	RJMP _0x1EA
_0x1EB:
; 0000 03FD             if (time>=65000) flag0 = 0;
	CALL SUBOPT_0x6B
	BRLO _0x1F0
	CBI  0x1E,7
; 0000 03FE             else timer -= 3000000;
	RJMP _0x1F3
_0x1F0:
	CALL SUBOPT_0x1A
	__SUBD1N 3000000
	CALL SUBOPT_0x2C
; 0000 03FF         }
_0x1F3:
; 0000 0400         time = 0;
_0x1E5:
	LDI  R30,LOW(0)
	STS  _time,R30
	STS  _time+1,R30
; 0000 0401         if(timer < 3300000) timer = 3300000;
	CALL SUBOPT_0x19
	__CPD2N 0x325AA0
	BRGE _0x1F4
	CALL SUBOPT_0x7E
; 0000 0402         if(timer > 57300000) timer = 57300000;
_0x1F4:
	CALL SUBOPT_0x19
	__CPD2N 0x36A5421
	BRLT _0x1F5
	__GETD1N 0x36A5420
	CALL SUBOPT_0x2C
; 0000 0403         clearDisplay();
_0x1F5:
	CALL _clearDisplay
; 0000 0404         timeZ(30,40,timer/10000,3);
	CALL SUBOPT_0x63
	CALL SUBOPT_0x5E
	CALL SUBOPT_0x7F
; 0000 0405         display(0,5,127,7);
	CALL SUBOPT_0x6D
	CALL SUBOPT_0x4E
	CALL SUBOPT_0x4F
; 0000 0406 
; 0000 0407       }
	RJMP _0x1D7
_0x1D9:
; 0000 0408       clearDisplay();
	CALL SUBOPT_0x5B
; 0000 0409       drawStringZ(0, 0, "77 0.5mS", 10, 1, 2);
	CALL SUBOPT_0x4D
	__POINTW1FN _0x0,266
	CALL SUBOPT_0x5C
	CALL SUBOPT_0x5D
; 0000 040A       drawChar(0,2,'');
	CALL SUBOPT_0x7C
	LDI  R26,LOW(210)
	CALL SUBOPT_0x7D
; 0000 040B       drawChar(0,3,'');
	LDI  R30,LOW(3)
	LDI  R31,HIGH(3)
	ST   -Y,R31
	ST   -Y,R30
	LDI  R26,LOW(240)
	CALL SUBOPT_0x7D
; 0000 040C       drawChar(0,4,'');
	LDI  R30,LOW(4)
	LDI  R31,HIGH(4)
	ST   -Y,R31
	ST   -Y,R30
	LDI  R26,LOW(224)
	CALL SUBOPT_0x7D
; 0000 040D       drawChar(0,5,'');
	CALL SUBOPT_0x6D
	LDI  R26,LOW(237)
	CALL SUBOPT_0x7D
; 0000 040E       drawChar(0,6,'');
	LDI  R30,LOW(6)
	LDI  R31,HIGH(6)
	ST   -Y,R31
	ST   -Y,R30
	LDI  R26,LOW(241)
	CALL SUBOPT_0x7D
; 0000 040F       drawChar(0,7,'');
	LDI  R30,LOW(7)
	LDI  R31,HIGH(7)
	ST   -Y,R31
	ST   -Y,R30
	LDI  R26,LOW(224)
	CALL SUBOPT_0x7D
; 0000 0410       display(0,0,127,7);
	CALL SUBOPT_0x4D
	CALL SUBOPT_0x4E
	CALL SUBOPT_0x4F
; 0000 0411     }
_0x1CD:
; 0000 0412 }
; 0000 0413 for(o=0;o<32;o++) { zvuk = 1 ; delay_us(200); zvuk = 0; delay_us(200); }
_0x1C9:
	CLR  R13
	CLR  R14
_0x1F7:
	CALL SUBOPT_0x3D
	BRGE _0x1F8
	CALL SUBOPT_0x3E
	CALL SUBOPT_0x3F
	RJMP _0x1F7
_0x1F8:
; 0000 0414 if(paus>1000) timer = 0;
	LDS  R26,_paus
	LDS  R27,_paus+1
	CPI  R26,LOW(0x3E9)
	LDI  R30,HIGH(0x3E9)
	CPC  R27,R30
	BRLO _0x1FD
	CALL SUBOPT_0x39
; 0000 0415 paus=0;
_0x1FD:
	CALL SUBOPT_0x70
; 0000 0416 EICRA=(0<<ISC11) | (0<<ISC10) | (0<<ISC01) | (0<<ISC00);
	LDI  R30,LOW(0)
	STS  105,R30
; 0000 0417 EIMSK=(0<<INT1) | (0<<INT0);
	OUT  0x1D,R30
; 0000 0418 EIFR=(0<<INTF1) | (0<<INTF0);
	OUT  0x1C,R30
; 0000 0419 TIMSK1=(0<<ICIE1) | (0<<OCIE1B) | (0<<OCIE1A) | (1<<TOIE1);
	LDI  R30,LOW(1)
	STS  111,R30
; 0000 041A drawStringZ(30, 16, "I=", 2, 1, 2);
	LDI  R30,LOW(30)
	LDI  R31,HIGH(30)
	CALL SUBOPT_0x4A
	__POINTW1FN _0x0,277
	CALL SUBOPT_0x81
	CALL SUBOPT_0x64
; 0000 041B drawStringZ(102, 16, "mA", 2, 1, 2);
	LDI  R30,LOW(102)
	LDI  R31,HIGH(102)
	CALL SUBOPT_0x4A
	__POINTW1FN _0x0,280
	CALL SUBOPT_0x81
	CALL SUBOPT_0x64
; 0000 041C 
; 0000 041D while(1)
_0x1FE:
; 0000 041E {
; 0000 041F 
; 0000 0420 
; 0000 0421         timeZ(30,40,timer/10000,3);
	CALL SUBOPT_0x63
	CALL SUBOPT_0x5E
	CALL SUBOPT_0x82
	ST   -Y,R31
	ST   -Y,R30
	LDI  R26,LOW(3)
	LDI  R27,0
	CALL _timeZ
; 0000 0422         ZnachZ(54,16,tok,2) ;
	LDI  R30,LOW(54)
	LDI  R31,HIGH(54)
	CALL SUBOPT_0x4A
	CALL SUBOPT_0x58
	LDI  R26,LOW(2)
	LDI  R27,0
	CALL _ZnachZ
; 0000 0423         if (reg2)
	SBIS 0x1E,6
	RJMP _0x201
; 0000 0424         {
; 0000 0425             ZnachZo(60,0,(65535-period)/65,2);
	LDI  R30,LOW(60)
	LDI  R31,HIGH(60)
	CALL SUBOPT_0x79
	CALL SUBOPT_0x1D
	LDI  R30,LOW(65535)
	LDI  R31,HIGH(65535)
	SUB  R30,R26
	SBC  R31,R27
	MOVW R26,R30
	LDI  R30,LOW(65)
	LDI  R31,HIGH(65)
	CALL __DIVW21U
	ST   -Y,R31
	ST   -Y,R30
	LDI  R26,LOW(2)
	LDI  R27,0
	CALL _ZnachZo
; 0000 0426             timer = timer - 5000;
	CALL SUBOPT_0x1A
	__SUBD1N 5000
	CALL SUBOPT_0x2C
; 0000 0427             display(60,0,96,1);
	LDI  R30,LOW(60)
	LDI  R31,HIGH(60)
	CALL SUBOPT_0x79
	CALL SUBOPT_0x6C
	LDI  R26,LOW(1)
	LDI  R27,0
	CALL _display
; 0000 0428         }
; 0000 0429         if(tok0 > (tok + 20))
_0x201:
	LDS  R30,_tok
	LDS  R31,_tok+1
	ADIW R30,20
	CALL SUBOPT_0x83
	CP   R30,R26
	CPC  R31,R27
	BRSH _0x202
; 0000 042A         {
; 0000 042B             if(tok1++>2)
	LDS  R26,_tok1
	SUBI R26,-LOW(1)
	STS  _tok1,R26
	SUBI R26,LOW(1)
	CPI  R26,LOW(0x3)
	BRLO _0x203
; 0000 042C             {
; 0000 042D 
; 0000 042E                 fillRect(54,16,48,16,2);
	LDI  R30,LOW(54)
	LDI  R31,HIGH(54)
	CALL SUBOPT_0x4A
	LDI  R30,LOW(48)
	LDI  R31,HIGH(48)
	CALL SUBOPT_0x4A
	LDI  R26,LOW(2)
	LDI  R27,0
	CALL _fillRect
; 0000 042F                 for(o=0;o<128;o++) { zvuk = 1 ; delay_us(200); zvuk = 0; delay_us(200); }
	CLR  R13
	CLR  R14
_0x205:
	CALL SUBOPT_0x54
	BRGE _0x206
	CALL SUBOPT_0x3E
	CALL SUBOPT_0x3F
	RJMP _0x205
_0x206:
; 0000 0430                 delay_ms(50);
	CALL SUBOPT_0x61
; 0000 0431                 for(o=0;o<128;o++) { zvuk = 1 ; delay_us(200); zvuk = 0; delay_us(200); }
	CLR  R13
	CLR  R14
_0x20C:
	CALL SUBOPT_0x54
	BRGE _0x20D
	CALL SUBOPT_0x3E
	CALL SUBOPT_0x3F
	RJMP _0x20C
_0x20D:
; 0000 0432 
; 0000 0433             }
; 0000 0434         }
_0x203:
; 0000 0435         else tok1 = 0;
	RJMP _0x212
_0x202:
	LDI  R30,LOW(0)
	STS  _tok1,R30
; 0000 0436         display(24,2,127,7);
_0x212:
	CALL SUBOPT_0x7B
	CALL SUBOPT_0x4F
; 0000 0437         time = timer / 10000;
	CALL SUBOPT_0x82
	STS  _time,R30
	STS  _time+1,R31
; 0000 0438         mod = 20;
	LDI  R30,LOW(20)
	LDI  R31,HIGH(20)
	STS  _mod,R30
	STS  _mod+1,R31
; 0000 0439        delay_ms(450);
	LDI  R26,LOW(450)
	LDI  R27,HIGH(450)
	CALL _delay_ms
; 0000 043A        if(!dob)
	SBIC 0x9,1
	RJMP _0x213
; 0000 043B        {
; 0000 043C             if(!ubr)
	SBIC 0x9,2
	RJMP _0x214
; 0000 043D             {
; 0000 043E                 if (paus++ > 5)
	CALL SUBOPT_0x71
	ADIW R30,1
	ST   -X,R31
	ST   -X,R30
	SBIW R30,7
	BRLO _0x215
; 0000 043F                 {
; 0000 0440                     clearDisplay();
	CALL SUBOPT_0x5B
; 0000 0441                     drawStringZ(0, 20, "", 10, 1, 2);
	LDI  R30,LOW(20)
	LDI  R31,HIGH(20)
	ST   -Y,R31
	ST   -Y,R30
	__POINTW1FN _0x0,283
	CALL SUBOPT_0x5C
	CALL SUBOPT_0x5D
; 0000 0442                     drawStringZ(0, 40, " ! ", 7, 1, 3);
	CALL SUBOPT_0x5E
	__POINTW1FN _0x0,294
	CALL SUBOPT_0x74
	CALL SUBOPT_0x5A
; 0000 0443                     display(0,2,127,7);
	CALL SUBOPT_0x52
	CALL SUBOPT_0x4F
; 0000 0444                     delay_ms(1000);
	CALL SUBOPT_0x65
; 0000 0445                     timer = 0;
	CALL SUBOPT_0x39
; 0000 0446                 }
; 0000 0447             }
_0x215:
; 0000 0448             else
	RJMP _0x216
_0x214:
; 0000 0449             if(tok0 < 1000)
	CALL SUBOPT_0x83
	CPI  R26,LOW(0x3E8)
	LDI  R30,HIGH(0x3E8)
	CPC  R27,R30
	BRSH _0x217
; 0000 044A             {
; 0000 044B                 for(o=0;o<32;o++) { zvuk = 1 ; delay_us(200); zvuk = 0; delay_us(200); }
	CLR  R13
	CLR  R14
_0x219:
	CALL SUBOPT_0x3D
	BRGE _0x21A
	CALL SUBOPT_0x3E
	CALL SUBOPT_0x3F
	RJMP _0x219
_0x21A:
; 0000 044C                 tok0+=10;
	CALL SUBOPT_0x84
	ADIW R30,10
	CALL SUBOPT_0x85
; 0000 044D             }
; 0000 044E        }
_0x217:
_0x216:
; 0000 044F        if(!ubr | timer < 300000)
_0x213:
	CALL SUBOPT_0x40
	CALL SUBOPT_0x19
	__GETD1N 0x493E0
	CALL __LTD12
	OR   R30,R0
	BRNE PC+2
	RJMP _0x21F
; 0000 0450        {
; 0000 0451             if(!reg1) if(!fl4)
	SBIC 0x1E,5
	RJMP _0x220
	SBIC 0x1E,3
	RJMP _0x221
; 0000 0452             if( timer < 300000)
	CALL SUBOPT_0x19
	__CPD2N 0x493E0
	BRGE _0x222
; 0000 0453             {
; 0000 0454                 fl4 = 1;
	SBI  0x1E,3
; 0000 0455                 if (timer > 0)
	CALL SUBOPT_0x19
	CALL __CPD02
	BRGE _0x225
; 0000 0456                 {
; 0000 0457                     if(seans0 == 9)
	LDS  R26,_seans0
	CPI  R26,LOW(0x9)
	BRNE _0x226
; 0000 0458                     {
; 0000 0459                         n = 0;
	CLR  R7
	CLR  R8
; 0000 045A                         while(n++<20)
_0x227:
	CALL SUBOPT_0x75
	BRGE _0x229
; 0000 045B                         {
; 0000 045C                             delay_ms(30);                      //  20 
	CALL SUBOPT_0x76
; 0000 045D                             for(o=0;o<96;o++) { zvuk = 1 ; delay_us(300); zvuk = 0; delay_us(300); }
_0x22B:
	LDI  R30,LOW(96)
	LDI  R31,HIGH(96)
	CP   R13,R30
	CPC  R14,R31
	BRGE _0x22C
	CALL SUBOPT_0x77
	CALL SUBOPT_0x3F
	RJMP _0x22B
_0x22C:
; 0000 045E                         }
	RJMP _0x227
_0x229:
; 0000 045F                         seans[chel] = 0;
	CALL SUBOPT_0x73
	LDI  R30,LOW(0)
	RJMP _0x289
; 0000 0460                     }
; 0000 0461                     else  seans[chel] = seans[chel] + 1;
_0x226:
	LDS  R30,_chel
	LDI  R31,0
	SUBI R30,LOW(-_seans)
	SBCI R31,HIGH(-_seans)
	MOVW R0,R30
	CALL SUBOPT_0x73
	CALL __EEPROMRDB
	SUBI R30,-LOW(1)
	MOVW R26,R0
_0x289:
	CALL __EEPROMWRB
; 0000 0462                 }
; 0000 0463             };
_0x225:
_0x222:
_0x221:
_0x220:
; 0000 0464            if(tok0 > 0)
	CALL SUBOPT_0x83
	CALL __CPW02
	BRSH _0x232
; 0000 0465            {
; 0000 0466                 if(tok0 < 20) tok0 = 0; else tok0-=10;
	CALL SUBOPT_0x83
	SBIW R26,20
	BRSH _0x233
	CALL SUBOPT_0x55
	RJMP _0x234
_0x233:
	CALL SUBOPT_0x84
	SBIW R30,10
	CALL SUBOPT_0x85
; 0000 0467                 for(o=0;o<32;o++) { zvuk = 1 ; delay_us(200); zvuk = 0; delay_us(200); }
_0x234:
	CLR  R13
	CLR  R14
_0x236:
	CALL SUBOPT_0x3D
	BRGE _0x237
	CALL SUBOPT_0x3E
	CALL SUBOPT_0x3F
	RJMP _0x236
_0x237:
; 0000 0468 
; 0000 0469            }
; 0000 046A        }
_0x232:
; 0000 046B        if (!fl3)
_0x21F:
	SBIC 0x1E,2
	RJMP _0x23C
; 0000 046C        {
; 0000 046D             if(!reg1) if (timer < 9000000)
	SBIC 0x1E,5
	RJMP _0x23D
	CALL SUBOPT_0x19
	__CPD2N 0x895440
	BRLT PC+2
	RJMP _0x23E
; 0000 046E             {
; 0000 046F                 if (rezh0 > 4) dn_reg = tok0/4; else  dn_reg = 0;
	LDS  R26,_rezh0
	CPI  R26,LOW(0x5)
	BRLO _0x23F
	CALL SUBOPT_0x84
	CALL __LSRW2
	STS  _dn_reg,R30
	STS  _dn_reg+1,R31
	RJMP _0x240
_0x23F:
	LDI  R30,LOW(0)
	STS  _dn_reg,R30
	STS  _dn_reg+1,R30
; 0000 0470                 if (rezhimi[bol0][seans0 + 10] > 4) up_reg = tok0/4;  else  up_reg = 0;
_0x240:
	CALL SUBOPT_0x7A
	CALL SUBOPT_0x86
	LPM  R26,Z
	CPI  R26,LOW(0x5)
	BRLO _0x241
	CALL SUBOPT_0x84
	CALL __LSRW2
	STS  _up_reg,R30
	STS  _up_reg+1,R31
	RJMP _0x242
_0x241:
	LDI  R30,LOW(0)
	STS  _up_reg,R30
	STS  _up_reg+1,R30
; 0000 0471                 up_reg =  tok0 + up_reg - dn_reg;
_0x242:
	LDS  R30,_up_reg
	LDS  R31,_up_reg+1
	CALL SUBOPT_0x83
	ADD  R30,R26
	ADC  R31,R27
	LDS  R26,_dn_reg
	LDS  R27,_dn_reg+1
	SUB  R30,R26
	SBC  R31,R27
	STS  _up_reg,R30
	STS  _up_reg+1,R31
; 0000 0472                 tok0 = 0;
	CALL SUBOPT_0x55
; 0000 0473                 n = 0;
	CLR  R7
	CLR  R8
; 0000 0474                 while(n++<3)
_0x243:
	__GETW1R 7,8
	ADIW R30,1
	__PUTW1R 7,8
	SBIW R30,4
	BRGE _0x245
; 0000 0475                 {
; 0000 0476                     delay_ms(100);                      //  3 
	LDI  R26,LOW(100)
	LDI  R27,0
	CALL _delay_ms
; 0000 0477                     for(o=0;o<300;o++) { zvuk = 1 ; delay_us(300); zvuk = 0; delay_us(300); }
	CLR  R13
	CLR  R14
_0x247:
	LDI  R30,LOW(300)
	LDI  R31,HIGH(300)
	CP   R13,R30
	CPC  R14,R31
	BRGE _0x248
	CALL SUBOPT_0x77
	CALL SUBOPT_0x3F
	RJMP _0x247
_0x248:
; 0000 0478                 }
	RJMP _0x243
_0x245:
; 0000 0479                 rezh0 = rezhimi[bol0][seans0 + 10];
	CALL SUBOPT_0x7A
	CALL SUBOPT_0x86
	LPM  R0,Z
	STS  _rezh0,R0
; 0000 047A                 tok0 = up_reg;
	LDS  R30,_up_reg
	LDS  R31,_up_reg+1
	CALL SUBOPT_0x85
; 0000 047B                 drawCharZ(0, 16, rezh0+0x30, 1, 2);
	CALL SUBOPT_0x67
	LDS  R30,_rezh0
	SUBI R30,-LOW(48)
	CALL SUBOPT_0x38
	CALL SUBOPT_0x4C
; 0000 047C                 drawCharZ(12, 16, '', 1, 2);
	LDI  R30,LOW(12)
	LDI  R31,HIGH(12)
	CALL SUBOPT_0x4A
	LDI  R30,LOW(240)
	CALL SUBOPT_0x38
	CALL SUBOPT_0x4C
; 0000 047D                 display(0,2,23,3);
	CALL SUBOPT_0x4D
	CALL SUBOPT_0x7C
	LDI  R30,LOW(23)
	LDI  R31,HIGH(23)
	ST   -Y,R31
	ST   -Y,R30
	LDI  R26,LOW(3)
	LDI  R27,0
	CALL _display
; 0000 047E                 fl3 = 1;
	SBI  0x1E,2
; 0000 047F             }
; 0000 0480        }
_0x23E:
_0x23D:
; 0000 0481        if (timer <= 0)
_0x23C:
	CALL SUBOPT_0x19
	CALL __CPD02
	BRGE PC+2
	RJMP _0x24F
; 0000 0482        {
; 0000 0483             tok0 = 0;
	CALL SUBOPT_0x55
; 0000 0484             OCR0A=0x00;
	CALL SUBOPT_0x53
; 0000 0485             OCR0B=0x00;
; 0000 0486             bufer[0] = 0x80;
	LDI  R30,LOW(128)
	STS  _bufer,R30
; 0000 0487             bufer[1] = 0xAE;
	LDI  R30,LOW(174)
	__PUTB1MN _bufer,1
; 0000 0488             twi_master_trans(0x3C, bufer, 2, rx_data, 0) ;
	CALL SUBOPT_0x13
	LDI  R30,LOW(2)
	CALL SUBOPT_0x14
; 0000 0489             #asm("cli")                     //    
	cli
; 0000 048A             for(o=0;o<128;o++) { zvuk = 1 ; delay_us(200); zvuk = 0; delay_us(200); }
	CLR  R13
	CLR  R14
_0x251:
	CALL SUBOPT_0x54
	BRGE _0x252
	CALL SUBOPT_0x3E
	CALL SUBOPT_0x3F
	RJMP _0x251
_0x252:
; 0000 048B             delay_ms(50);
	CALL SUBOPT_0x61
; 0000 048C             for(o=0;o<128;o++) { zvuk = 1 ; delay_us(200); zvuk = 0; delay_us(200); }
	CLR  R13
	CLR  R14
_0x258:
	CALL SUBOPT_0x54
	BRGE _0x259
	CALL SUBOPT_0x3E
	CALL SUBOPT_0x3F
	RJMP _0x258
_0x259:
; 0000 048D             delay_ms(50);
	CALL SUBOPT_0x61
; 0000 048E             for(o=0;o<128;o++) { zvuk = 1 ; delay_us(200); zvuk = 0; delay_us(200); }
	CLR  R13
	CLR  R14
_0x25F:
	CALL SUBOPT_0x54
	BRGE _0x260
	CALL SUBOPT_0x3E
	CALL SUBOPT_0x3F
	RJMP _0x25F
_0x260:
; 0000 048F             delay_ms(50);
	CALL SUBOPT_0x61
; 0000 0490             for(o=0;o<128;o++) { zvuk = 1 ; delay_us(200); zvuk = 0; delay_us(200); }
	CLR  R13
	CLR  R14
_0x266:
	CALL SUBOPT_0x54
	BRGE _0x267
	CALL SUBOPT_0x3E
	CALL SUBOPT_0x3F
	RJMP _0x266
_0x267:
; 0000 0491             delay_ms(50);
	CALL SUBOPT_0x61
; 0000 0492             for(o=0;o<128;o++) { zvuk = 1 ; delay_us(200); zvuk = 0; delay_us(200); }
	CLR  R13
	CLR  R14
_0x26D:
	CALL SUBOPT_0x54
	BRGE _0x26E
	CALL SUBOPT_0x3E
	CALL SUBOPT_0x3F
	RJMP _0x26D
_0x26E:
; 0000 0493             OCR0A=0x00;
	CALL SUBOPT_0x53
; 0000 0494             OCR0B=0x00;
; 0000 0495             TWCR = 0;
	LDI  R30,LOW(0)
	STS  188,R30
; 0000 0496             DDRC=DDRB=DDRD=0;
	OUT  0xA,R30
	OUT  0x4,R30
	OUT  0x7,R30
; 0000 0497             PORTC=0;
	OUT  0x8,R30
; 0000 0498             PORTD=0;
	OUT  0xB,R30
; 0000 0499             PORTD.6=1;
	SBI  0xB,6
; 0000 049A             PORTB=0;
	OUT  0x5,R30
; 0000 049B             ASSR=(0<<EXCLK) | (0<<AS2);
	STS  182,R30
; 0000 049C         TCCR2A=(0<<COM2A1) | (0<<COM2A0) | (0<<COM2B1) | (0<<COM2B0) | (0<<WGM21) | (0<<WGM20);
	STS  176,R30
; 0000 049D         TCCR2B=(0<<WGM22) | (0<<CS22) | (0<<CS21) | (0<<CS20);
	STS  177,R30
; 0000 049E         MCUSR &= ~(1<<WDRF);
	IN   R30,0x34
	ANDI R30,0XF7
	OUT  0x34,R30
; 0000 049F     /* Write logical one to WDCE and WDE */
; 0000 04A0     /* Keep old prescaler setting to prevent unintentional
; 0000 04A1     time-out */
; 0000 04A2         WDTCSR |= (1<<WDCE) | (1<<WDE);
	LDS  R30,96
	ORI  R30,LOW(0x18)
	STS  96,R30
; 0000 04A3     /* Turn off WDT */
; 0000 04A4         WDTCSR = 0x00;
	LDI  R30,LOW(0)
	STS  96,R30
; 0000 04A5             ADMUX=00;
	STS  124,R30
; 0000 04A6             ADCSRA=0x00;
	STS  122,R30
; 0000 04A7             MCUCR = 0x10;
	LDI  R30,LOW(16)
	OUT  0x35,R30
; 0000 04A8 
; 0000 04A9             sleep_enable(); //  
	RCALL _sleep_enable
; 0000 04AA             powerdown();
	CALL _powerdown
; 0000 04AB             //       
; 0000 04AC        }
; 0000 04AD 
; 0000 04AE }
_0x24F:
	RJMP _0x1FE
; 0000 04AF 
; 0000 04B0 }
_0x275:
	RJMP _0x275
; .FEND
	#ifndef __SLEEP_DEFINED__
	#define __SLEEP_DEFINED__
	.EQU __se_bit=0x01
	.EQU __sm_mask=0x0E
	.EQU __sm_adc_noise_red=0x02
	.EQU __sm_powerdown=0x04
	.EQU __sm_powersave=0x06
	.EQU __sm_standby=0x0C
	.EQU __sm_ext_standby=0x0E
	.SET power_ctrl_reg=smcr
	#endif

	.CSEG
_sleep_enable:
; .FSTART _sleep_enable
   in   r30,power_ctrl_reg
   sbr  r30,__se_bit
   out  power_ctrl_reg,r30
	RET
; .FEND
_powerdown:
; .FSTART _powerdown
   in   r30,power_ctrl_reg
   cbr  r30,__sm_mask
   sbr  r30,__sm_powerdown
   out  power_ctrl_reg,r30
   in   r30,sreg
   sei
   sleep
   out  sreg,r30
	RET
; .FEND
	#ifndef __SLEEP_DEFINED__
	#define __SLEEP_DEFINED__
	.EQU __se_bit=0x01
	.EQU __sm_mask=0x0E
	.EQU __sm_adc_noise_red=0x02
	.EQU __sm_powerdown=0x04
	.EQU __sm_powersave=0x06
	.EQU __sm_standby=0x0C
	.EQU __sm_ext_standby=0x0E
	.SET power_ctrl_reg=smcr
	#endif

	.DSEG

	.CSEG
_twi_master_init:
; .FSTART _twi_master_init
	ST   -Y,R27
	ST   -Y,R26
	ST   -Y,R17
	SET
	BLD  R2,2
	LDI  R30,LOW(7)
	STS  _twi_result,R30
	LDI  R30,LOW(0)
	STS  _twi_slave_rx_handler_G101,R30
	STS  _twi_slave_rx_handler_G101+1,R30
	STS  _twi_slave_tx_handler_G101,R30
	STS  _twi_slave_tx_handler_G101+1,R30
	SBI  0x8,4
	SBI  0x8,5
	STS  188,R30
	LDS  R30,185
	ANDI R30,LOW(0xFC)
	STS  185,R30
	LDD  R30,Y+1
	LDD  R31,Y+1+1
	LDI  R26,LOW(8000)
	LDI  R27,HIGH(8000)
	CALL __DIVW21U
	MOV  R17,R30
	CPI  R17,8
	BRLO _0x2020004
	SUBI R17,LOW(8)
_0x2020004:
	STS  184,R17
	LDS  R30,188
	ANDI R30,LOW(0x80)
	ORI  R30,LOW(0x45)
	STS  188,R30
	LDD  R17,Y+0
	ADIW R28,3
	RET
; .FEND
_twi_master_trans:
; .FSTART _twi_master_trans
	ST   -Y,R26
	SBIW R28,4
	SBRS R2,2
	RJMP _0x2020005
	LDD  R30,Y+10
	LSL  R30
	STS  _slave_address_G101,R30
	LDD  R30,Y+8
	LDD  R31,Y+8+1
	STS  _twi_tx_buffer_G101,R30
	STS  _twi_tx_buffer_G101+1,R31
	LDI  R30,LOW(0)
	STS  _twi_tx_index,R30
	LDD  R30,Y+7
	STS  _bytes_to_tx_G101,R30
	LDD  R30,Y+5
	LDD  R31,Y+5+1
	STS  _twi_rx_buffer_G101,R30
	STS  _twi_rx_buffer_G101+1,R31
	LDI  R30,LOW(0)
	STS  _twi_rx_index,R30
	LDD  R30,Y+4
	STS  _bytes_to_rx_G101,R30
	LDI  R30,LOW(6)
	STS  _twi_result,R30
	sei
	LDD  R30,Y+7
	CPI  R30,0
	BREQ _0x2020006
	LDD  R30,Y+8
	LDD  R31,Y+8+1
	SBIW R30,0
	BRNE _0x2020007
	RJMP _0x2060002
_0x2020007:
	LDD  R30,Y+4
	CPI  R30,0
	BREQ _0x2020009
	LDD  R26,Y+5
	LDD  R27,Y+5+1
	SBIW R26,0
	BREQ _0x202000A
_0x2020009:
	RJMP _0x2020008
_0x202000A:
	RJMP _0x2060002
_0x2020008:
	SET
	RJMP _0x2020065
_0x2020006:
	LDD  R30,Y+4
	CPI  R30,0
	BREQ _0x202000C
	LDD  R30,Y+5
	LDD  R31,Y+5+1
	SBIW R30,0
	BREQ _0x2060002
	LDS  R30,_slave_address_G101
	ORI  R30,1
	STS  _slave_address_G101,R30
	CLT
_0x2020065:
	BLD  R2,1
	CLT
	BLD  R2,2
	LDS  R30,188
	ANDI R30,LOW(0xF)
	ORI  R30,LOW(0xA0)
	STS  188,R30
	__GETD1N 0x7A120
	CALL __PUTD1S0
_0x202000E:
	SBRC R2,2
	RJMP _0x2020010
	CALL __GETD1S0
	SBIW R30,1
	SBCI R22,0
	SBCI R23,0
	CALL __PUTD1S0
	BRNE _0x2020011
	LDI  R30,LOW(5)
	STS  _twi_result,R30
	SET
	BLD  R2,2
	RJMP _0x2060002
_0x2020011:
	RJMP _0x202000E
_0x2020010:
_0x202000C:
	LDS  R26,_twi_result
	LDI  R30,LOW(0)
	CALL __EQB12
	RJMP _0x2060001
_0x2020005:
_0x2060002:
	LDI  R30,LOW(0)
_0x2060001:
	ADIW R28,11
	RET
; .FEND
_twi_int_handler:
; .FSTART _twi_int_handler
	ST   -Y,R0
	ST   -Y,R1
	ST   -Y,R15
	ST   -Y,R22
	ST   -Y,R23
	ST   -Y,R24
	ST   -Y,R25
	ST   -Y,R26
	ST   -Y,R27
	ST   -Y,R30
	ST   -Y,R31
	IN   R30,SREG
	ST   -Y,R30
	CALL __SAVELOCR6
	LDS  R17,_twi_rx_index
	LDS  R16,_twi_tx_index
	LDS  R19,_bytes_to_tx_G101
	LDS  R18,_twi_result
	MOV  R30,R17
	LDS  R26,_twi_rx_buffer_G101
	LDS  R27,_twi_rx_buffer_G101+1
	LDI  R31,0
	ADD  R30,R26
	ADC  R31,R27
	MOVW R20,R30
	LDS  R30,185
	ANDI R30,LOW(0xF8)
	CPI  R30,LOW(0x8)
	BRNE _0x2020017
	LDI  R18,LOW(0)
	RJMP _0x2020018
_0x2020017:
	CPI  R30,LOW(0x10)
	BRNE _0x2020019
_0x2020018:
	LDS  R30,_slave_address_G101
	RJMP _0x2020067
_0x2020019:
	CPI  R30,LOW(0x18)
	BREQ _0x202001D
	CPI  R30,LOW(0x28)
	BRNE _0x202001E
_0x202001D:
	CP   R16,R19
	BRSH _0x202001F
	MOV  R30,R16
	SUBI R16,-1
	LDS  R26,_twi_tx_buffer_G101
	LDS  R27,_twi_tx_buffer_G101+1
	LDI  R31,0
	ADD  R26,R30
	ADC  R27,R31
	LD   R30,X
_0x2020067:
	STS  187,R30
	LDS  R30,188
	ANDI R30,LOW(0xF)
	ORI  R30,0x80
	STS  188,R30
	RJMP _0x2020020
_0x202001F:
	LDS  R30,_bytes_to_rx_G101
	CP   R17,R30
	BRSH _0x2020021
	LDS  R30,_slave_address_G101
	ORI  R30,1
	STS  _slave_address_G101,R30
	CLT
	BLD  R2,1
	LDS  R30,188
	ANDI R30,LOW(0xF)
	ORI  R30,LOW(0xA0)
	STS  188,R30
	RJMP _0x2020016
_0x2020021:
	RJMP _0x2020022
_0x2020020:
	RJMP _0x2020016
_0x202001E:
	CPI  R30,LOW(0x50)
	BRNE _0x2020023
	LDS  R30,187
	MOVW R26,R20
	ST   X,R30
	SUBI R17,-LOW(1)
	RJMP _0x2020024
_0x2020023:
	CPI  R30,LOW(0x40)
	BRNE _0x2020025
_0x2020024:
	LDS  R30,_bytes_to_rx_G101
	SUBI R30,LOW(1)
	CP   R17,R30
	BRLO _0x2020026
	LDS  R30,188
	ANDI R30,LOW(0xF)
	ORI  R30,0x80
	RJMP _0x2020068
_0x2020026:
	LDS  R30,188
	ANDI R30,LOW(0xF)
	ORI  R30,LOW(0xC0)
_0x2020068:
	STS  188,R30
	RJMP _0x2020016
_0x2020025:
	CPI  R30,LOW(0x58)
	BRNE _0x2020028
	LDS  R30,187
	MOVW R26,R20
	ST   X,R30
	SUBI R17,-LOW(1)
	RJMP _0x2020029
_0x2020028:
	CPI  R30,LOW(0x20)
	BRNE _0x202002A
_0x2020029:
	RJMP _0x202002B
_0x202002A:
	CPI  R30,LOW(0x30)
	BRNE _0x202002C
_0x202002B:
	RJMP _0x202002D
_0x202002C:
	CPI  R30,LOW(0x48)
	BRNE _0x202002E
_0x202002D:
	CPI  R18,0
	BRNE _0x202002F
	SBRS R2,1
	RJMP _0x2020030
	CP   R16,R19
	BRLO _0x2020032
	RJMP _0x2020033
_0x2020030:
	LDS  R30,_bytes_to_rx_G101
	CP   R17,R30
	BRSH _0x2020034
_0x2020032:
	LDI  R18,LOW(4)
_0x2020034:
_0x2020033:
_0x202002F:
_0x2020022:
	RJMP _0x2020069
_0x202002E:
	CPI  R30,LOW(0x38)
	BRNE _0x2020037
	LDI  R18,LOW(2)
	LDS  R30,188
	ANDI R30,LOW(0xF)
	ORI  R30,0x80
	RJMP _0x202006A
_0x2020037:
	CPI  R30,LOW(0x68)
	BREQ _0x202003A
	CPI  R30,LOW(0x78)
	BRNE _0x202003B
_0x202003A:
	LDI  R18,LOW(2)
	RJMP _0x202003C
_0x202003B:
	CPI  R30,LOW(0x60)
	BREQ _0x202003F
	CPI  R30,LOW(0x70)
	BRNE _0x2020040
_0x202003F:
	LDI  R18,LOW(0)
_0x202003C:
	LDI  R17,LOW(0)
	CLT
	BLD  R2,1
	LDS  R30,_twi_rx_buffer_size_G101
	CPI  R30,0
	BRNE _0x2020041
	LDI  R18,LOW(1)
	LDS  R30,188
	ANDI R30,LOW(0xF)
	ORI  R30,0x80
	RJMP _0x202006B
_0x2020041:
	LDS  R30,188
	ANDI R30,LOW(0xF)
	ORI  R30,LOW(0xC0)
_0x202006B:
	STS  188,R30
	RJMP _0x2020016
_0x2020040:
	CPI  R30,LOW(0x80)
	BREQ _0x2020044
	CPI  R30,LOW(0x90)
	BRNE _0x2020045
_0x2020044:
	SBRS R2,1
	RJMP _0x2020046
	LDI  R18,LOW(1)
	RJMP _0x2020047
_0x2020046:
	LDS  R30,187
	MOVW R26,R20
	ST   X,R30
	SUBI R17,-LOW(1)
	LDS  R30,_twi_rx_buffer_size_G101
	CP   R17,R30
	BRSH _0x2020048
	LDS  R30,_twi_slave_rx_handler_G101
	LDS  R31,_twi_slave_rx_handler_G101+1
	SBIW R30,0
	BRNE _0x2020049
	LDI  R18,LOW(6)
	RJMP _0x2020047
_0x2020049:
	LDI  R26,LOW(0)
	__CALL1MN _twi_slave_rx_handler_G101,0
	CPI  R30,0
	BREQ _0x202004A
	LDS  R30,188
	ANDI R30,LOW(0xF)
	ORI  R30,LOW(0xC0)
	STS  188,R30
	RJMP _0x2020016
_0x202004A:
	RJMP _0x202004B
_0x2020048:
	SET
	BLD  R2,1
_0x202004B:
	RJMP _0x202004C
_0x2020045:
	CPI  R30,LOW(0x88)
	BRNE _0x202004D
_0x202004C:
	RJMP _0x202004E
_0x202004D:
	CPI  R30,LOW(0x98)
	BRNE _0x202004F
_0x202004E:
	LDS  R30,188
	ANDI R30,LOW(0xF)
	ORI  R30,0x80
	STS  188,R30
	RJMP _0x2020016
_0x202004F:
	CPI  R30,LOW(0xA0)
	BRNE _0x2020050
	LDS  R30,188
	ANDI R30,LOW(0xF)
	ORI  R30,LOW(0xC0)
	STS  188,R30
	SET
	BLD  R2,2
	LDS  R30,_twi_slave_rx_handler_G101
	LDS  R31,_twi_slave_rx_handler_G101+1
	SBIW R30,0
	BREQ _0x2020051
	LDI  R26,LOW(1)
	__CALL1MN _twi_slave_rx_handler_G101,0
	RJMP _0x2020052
_0x2020051:
	LDI  R18,LOW(6)
_0x2020052:
	RJMP _0x2020016
_0x2020050:
	CPI  R30,LOW(0xB0)
	BRNE _0x2020053
	LDI  R18,LOW(2)
	RJMP _0x2020054
_0x2020053:
	CPI  R30,LOW(0xA8)
	BRNE _0x2020055
_0x2020054:
	LDS  R30,_twi_slave_tx_handler_G101
	LDS  R31,_twi_slave_tx_handler_G101+1
	SBIW R30,0
	BREQ _0x2020056
	LDI  R26,LOW(0)
	__CALL1MN _twi_slave_tx_handler_G101,0
	MOV  R19,R30
	CPI  R30,0
	BREQ _0x2020058
	LDI  R18,LOW(0)
	RJMP _0x2020059
_0x2020056:
_0x2020058:
	LDI  R18,LOW(6)
	RJMP _0x2020047
_0x2020059:
	LDI  R16,LOW(0)
	CLT
	BLD  R2,1
	RJMP _0x202005A
_0x2020055:
	CPI  R30,LOW(0xB8)
	BRNE _0x202005B
_0x202005A:
	SBRS R2,1
	RJMP _0x202005C
	LDI  R18,LOW(1)
	RJMP _0x2020047
_0x202005C:
	MOV  R30,R16
	SUBI R16,-1
	LDS  R26,_twi_tx_buffer_G101
	LDS  R27,_twi_tx_buffer_G101+1
	LDI  R31,0
	ADD  R26,R30
	ADC  R27,R31
	LD   R30,X
	STS  187,R30
	CP   R16,R19
	BRSH _0x202005D
	LDS  R30,188
	ANDI R30,LOW(0xF)
	ORI  R30,LOW(0xC0)
	RJMP _0x202006C
_0x202005D:
	SET
	BLD  R2,1
	LDS  R30,188
	ANDI R30,LOW(0xF)
	ORI  R30,0x80
_0x202006C:
	STS  188,R30
	RJMP _0x2020016
_0x202005B:
	CPI  R30,LOW(0xC0)
	BREQ _0x2020060
	CPI  R30,LOW(0xC8)
	BRNE _0x2020061
_0x2020060:
	LDS  R30,188
	ANDI R30,LOW(0xF)
	ORI  R30,LOW(0xC0)
	STS  188,R30
	LDS  R30,_twi_slave_tx_handler_G101
	LDS  R31,_twi_slave_tx_handler_G101+1
	SBIW R30,0
	BREQ _0x2020062
	LDI  R26,LOW(1)
	__CALL1MN _twi_slave_tx_handler_G101,0
_0x2020062:
	RJMP _0x2020035
_0x2020061:
	CPI  R30,0
	BRNE _0x2020016
	LDI  R18,LOW(3)
_0x2020047:
_0x2020069:
	LDS  R30,188
	ANDI R30,LOW(0xF)
	ORI  R30,LOW(0xD0)
_0x202006A:
	STS  188,R30
_0x2020035:
	SET
	BLD  R2,2
_0x2020016:
	STS  _twi_rx_index,R17
	STS  _twi_tx_index,R16
	STS  _twi_result,R18
	STS  _bytes_to_tx_G101,R19
	CALL __LOADLOCR6
	ADIW R28,6
	LD   R30,Y+
	OUT  SREG,R30
	LD   R31,Y+
	LD   R30,Y+
	LD   R27,Y+
	LD   R26,Y+
	LD   R25,Y+
	LD   R24,Y+
	LD   R23,Y+
	LD   R22,Y+
	LD   R15,Y+
	LD   R1,Y+
	LD   R0,Y+
	RETI
; .FEND

	.CSEG

	.DSEG
_rx_data:
	.BYTE 0x1
_bufer:
	.BYTE 0x81
_buffer:
	.BYTE 0x400
_twi_tx_index:
	.BYTE 0x1
_twi_rx_index:
	.BYTE 0x1
_twi_result:
	.BYTE 0x1
_dn_reg:
	.BYTE 0x2
_up_reg:
	.BYTE 0x2
_seans0:
	.BYTE 0x1
_chel:
	.BYTE 0x1
_vrem:
	.BYTE 0x1
_bol0:
	.BYTE 0x1
_l:
	.BYTE 0x1

	.ESEG
_seans:
	.BYTE 0xA
_bol:
	.BYTE 0xA

	.DSEG
_tok:
	.BYTE 0x2
_tok0:
	.BYTE 0x2
_period:
	.BYTE 0x2
_a:
	.BYTE 0x2
_mod:
	.BYTE 0x2
_paus:
	.BYTE 0x2
_time:
	.BYTE 0x2
_a1:
	.BYTE 0x1
_a2:
	.BYTE 0x1
_a3:
	.BYTE 0x1
_rezh0:
	.BYTE 0x1
_tok1:
	.BYTE 0x1
_timer:
	.BYTE 0x4
_slave_address_G101:
	.BYTE 0x1
_twi_tx_buffer_G101:
	.BYTE 0x2
_bytes_to_tx_G101:
	.BYTE 0x1
_twi_rx_buffer_G101:
	.BYTE 0x2
_bytes_to_rx_G101:
	.BYTE 0x1
_twi_rx_buffer_size_G101:
	.BYTE 0x1
_twi_slave_rx_handler_G101:
	.BYTE 0x2
_twi_slave_tx_handler_G101:
	.BYTE 0x2

	.CSEG
;OPTIMIZER ADDED SUBROUTINE, CALLED 3 TIMES, CODE SIZE REDUCTION:1 WORDS
SUBOPT_0x0:
	ST   -Y,R17
	ST   -Y,R16
	__GETWRN 16,17,0
	RET

;OPTIMIZER ADDED SUBROUTINE, CALLED 3 TIMES, CODE SIZE REDUCTION:39 WORDS
SUBOPT_0x1:
	LDD  R26,Y+2
	LDD  R27,Y+2+1
	LDI  R30,LOW(8)
	LDI  R31,HIGH(8)
	CALL __DIVW21
	CALL __LSLW3
	CALL __LSLW4
	LDD  R26,Y+4
	LDD  R27,Y+4+1
	ADD  R30,R26
	ADC  R31,R27
	SUBI R30,LOW(-_buffer)
	SBCI R31,HIGH(-_buffer)
	MOVW R22,R30
	LD   R1,Z
	LDD  R30,Y+2
	ANDI R30,LOW(0x7)
	LDI  R26,LOW(1)
	CALL __LSLB12
	RET

;OPTIMIZER ADDED SUBROUTINE, CALLED 2 TIMES, CODE SIZE REDUCTION:29 WORDS
SUBOPT_0x2:
	LDD  R26,Y+16
	LDD  R27,Y+16+1
	LDD  R30,Y+12
	LDD  R31,Y+12+1
	SUB  R30,R26
	SBC  R31,R27
	MOVW R26,R30
	MOVW R30,R20
	CALL __MULW12
	MOVW R16,R30
	LDD  R26,Y+14
	LDD  R27,Y+14+1
	LDD  R30,Y+10
	LDD  R31,Y+10+1
	SUB  R30,R26
	SBC  R31,R27
	LDD  R26,Y+6
	LDD  R27,Y+6+1
	CALL __MULW12
	MOVW R18,R30
	LDD  R30,Y+16
	LDD  R31,Y+16+1
	ST   -Y,R31
	ST   -Y,R30
	LDD  R30,Y+16
	LDD  R31,Y+16+1
	ST   -Y,R31
	ST   -Y,R30
	LDD  R26,Y+12
	LDD  R27,Y+12+1
	JMP  _drawPixel

;OPTIMIZER ADDED SUBROUTINE, CALLED 7 TIMES, CODE SIZE REDUCTION:9 WORDS
SUBOPT_0x3:
	LDD  R26,Y+14
	LDD  R27,Y+14+1
	ADD  R30,R26
	ADC  R31,R27
	RET

;OPTIMIZER ADDED SUBROUTINE, CALLED 13 TIMES, CODE SIZE REDUCTION:21 WORDS
SUBOPT_0x4:
	LDD  R26,Y+10
	LDD  R27,Y+10+1
	ADD  R30,R26
	ADC  R31,R27
	RET

;OPTIMIZER ADDED SUBROUTINE, CALLED 29 TIMES, CODE SIZE REDUCTION:53 WORDS
SUBOPT_0x5:
	LDD  R30,Y+10
	LDD  R31,Y+10+1
	ST   -Y,R31
	ST   -Y,R30
	RET

;OPTIMIZER ADDED SUBROUTINE, CALLED 3 TIMES, CODE SIZE REDUCTION:3 WORDS
SUBOPT_0x6:
	LDD  R26,Y+14
	LDD  R27,Y+14+1
	ADD  R26,R30
	ADC  R27,R31
	SBIW R26,1
	RET

;OPTIMIZER ADDED SUBROUTINE, CALLED 2 TIMES, CODE SIZE REDUCTION:5 WORDS
SUBOPT_0x7:
	LDD  R30,Y+3
	LDD  R31,Y+3+1
	CALL __LSLW3
	CALL __LSLW4
	LDD  R26,Y+5
	LDD  R27,Y+5+1
	ADD  R30,R26
	ADC  R31,R27
	RET

;OPTIMIZER ADDED SUBROUTINE, CALLED 2 TIMES, CODE SIZE REDUCTION:5 WORDS
SUBOPT_0x8:
	ST   -Y,R27
	ST   -Y,R26
	SBIW R28,1
	CALL __SAVELOCR6
	LDD  R26,Y+14
	LDD  R27,Y+14+1
	CPI  R26,LOW(0x80)
	LDI  R30,HIGH(0x80)
	CPC  R27,R30
	RET

;OPTIMIZER ADDED SUBROUTINE, CALLED 2 TIMES, CODE SIZE REDUCTION:3 WORDS
SUBOPT_0x9:
	LDD  R30,Y+7
	LDD  R31,Y+7+1
	LDI  R26,LOW(6)
	LDI  R27,HIGH(6)
	CALL __MULW12
	RJMP SUBOPT_0x6

;OPTIMIZER ADDED SUBROUTINE, CALLED 2 TIMES, CODE SIZE REDUCTION:5 WORDS
SUBOPT_0xA:
	LDD  R30,Y+7
	LDD  R31,Y+7+1
	CALL __LSLW3
	LDD  R26,Y+12
	LDD  R27,Y+12+1
	ADD  R26,R30
	ADC  R27,R31
	SBIW R26,1
	TST  R27
	RET

;OPTIMIZER ADDED SUBROUTINE, CALLED 2 TIMES, CODE SIZE REDUCTION:4 WORDS
SUBOPT_0xB:
	LDD  R26,Y+11
	LDI  R30,LOW(5)
	MUL  R30,R26
	MOVW R30,R0
	ADD  R30,R18
	ADC  R31,R19
	SUBI R30,LOW(-_font*2)
	SBCI R31,HIGH(-_font*2)
	LPM  R21,Z
	RET

;OPTIMIZER ADDED SUBROUTINE, CALLED 4 TIMES, CODE SIZE REDUCTION:9 WORDS
SUBOPT_0xC:
	ST   -Y,R31
	ST   -Y,R30
	LDD  R26,Y+13
	LDD  R27,Y+13+1
	JMP  _drawPixel

;OPTIMIZER ADDED SUBROUTINE, CALLED 2 TIMES, CODE SIZE REDUCTION:1 WORDS
SUBOPT_0xD:
	LDD  R30,Y+7
	LDD  R31,Y+7+1
	MOV  R26,R20
	LDI  R27,0
	CP   R26,R30
	CPC  R27,R31
	RET

;OPTIMIZER ADDED SUBROUTINE, CALLED 2 TIMES, CODE SIZE REDUCTION:1 WORDS
SUBOPT_0xE:
	LDD  R30,Y+7
	LDD  R31,Y+7+1
	LDD  R26,Y+6
	LDI  R27,0
	CP   R26,R30
	CPC  R27,R31
	RET

;OPTIMIZER ADDED SUBROUTINE, CALLED 2 TIMES, CODE SIZE REDUCTION:25 WORDS
SUBOPT_0xF:
	LDD  R30,Y+7
	LDD  R31,Y+7+1
	MOVW R26,R18
	CALL __MULW12
	LDD  R26,Y+14
	LDD  R27,Y+14+1
	ADD  R26,R30
	ADC  R27,R31
	MOV  R30,R20
	LDI  R31,0
	ADD  R30,R26
	ADC  R31,R27
	ST   -Y,R31
	ST   -Y,R30
	LDD  R30,Y+9
	LDD  R31,Y+9+1
	MOVW R26,R16
	CALL __MULW12
	LDD  R26,Y+14
	LDD  R27,Y+14+1
	ADD  R26,R30
	ADC  R27,R31
	LDD  R30,Y+8
	LDI  R31,0
	ADD  R30,R26
	ADC  R31,R27
	RJMP SUBOPT_0xC

;OPTIMIZER ADDED SUBROUTINE, CALLED 2 TIMES, CODE SIZE REDUCTION:1 WORDS
SUBOPT_0x10:
	LDD  R30,Y+12
	LDD  R31,Y+12+1
	CALL __LSLW4
	RJMP SUBOPT_0x3

;OPTIMIZER ADDED SUBROUTINE, CALLED 9 TIMES, CODE SIZE REDUCTION:13 WORDS
SUBOPT_0x11:
	LDI  R26,LOW(6)
	LDI  R27,HIGH(6)
	CALL __MULW12
	RET

;OPTIMIZER ADDED SUBROUTINE, CALLED 3 TIMES, CODE SIZE REDUCTION:1 WORDS
SUBOPT_0x12:
	CALL __LSLW3
	CALL __LSLW4
	RET

;OPTIMIZER ADDED SUBROUTINE, CALLED 4 TIMES, CODE SIZE REDUCTION:9 WORDS
SUBOPT_0x13:
	LDI  R30,LOW(60)
	ST   -Y,R30
	LDI  R30,LOW(_bufer)
	LDI  R31,HIGH(_bufer)
	ST   -Y,R31
	ST   -Y,R30
	RET

;OPTIMIZER ADDED SUBROUTINE, CALLED 3 TIMES, CODE SIZE REDUCTION:9 WORDS
SUBOPT_0x14:
	ST   -Y,R30
	LDI  R30,LOW(_rx_data)
	LDI  R31,HIGH(_rx_data)
	ST   -Y,R31
	ST   -Y,R30
	LDI  R26,LOW(0)
	JMP  _twi_master_trans

;OPTIMIZER ADDED SUBROUTINE, CALLED 4 TIMES, CODE SIZE REDUCTION:3 WORDS
SUBOPT_0x15:
	ST   -Y,R27
	ST   -Y,R26
	CALL __SAVELOCR4
	RET

;OPTIMIZER ADDED SUBROUTINE, CALLED 2 TIMES, CODE SIZE REDUCTION:4 WORDS
SUBOPT_0x16:
	LDS  R30,122
	ORI  R30,0x10
	STS  122,R30
	LDS  R30,120
	LDS  R31,120+1
	RET

;OPTIMIZER ADDED SUBROUTINE, CALLED 2 TIMES, CODE SIZE REDUCTION:3 WORDS
SUBOPT_0x17:
	LDS  R30,_period+1
	STS  133,R30
	LDS  R30,_period
	STS  132,R30
	RET

;OPTIMIZER ADDED SUBROUTINE, CALLED 3 TIMES, CODE SIZE REDUCTION:5 WORDS
SUBOPT_0x18:
	LDS  R30,_a1
	SUBI R30,-LOW(1)
	STS  _a1,R30
	SUBI R30,LOW(1)
	RET

;OPTIMIZER ADDED SUBROUTINE, CALLED 14 TIMES, CODE SIZE REDUCTION:75 WORDS
SUBOPT_0x19:
	LDS  R26,_timer
	LDS  R27,_timer+1
	LDS  R24,_timer+2
	LDS  R25,_timer+3
	RET

;OPTIMIZER ADDED SUBROUTINE, CALLED 7 TIMES, CODE SIZE REDUCTION:33 WORDS
SUBOPT_0x1A:
	LDS  R30,_timer
	LDS  R31,_timer+1
	LDS  R22,_timer+2
	LDS  R23,_timer+3
	RET

;OPTIMIZER ADDED SUBROUTINE, CALLED 3 TIMES, CODE SIZE REDUCTION:1 WORDS
SUBOPT_0x1B:
	STS  _period,R30
	STS  _period+1,R31
	RET

;OPTIMIZER ADDED SUBROUTINE, CALLED 3 TIMES, CODE SIZE REDUCTION:1 WORDS
SUBOPT_0x1C:
	LDS  R30,_period
	LDS  R31,_period+1
	RET

;OPTIMIZER ADDED SUBROUTINE, CALLED 7 TIMES, CODE SIZE REDUCTION:9 WORDS
SUBOPT_0x1D:
	LDS  R26,_period
	LDS  R27,_period+1
	RET

;OPTIMIZER ADDED SUBROUTINE, CALLED 3 TIMES, CODE SIZE REDUCTION:13 WORDS
SUBOPT_0x1E:
	LDS  R30,_tok0
	LDS  R31,_tok0+1
	LDS  R26,_tok
	LDS  R27,_tok+1
	CP   R26,R30
	CPC  R27,R31
	RET

;OPTIMIZER ADDED SUBROUTINE, CALLED 3 TIMES, CODE SIZE REDUCTION:3 WORDS
SUBOPT_0x1F:
	LDS  R30,_a3
	SUBI R30,-LOW(1)
	STS  _a3,R30
	RET

;OPTIMIZER ADDED SUBROUTINE, CALLED 3 TIMES, CODE SIZE REDUCTION:3 WORDS
SUBOPT_0x20:
	IN   R30,0x27
	MOV  R26,R30
	LDS  R30,_a3
	CP   R30,R26
	RET

;OPTIMIZER ADDED SUBROUTINE, CALLED 3 TIMES, CODE SIZE REDUCTION:1 WORDS
SUBOPT_0x21:
	IN   R30,0x27
	LDS  R26,_a3
	SUB  R30,R26
	RET

;OPTIMIZER ADDED SUBROUTINE, CALLED 3 TIMES, CODE SIZE REDUCTION:3 WORDS
SUBOPT_0x22:
	IN   R30,0x28
	MOV  R26,R30
	LDS  R30,_a3
	CP   R30,R26
	RET

;OPTIMIZER ADDED SUBROUTINE, CALLED 3 TIMES, CODE SIZE REDUCTION:3 WORDS
SUBOPT_0x23:
	IN   R30,0x28
	LDS  R26,_a3
	SUB  R30,R26
	OUT  0x28,R30
	RET

;OPTIMIZER ADDED SUBROUTINE, CALLED 3 TIMES, CODE SIZE REDUCTION:3 WORDS
SUBOPT_0x24:
	LDI  R30,LOW(0)
	OUT  0x28,R30
	LDI  R30,LOW(1)
	STS  _a3,R30
	RET

;OPTIMIZER ADDED SUBROUTINE, CALLED 3 TIMES, CODE SIZE REDUCTION:1 WORDS
SUBOPT_0x25:
	LDS  R30,_a3
	STS  _a3,R30
	RET

;OPTIMIZER ADDED SUBROUTINE, CALLED 3 TIMES, CODE SIZE REDUCTION:21 WORDS
SUBOPT_0x26:
	IN   R0,40
	LDS  R30,_a3
	LDI  R31,0
	LDI  R26,LOW(152)
	LDI  R27,HIGH(152)
	CALL __SWAPW12
	SUB  R30,R26
	SBC  R31,R27
	MOV  R26,R0
	LDI  R27,0
	CP   R26,R30
	CPC  R27,R31
	RET

;OPTIMIZER ADDED SUBROUTINE, CALLED 3 TIMES, CODE SIZE REDUCTION:1 WORDS
SUBOPT_0x27:
	IN   R30,0x28
	LDS  R26,_a3
	ADD  R30,R26
	RET

;OPTIMIZER ADDED SUBROUTINE, CALLED 3 TIMES, CODE SIZE REDUCTION:35 WORDS
SUBOPT_0x28:
	IN   R0,39
	LDS  R30,_a3
	LDI  R31,0
	LDI  R26,LOW(255)
	LDI  R27,HIGH(255)
	CALL __SWAPW12
	SUB  R30,R26
	SBC  R31,R27
	MOV  R26,R0
	LDI  R27,0
	CALL __LTW12
	MOV  R0,R30
	IN   R30,0x27
	MOV  R26,R30
	LDI  R30,LOW(64)
	CALL __LTB12U
	AND  R30,R0
	RET

;OPTIMIZER ADDED SUBROUTINE, CALLED 3 TIMES, CODE SIZE REDUCTION:3 WORDS
SUBOPT_0x29:
	IN   R30,0x27
	LDS  R26,_a3
	ADD  R30,R26
	OUT  0x27,R30
	RET

;OPTIMIZER ADDED SUBROUTINE, CALLED 3 TIMES, CODE SIZE REDUCTION:3 WORDS
SUBOPT_0x2A:
	LDI  R30,LOW(255)
	OUT  0x27,R30
	LDI  R30,LOW(1)
	STS  _a3,R30
	RET

;OPTIMIZER ADDED SUBROUTINE, CALLED 3 TIMES, CODE SIZE REDUCTION:7 WORDS
SUBOPT_0x2B:
	LDI  R26,LOW(0)
	CALL _read_adc
	STS  _tok,R30
	STS  _tok+1,R31
	RET

;OPTIMIZER ADDED SUBROUTINE, CALLED 9 TIMES, CODE SIZE REDUCTION:45 WORDS
SUBOPT_0x2C:
	STS  _timer,R30
	STS  _timer+1,R31
	STS  _timer+2,R22
	STS  _timer+3,R23
	RET

;OPTIMIZER ADDED SUBROUTINE, CALLED 2 TIMES, CODE SIZE REDUCTION:7 WORDS
SUBOPT_0x2D:
	LDI  R30,LOW(48)
	ST   -Y,R30
	LDI  R30,LOW(1)
	LDI  R31,HIGH(1)
	ST   -Y,R31
	ST   -Y,R30
	LDD  R26,Y+11
	LDD  R27,Y+11+1
	CALL _drawCharZo
	LDD  R30,Y+4
	LDD  R31,Y+4+1
	RET

;OPTIMIZER ADDED SUBROUTINE, CALLED 4 TIMES, CODE SIZE REDUCTION:9 WORDS
SUBOPT_0x2E:
	LDI  R26,LOW(12)
	LDI  R27,HIGH(12)
	CALL __MULW12
	RJMP SUBOPT_0x4

;OPTIMIZER ADDED SUBROUTINE, CALLED 12 TIMES, CODE SIZE REDUCTION:19 WORDS
SUBOPT_0x2F:
	ST   -Y,R31
	ST   -Y,R30
	RJMP SUBOPT_0x5

;OPTIMIZER ADDED SUBROUTINE, CALLED 2 TIMES, CODE SIZE REDUCTION:15 WORDS
SUBOPT_0x30:
	LDD  R26,Y+6
	LDD  R27,Y+6+1
	LDI  R30,LOW(10)
	LDI  R31,HIGH(10)
	CALL __DIVW21
	MOVW R16,R30
	LDI  R26,LOW(10)
	LDI  R27,HIGH(10)
	CALL __MULW12
	LDD  R26,Y+6
	LDD  R27,Y+6+1
	SUB  R26,R30
	SBC  R27,R31
	STD  Y+6,R26
	STD  Y+6+1,R27
	RJMP SUBOPT_0x5

;OPTIMIZER ADDED SUBROUTINE, CALLED 2 TIMES, CODE SIZE REDUCTION:38 WORDS
SUBOPT_0x31:
	LDD  R26,Y+6
	LDD  R27,Y+6+1
	LDI  R30,LOW(100)
	LDI  R31,HIGH(100)
	CALL __DIVW21
	MOVW R18,R30
	LDI  R26,LOW(100)
	LDI  R27,HIGH(100)
	CALL __MULW12
	LDD  R26,Y+6
	LDD  R27,Y+6+1
	SUB  R26,R30
	SBC  R27,R31
	LDI  R30,LOW(10)
	LDI  R31,HIGH(10)
	CALL __DIVW21
	MOVW R16,R30
	MOVW R30,R18
	LDI  R26,LOW(100)
	LDI  R27,HIGH(100)
	CALL __MULW12
	LDD  R26,Y+6
	LDD  R27,Y+6+1
	SUB  R26,R30
	SBC  R27,R31
	MOVW R22,R26
	MOVW R30,R16
	LDI  R26,LOW(10)
	LDI  R27,HIGH(10)
	CALL __MULW12
	MOVW R26,R22
	SUB  R26,R30
	SBC  R27,R31
	STD  Y+6,R26
	STD  Y+6+1,R27
	RJMP SUBOPT_0x5

;OPTIMIZER ADDED SUBROUTINE, CALLED 6 TIMES, CODE SIZE REDUCTION:37 WORDS
SUBOPT_0x32:
	LDI  R30,LOW(1)
	LDI  R31,HIGH(1)
	ST   -Y,R31
	ST   -Y,R30
	LDD  R26,Y+11
	LDD  R27,Y+11+1
	CALL _drawCharZo
	LDD  R30,Y+4
	LDD  R31,Y+4+1
	RET

;OPTIMIZER ADDED SUBROUTINE, CALLED 3 TIMES, CODE SIZE REDUCTION:5 WORDS
SUBOPT_0x33:
	LDI  R26,LOW(18)
	LDI  R27,HIGH(18)
	CALL __MULW12
	RJMP SUBOPT_0x4

;OPTIMIZER ADDED SUBROUTINE, CALLED 3 TIMES, CODE SIZE REDUCTION:15 WORDS
SUBOPT_0x34:
	LDD  R30,Y+10
	SUBI R30,-LOW(48)
	ST   -Y,R30
	LDI  R30,LOW(1)
	LDI  R31,HIGH(1)
	ST   -Y,R31
	ST   -Y,R30
	LDD  R26,Y+11
	LDD  R27,Y+11+1
	JMP  _drawCharZo

;OPTIMIZER ADDED SUBROUTINE, CALLED 2 TIMES, CODE SIZE REDUCTION:4 WORDS
SUBOPT_0x35:
	ST   -Y,R30
	LDI  R30,LOW(1)
	LDI  R31,HIGH(1)
	ST   -Y,R31
	ST   -Y,R30
	LDD  R26,Y+11
	LDD  R27,Y+11+1
	JMP  _drawCharZo

;OPTIMIZER ADDED SUBROUTINE, CALLED 2 TIMES, CODE SIZE REDUCTION:3 WORDS
SUBOPT_0x36:
	CALL __MULW12
	LDD  R26,Y+6
	LDD  R27,Y+6+1
	SUB  R26,R30
	SBC  R27,R31
	STD  Y+6,R26
	STD  Y+6+1,R27
	RET

;OPTIMIZER ADDED SUBROUTINE, CALLED 2 TIMES, CODE SIZE REDUCTION:3 WORDS
SUBOPT_0x37:
	LDI  R30,LOW(10)
	LDI  R31,HIGH(10)
	CALL __DIVW21
	MOVW R18,R30
	LDI  R26,LOW(10)
	LDI  R27,HIGH(10)
	RET

;OPTIMIZER ADDED SUBROUTINE, CALLED 12 TIMES, CODE SIZE REDUCTION:30 WORDS
SUBOPT_0x38:
	ST   -Y,R30
	LDI  R30,LOW(1)
	LDI  R31,HIGH(1)
	ST   -Y,R31
	ST   -Y,R30
	RET

;OPTIMIZER ADDED SUBROUTINE, CALLED 5 TIMES, CODE SIZE REDUCTION:25 WORDS
SUBOPT_0x39:
	LDI  R30,LOW(0)
	STS  _timer,R30
	STS  _timer+1,R30
	STS  _timer+2,R30
	STS  _timer+3,R30
	RET

;OPTIMIZER ADDED SUBROUTINE, CALLED 6 TIMES, CODE SIZE REDUCTION:7 WORDS
SUBOPT_0x3A:
	LDI  R26,LOW(200)
	LDI  R27,0
	JMP  _delay_ms

;OPTIMIZER ADDED SUBROUTINE, CALLED 3 TIMES, CODE SIZE REDUCTION:1 WORDS
SUBOPT_0x3B:
	LDI  R30,0
	SBIS 0x9,1
	LDI  R30,1
	MOV  R0,R30
	RET

;OPTIMIZER ADDED SUBROUTINE, CALLED 2 TIMES, CODE SIZE REDUCTION:17 WORDS
SUBOPT_0x3C:
	LDI  R26,LOW(_timer)
	LDI  R27,HIGH(_timer)
	CALL __GETD1P_INC
	__SUBD1N -1
	CALL __PUTDP1_DEC
	SBIW R30,1
	SBCI R22,0
	SBCI R23,0
	MOVW R26,R30
	MOVW R24,R22
	__GETD1N 0x186A0
	CALL __LTD12
	AND  R30,R0
	RET

;OPTIMIZER ADDED SUBROUTINE, CALLED 9 TIMES, CODE SIZE REDUCTION:13 WORDS
SUBOPT_0x3D:
	LDI  R30,LOW(32)
	LDI  R31,HIGH(32)
	CP   R13,R30
	CPC  R14,R31
	RET

;OPTIMIZER ADDED SUBROUTINE, CALLED 27 TIMES, CODE SIZE REDUCTION:205 WORDS
SUBOPT_0x3E:
	SBI  0x5,1
	__DELAY_USW 800
	CBI  0x5,1
	__DELAY_USW 800
	RET

;OPTIMIZER ADDED SUBROUTINE, CALLED 30 TIMES, CODE SIZE REDUCTION:55 WORDS
SUBOPT_0x3F:
	LDI  R30,LOW(1)
	LDI  R31,HIGH(1)
	__ADDWRR 13,14,30,31
	RET

;OPTIMIZER ADDED SUBROUTINE, CALLED 4 TIMES, CODE SIZE REDUCTION:3 WORDS
SUBOPT_0x40:
	LDI  R30,0
	SBIS 0x9,2
	LDI  R30,1
	MOV  R0,R30
	RET

;OPTIMIZER ADDED SUBROUTINE, CALLED 6 TIMES, CODE SIZE REDUCTION:7 WORDS
SUBOPT_0x41:
	__GETW2R 3,4
	ADD  R26,R5
	ADC  R27,R6
	RET

;OPTIMIZER ADDED SUBROUTINE, CALLED 2 TIMES, CODE SIZE REDUCTION:2 WORDS
SUBOPT_0x42:
	LDI  R30,LOW(45)
	LDI  R31,HIGH(45)
	CALL __LTW12
	MOV  R0,R30
	RJMP SUBOPT_0x41

;OPTIMIZER ADDED SUBROUTINE, CALLED 3 TIMES, CODE SIZE REDUCTION:1 WORDS
SUBOPT_0x43:
	__GETW1R 7,8
	RJMP SUBOPT_0x11

;OPTIMIZER ADDED SUBROUTINE, CALLED 3 TIMES, CODE SIZE REDUCTION:1 WORDS
SUBOPT_0x44:
	LDI  R30,0
	SBIC 0x9,2
	LDI  R30,1
	LDI  R31,0
	RET

;OPTIMIZER ADDED SUBROUTINE, CALLED 2 TIMES, CODE SIZE REDUCTION:16 WORDS
SUBOPT_0x45:
	ADD  R26,R30
	ADC  R27,R31
	LDI  R30,0
	SBIC 0x9,1
	LDI  R30,1
	LDI  R31,0
	CALL __SWAPW12
	SUB  R30,R26
	SBC  R31,R27
	LDI  R26,LOW(103)
	LDI  R27,HIGH(103)
	CALL __MULW12U
	SUBI R30,LOW(-_bolezni*2)
	SBCI R31,HIGH(-_bolezni*2)
	ADD  R30,R7
	ADC  R31,R8
	LPM  R26,Z
	JMP  _drawChar

;OPTIMIZER ADDED SUBROUTINE, CALLED 5 TIMES, CODE SIZE REDUCTION:5 WORDS
SUBOPT_0x46:
	LDI  R30,LOW(1)
	LDI  R31,HIGH(1)
	__ADDWRR 7,8,30,31
	RET

;OPTIMIZER ADDED SUBROUTINE, CALLED 3 TIMES, CODE SIZE REDUCTION:1 WORDS
SUBOPT_0x47:
	LDI  R30,LOW(1)
	LDI  R31,HIGH(1)
	__ADDWRR 3,4,30,31
	RET

;OPTIMIZER ADDED SUBROUTINE, CALLED 2 TIMES, CODE SIZE REDUCTION:2 WORDS
SUBOPT_0x48:
	LDI  R26,0
	SBIS 0x9,1
	LDI  R26,1
	LDI  R30,0
	SBIS 0x9,2
	LDI  R30,1
	OR   R30,R26
	RET

;OPTIMIZER ADDED SUBROUTINE, CALLED 6 TIMES, CODE SIZE REDUCTION:17 WORDS
SUBOPT_0x49:
	__GETW1R 7,8
	LDI  R26,LOW(12)
	LDI  R27,HIGH(12)
	CALL __MULW12
	RET

;OPTIMIZER ADDED SUBROUTINE, CALLED 16 TIMES, CODE SIZE REDUCTION:57 WORDS
SUBOPT_0x4A:
	ST   -Y,R31
	ST   -Y,R30
	LDI  R30,LOW(16)
	LDI  R31,HIGH(16)
	ST   -Y,R31
	ST   -Y,R30
	RET

;OPTIMIZER ADDED SUBROUTINE, CALLED 3 TIMES, CODE SIZE REDUCTION:5 WORDS
SUBOPT_0x4B:
	LDI  R26,LOW(103)
	LDI  R27,HIGH(103)
	CALL __MULW12U
	SUBI R30,LOW(-_bolezni*2)
	SBCI R31,HIGH(-_bolezni*2)
	RET

;OPTIMIZER ADDED SUBROUTINE, CALLED 10 TIMES, CODE SIZE REDUCTION:15 WORDS
SUBOPT_0x4C:
	LDI  R26,LOW(2)
	LDI  R27,0
	JMP  _drawCharZ

;OPTIMIZER ADDED SUBROUTINE, CALLED 87 TIMES, CODE SIZE REDUCTION:169 WORDS
SUBOPT_0x4D:
	LDI  R30,LOW(0)
	LDI  R31,HIGH(0)
	ST   -Y,R31
	ST   -Y,R30
	RET

;OPTIMIZER ADDED SUBROUTINE, CALLED 20 TIMES, CODE SIZE REDUCTION:35 WORDS
SUBOPT_0x4E:
	LDI  R30,LOW(127)
	LDI  R31,HIGH(127)
	ST   -Y,R31
	ST   -Y,R30
	RET

;OPTIMIZER ADDED SUBROUTINE, CALLED 17 TIMES, CODE SIZE REDUCTION:29 WORDS
SUBOPT_0x4F:
	LDI  R26,LOW(7)
	LDI  R27,0
	JMP  _display

;OPTIMIZER ADDED SUBROUTINE, CALLED 4 TIMES, CODE SIZE REDUCTION:6 WORDS
SUBOPT_0x50:
	SUB  R30,R9
	SBC  R31,R10
	MOVW R22,R30
	RJMP SUBOPT_0x49

;OPTIMIZER ADDED SUBROUTINE, CALLED 4 TIMES, CODE SIZE REDUCTION:9 WORDS
SUBOPT_0x51:
	ADD  R30,R22
	ADC  R31,R23
	ADD  R30,R11
	ADC  R31,R12
	SUBI R30,LOW(-_buffer)
	SBCI R31,HIGH(-_buffer)
	RET

;OPTIMIZER ADDED SUBROUTINE, CALLED 5 TIMES, CODE SIZE REDUCTION:13 WORDS
SUBOPT_0x52:
	LDI  R30,LOW(2)
	LDI  R31,HIGH(2)
	ST   -Y,R31
	ST   -Y,R30
	RJMP SUBOPT_0x4E

;OPTIMIZER ADDED SUBROUTINE, CALLED 3 TIMES, CODE SIZE REDUCTION:1 WORDS
SUBOPT_0x53:
	LDI  R30,LOW(0)
	OUT  0x27,R30
	OUT  0x28,R30
	RET

;OPTIMIZER ADDED SUBROUTINE, CALLED 18 TIMES, CODE SIZE REDUCTION:31 WORDS
SUBOPT_0x54:
	LDI  R30,LOW(128)
	LDI  R31,HIGH(128)
	CP   R13,R30
	CPC  R14,R31
	RET

;OPTIMIZER ADDED SUBROUTINE, CALLED 4 TIMES, CODE SIZE REDUCTION:6 WORDS
SUBOPT_0x55:
	LDI  R30,LOW(0)
	STS  _tok0,R30
	STS  _tok0+1,R30
	RET

;OPTIMIZER ADDED SUBROUTINE, CALLED 5 TIMES, CODE SIZE REDUCTION:45 WORDS
SUBOPT_0x56:
	ST   -Y,R31
	ST   -Y,R30
	LDI  R30,LOW(9)
	LDI  R31,HIGH(9)
	ST   -Y,R31
	ST   -Y,R30
	LDI  R30,LOW(1)
	LDI  R31,HIGH(1)
	ST   -Y,R31
	ST   -Y,R30
	LDI  R26,LOW(2)
	LDI  R27,0
	JMP  _drawStringZ

;OPTIMIZER ADDED SUBROUTINE, CALLED 2 TIMES, CODE SIZE REDUCTION:1 WORDS
SUBOPT_0x57:
	ST   -Y,R31
	ST   -Y,R30
	LDI  R30,LOW(24)
	LDI  R31,HIGH(24)
	ST   -Y,R31
	ST   -Y,R30
	RET

;OPTIMIZER ADDED SUBROUTINE, CALLED 2 TIMES, CODE SIZE REDUCTION:1 WORDS
SUBOPT_0x58:
	LDS  R30,_tok
	LDS  R31,_tok+1
	ST   -Y,R31
	ST   -Y,R30
	RET

;OPTIMIZER ADDED SUBROUTINE, CALLED 32 TIMES, CODE SIZE REDUCTION:59 WORDS
SUBOPT_0x59:
	ST   -Y,R31
	ST   -Y,R30
	LDI  R30,LOW(1)
	LDI  R31,HIGH(1)
	RET

;OPTIMIZER ADDED SUBROUTINE, CALLED 6 TIMES, CODE SIZE REDUCTION:27 WORDS
SUBOPT_0x5A:
	ST   -Y,R31
	ST   -Y,R30
	LDI  R26,LOW(3)
	LDI  R27,0
	CALL _drawStringZ
	RJMP SUBOPT_0x4D

;OPTIMIZER ADDED SUBROUTINE, CALLED 7 TIMES, CODE SIZE REDUCTION:9 WORDS
SUBOPT_0x5B:
	CALL _clearDisplay
	RJMP SUBOPT_0x4D

;OPTIMIZER ADDED SUBROUTINE, CALLED 11 TIMES, CODE SIZE REDUCTION:37 WORDS
SUBOPT_0x5C:
	ST   -Y,R31
	ST   -Y,R30
	LDI  R30,LOW(10)
	LDI  R31,HIGH(10)
	RJMP SUBOPT_0x59

;OPTIMIZER ADDED SUBROUTINE, CALLED 13 TIMES, CODE SIZE REDUCTION:69 WORDS
SUBOPT_0x5D:
	ST   -Y,R31
	ST   -Y,R30
	LDI  R26,LOW(2)
	LDI  R27,0
	CALL _drawStringZ
	RJMP SUBOPT_0x4D

;OPTIMIZER ADDED SUBROUTINE, CALLED 8 TIMES, CODE SIZE REDUCTION:11 WORDS
SUBOPT_0x5E:
	LDI  R30,LOW(40)
	LDI  R31,HIGH(40)
	ST   -Y,R31
	ST   -Y,R30
	RET

;OPTIMIZER ADDED SUBROUTINE, CALLED 2 TIMES, CODE SIZE REDUCTION:17 WORDS
SUBOPT_0x5F:
	LDI  R26,0
	SBIC 0x9,2
	LDI  R26,1
	LDI  R30,0
	SBIC 0x9,1
	LDI  R30,1
	AND  R30,R26
	MOV  R0,R30
	LDI  R26,LOW(_paus)
	LDI  R27,HIGH(_paus)
	LD   R30,X+
	LD   R31,X+
	ADIW R30,1
	ST   -X,R31
	ST   -X,R30
	SBIW R30,1
	MOVW R26,R30
	LDI  R30,LOW(1000)
	LDI  R31,HIGH(1000)
	CALL __LTW12U
	AND  R30,R0
	RET

;OPTIMIZER ADDED SUBROUTINE, CALLED 3 TIMES, CODE SIZE REDUCTION:1 WORDS
SUBOPT_0x60:
	LDI  R26,LOW(10)
	LDI  R27,0
	JMP  _delay_ms

;OPTIMIZER ADDED SUBROUTINE, CALLED 7 TIMES, CODE SIZE REDUCTION:9 WORDS
SUBOPT_0x61:
	LDI  R26,LOW(50)
	LDI  R27,0
	JMP  _delay_ms

;OPTIMIZER ADDED SUBROUTINE, CALLED 2 TIMES, CODE SIZE REDUCTION:3 WORDS
SUBOPT_0x62:
	__POINTW1FN _0x0,44
	ST   -Y,R31
	ST   -Y,R30
	LDI  R30,LOW(6)
	LDI  R31,HIGH(6)
	RJMP SUBOPT_0x59

;OPTIMIZER ADDED SUBROUTINE, CALLED 7 TIMES, CODE SIZE REDUCTION:9 WORDS
SUBOPT_0x63:
	LDI  R30,LOW(30)
	LDI  R31,HIGH(30)
	ST   -Y,R31
	ST   -Y,R30
	RET

;OPTIMIZER ADDED SUBROUTINE, CALLED 12 TIMES, CODE SIZE REDUCTION:41 WORDS
SUBOPT_0x64:
	ST   -Y,R31
	ST   -Y,R30
	LDI  R26,LOW(2)
	LDI  R27,0
	JMP  _drawStringZ

;OPTIMIZER ADDED SUBROUTINE, CALLED 3 TIMES, CODE SIZE REDUCTION:1 WORDS
SUBOPT_0x65:
	LDI  R26,LOW(1000)
	LDI  R27,HIGH(1000)
	JMP  _delay_ms

;OPTIMIZER ADDED SUBROUTINE, CALLED 5 TIMES, CODE SIZE REDUCTION:13 WORDS
SUBOPT_0x66:
	ST   -Y,R31
	ST   -Y,R30
	LDI  R30,LOW(8)
	LDI  R31,HIGH(8)
	RJMP SUBOPT_0x59

;OPTIMIZER ADDED SUBROUTINE, CALLED 6 TIMES, CODE SIZE REDUCTION:7 WORDS
SUBOPT_0x67:
	LDI  R30,LOW(0)
	LDI  R31,HIGH(0)
	RJMP SUBOPT_0x4A

;OPTIMIZER ADDED SUBROUTINE, CALLED 2 TIMES, CODE SIZE REDUCTION:1 WORDS
SUBOPT_0x68:
	LDI  R30,LOW(96)
	LDI  R31,HIGH(96)
	ST   -Y,R31
	ST   -Y,R30
	RJMP SUBOPT_0x5E

;OPTIMIZER ADDED SUBROUTINE, CALLED 4 TIMES, CODE SIZE REDUCTION:6 WORDS
SUBOPT_0x69:
	LDS  R30,_chel
	SUBI R30,-LOW(48)
	RJMP SUBOPT_0x38

;OPTIMIZER ADDED SUBROUTINE, CALLED 4 TIMES, CODE SIZE REDUCTION:33 WORDS
SUBOPT_0x6A:
	LDI  R26,LOW(_time)
	LDI  R27,HIGH(_time)
	LD   R30,X+
	LD   R31,X+
	ADIW R30,1
	ST   -X,R31
	ST   -X,R30
	SBIW R30,1
	MOVW R26,R30
	LDI  R30,LOW(65000)
	LDI  R31,HIGH(65000)
	CALL __LTW12U
	AND  R30,R0
	RET

;OPTIMIZER ADDED SUBROUTINE, CALLED 2 TIMES, CODE SIZE REDUCTION:2 WORDS
SUBOPT_0x6B:
	LDS  R26,_time
	LDS  R27,_time+1
	CPI  R26,LOW(0xFDE8)
	LDI  R30,HIGH(0xFDE8)
	CPC  R27,R30
	RET

;OPTIMIZER ADDED SUBROUTINE, CALLED 3 TIMES, CODE SIZE REDUCTION:1 WORDS
SUBOPT_0x6C:
	LDI  R30,LOW(96)
	LDI  R31,HIGH(96)
	ST   -Y,R31
	ST   -Y,R30
	RET

;OPTIMIZER ADDED SUBROUTINE, CALLED 4 TIMES, CODE SIZE REDUCTION:3 WORDS
SUBOPT_0x6D:
	LDI  R30,LOW(5)
	LDI  R31,HIGH(5)
	ST   -Y,R31
	ST   -Y,R30
	RET

;OPTIMIZER ADDED SUBROUTINE, CALLED 6 TIMES, CODE SIZE REDUCTION:7 WORDS
SUBOPT_0x6E:
	LDI  R30,LOW(32)
	LDI  R31,HIGH(32)
	ST   -Y,R31
	ST   -Y,R30
	RET

;OPTIMIZER ADDED SUBROUTINE, CALLED 4 TIMES, CODE SIZE REDUCTION:3 WORDS
SUBOPT_0x6F:
	LDI  R30,LOW(48)
	LDI  R31,HIGH(48)
	ST   -Y,R31
	ST   -Y,R30
	RET

;OPTIMIZER ADDED SUBROUTINE, CALLED 4 TIMES, CODE SIZE REDUCTION:6 WORDS
SUBOPT_0x70:
	LDI  R30,LOW(0)
	STS  _paus,R30
	STS  _paus+1,R30
	RET

;OPTIMIZER ADDED SUBROUTINE, CALLED 3 TIMES, CODE SIZE REDUCTION:1 WORDS
SUBOPT_0x71:
	LDI  R26,LOW(_paus)
	LDI  R27,HIGH(_paus)
	LD   R30,X+
	LD   R31,X+
	RET

;OPTIMIZER ADDED SUBROUTINE, CALLED 4 TIMES, CODE SIZE REDUCTION:3 WORDS
SUBOPT_0x72:
	STS  _paus,R30
	STS  _paus+1,R31
	RET

;OPTIMIZER ADDED SUBROUTINE, CALLED 4 TIMES, CODE SIZE REDUCTION:6 WORDS
SUBOPT_0x73:
	LDS  R26,_chel
	LDI  R27,0
	SUBI R26,LOW(-_seans)
	SBCI R27,HIGH(-_seans)
	RET

;OPTIMIZER ADDED SUBROUTINE, CALLED 10 TIMES, CODE SIZE REDUCTION:33 WORDS
SUBOPT_0x74:
	ST   -Y,R31
	ST   -Y,R30
	LDI  R30,LOW(7)
	LDI  R31,HIGH(7)
	RJMP SUBOPT_0x59

;OPTIMIZER ADDED SUBROUTINE, CALLED 2 TIMES, CODE SIZE REDUCTION:1 WORDS
SUBOPT_0x75:
	__GETW1R 7,8
	ADIW R30,1
	__PUTW1R 7,8
	SBIW R30,21
	RET

;OPTIMIZER ADDED SUBROUTINE, CALLED 2 TIMES, CODE SIZE REDUCTION:1 WORDS
SUBOPT_0x76:
	LDI  R26,LOW(30)
	LDI  R27,0
	CALL _delay_ms
	CLR  R13
	CLR  R14
	RET

;OPTIMIZER ADDED SUBROUTINE, CALLED 3 TIMES, CODE SIZE REDUCTION:13 WORDS
SUBOPT_0x77:
	SBI  0x5,1
	__DELAY_USW 1200
	CBI  0x5,1
	__DELAY_USW 1200
	RET

;OPTIMIZER ADDED SUBROUTINE, CALLED 2 TIMES, CODE SIZE REDUCTION:1 WORDS
SUBOPT_0x78:
	LDI  R30,LOW(104)
	LDI  R31,HIGH(104)
	ST   -Y,R31
	ST   -Y,R30
	RJMP SUBOPT_0x4D

;OPTIMIZER ADDED SUBROUTINE, CALLED 4 TIMES, CODE SIZE REDUCTION:3 WORDS
SUBOPT_0x79:
	ST   -Y,R31
	ST   -Y,R30
	RJMP SUBOPT_0x4D

;OPTIMIZER ADDED SUBROUTINE, CALLED 3 TIMES, CODE SIZE REDUCTION:7 WORDS
SUBOPT_0x7A:
	LDS  R30,_bol0
	LDI  R26,LOW(20)
	MUL  R30,R26
	MOVW R30,R0
	SUBI R30,LOW(-_rezhimi*2)
	SBCI R31,HIGH(-_rezhimi*2)
	RET

;OPTIMIZER ADDED SUBROUTINE, CALLED 2 TIMES, CODE SIZE REDUCTION:1 WORDS
SUBOPT_0x7B:
	LDI  R30,LOW(24)
	LDI  R31,HIGH(24)
	ST   -Y,R31
	ST   -Y,R30
	RJMP SUBOPT_0x52

;OPTIMIZER ADDED SUBROUTINE, CALLED 3 TIMES, CODE SIZE REDUCTION:1 WORDS
SUBOPT_0x7C:
	LDI  R30,LOW(2)
	LDI  R31,HIGH(2)
	ST   -Y,R31
	ST   -Y,R30
	RET

;OPTIMIZER ADDED SUBROUTINE, CALLED 12 TIMES, CODE SIZE REDUCTION:19 WORDS
SUBOPT_0x7D:
	CALL _drawChar
	RJMP SUBOPT_0x4D

;OPTIMIZER ADDED SUBROUTINE, CALLED 2 TIMES, CODE SIZE REDUCTION:1 WORDS
SUBOPT_0x7E:
	__GETD1N 0x325AA0
	RJMP SUBOPT_0x2C

;OPTIMIZER ADDED SUBROUTINE, CALLED 2 TIMES, CODE SIZE REDUCTION:11 WORDS
SUBOPT_0x7F:
	RCALL SUBOPT_0x19
	__GETD1N 0x2710
	CALL __DIVD21
	ST   -Y,R31
	ST   -Y,R30
	LDI  R26,LOW(3)
	LDI  R27,0
	CALL _timeZ
	RJMP SUBOPT_0x4D

;OPTIMIZER ADDED SUBROUTINE, CALLED 3 TIMES, CODE SIZE REDUCTION:1 WORDS
SUBOPT_0x80:
	LDI  R30,LOW(150)
	LDI  R31,HIGH(150)
	RJMP SUBOPT_0x72

;OPTIMIZER ADDED SUBROUTINE, CALLED 2 TIMES, CODE SIZE REDUCTION:1 WORDS
SUBOPT_0x81:
	ST   -Y,R31
	ST   -Y,R30
	LDI  R30,LOW(2)
	LDI  R31,HIGH(2)
	RJMP SUBOPT_0x59

;OPTIMIZER ADDED SUBROUTINE, CALLED 2 TIMES, CODE SIZE REDUCTION:3 WORDS
SUBOPT_0x82:
	RCALL SUBOPT_0x19
	__GETD1N 0x2710
	CALL __DIVD21
	RET

;OPTIMIZER ADDED SUBROUTINE, CALLED 5 TIMES, CODE SIZE REDUCTION:5 WORDS
SUBOPT_0x83:
	LDS  R26,_tok0
	LDS  R27,_tok0+1
	RET

;OPTIMIZER ADDED SUBROUTINE, CALLED 4 TIMES, CODE SIZE REDUCTION:3 WORDS
SUBOPT_0x84:
	LDS  R30,_tok0
	LDS  R31,_tok0+1
	RET

;OPTIMIZER ADDED SUBROUTINE, CALLED 3 TIMES, CODE SIZE REDUCTION:1 WORDS
SUBOPT_0x85:
	STS  _tok0,R30
	STS  _tok0+1,R31
	RET

;OPTIMIZER ADDED SUBROUTINE, CALLED 2 TIMES, CODE SIZE REDUCTION:2 WORDS
SUBOPT_0x86:
	MOVW R26,R30
	LDS  R30,_seans0
	LDI  R31,0
	ADIW R30,10
	ADD  R30,R26
	ADC  R31,R27
	RET


	.CSEG
_delay_ms:
	adiw r26,0
	breq __delay_ms1
__delay_ms0:
	__DELAY_USW 0xFA0
	wdr
	sbiw r26,1
	brne __delay_ms0
__delay_ms1:
	ret

__SUBD21:
	SUB  R26,R30
	SBC  R27,R31
	SBC  R24,R22
	SBC  R25,R23
	RET

__ANEGW1:
	NEG  R31
	NEG  R30
	SBCI R31,0
	RET

__ANEGD1:
	COM  R31
	COM  R22
	COM  R23
	NEG  R30
	SBCI R31,-1
	SBCI R22,-1
	SBCI R23,-1
	RET

__LSLB12:
	TST  R30
	MOV  R0,R30
	MOV  R30,R26
	BREQ __LSLB12R
__LSLB12L:
	LSL  R30
	DEC  R0
	BRNE __LSLB12L
__LSLB12R:
	RET

__LSLW4:
	LSL  R30
	ROL  R31
__LSLW3:
	LSL  R30
	ROL  R31
__LSLW2:
	LSL  R30
	ROL  R31
	LSL  R30
	ROL  R31
	RET

__LSRW2:
	LSR  R31
	ROR  R30
	LSR  R31
	ROR  R30
	RET

__EQB12:
	CP   R30,R26
	LDI  R30,1
	BREQ __EQB12T
	CLR  R30
__EQB12T:
	RET

__LTB12U:
	CP   R26,R30
	LDI  R30,1
	BRLO __LTB12U1
	CLR  R30
__LTB12U1:
	RET

__GEW12:
	CP   R26,R30
	CPC  R27,R31
	LDI  R30,1
	BRGE __GEW12T
	CLR  R30
__GEW12T:
	RET

__LTW12:
	CP   R26,R30
	CPC  R27,R31
	LDI  R30,1
	BRLT __LTW12T
	CLR  R30
__LTW12T:
	RET

__LTW12U:
	CP   R26,R30
	CPC  R27,R31
	LDI  R30,1
	BRLO __LTW12UT
	CLR  R30
__LTW12UT:
	RET

__GTW12U:
	CP   R30,R26
	CPC  R31,R27
	LDI  R30,1
	BRLO __GTW12UT
	CLR  R30
__GTW12UT:
	RET

__LTD12:
	CP   R26,R30
	CPC  R27,R31
	CPC  R24,R22
	CPC  R25,R23
	LDI  R30,1
	BRLT __LTD12T
	CLR  R30
__LTD12T:
	RET

__MULW12U:
	MUL  R31,R26
	MOV  R31,R0
	MUL  R30,R27
	ADD  R31,R0
	MUL  R30,R26
	MOV  R30,R0
	ADD  R31,R1
	RET

__MULB1W2U:
	MOV  R22,R30
	MUL  R22,R26
	MOVW R30,R0
	MUL  R22,R27
	ADD  R31,R0
	RET

__MULW12:
	RCALL __CHKSIGNW
	RCALL __MULW12U
	BRTC __MULW121
	RCALL __ANEGW1
__MULW121:
	RET

__DIVW21U:
	CLR  R0
	CLR  R1
	LDI  R25,16
__DIVW21U1:
	LSL  R26
	ROL  R27
	ROL  R0
	ROL  R1
	SUB  R0,R30
	SBC  R1,R31
	BRCC __DIVW21U2
	ADD  R0,R30
	ADC  R1,R31
	RJMP __DIVW21U3
__DIVW21U2:
	SBR  R26,1
__DIVW21U3:
	DEC  R25
	BRNE __DIVW21U1
	MOVW R30,R26
	MOVW R26,R0
	RET

__DIVW21:
	RCALL __CHKSIGNW
	RCALL __DIVW21U
	BRTC __DIVW211
	RCALL __ANEGW1
__DIVW211:
	RET

__DIVD21U:
	PUSH R19
	PUSH R20
	PUSH R21
	CLR  R0
	CLR  R1
	CLR  R20
	CLR  R21
	LDI  R19,32
__DIVD21U1:
	LSL  R26
	ROL  R27
	ROL  R24
	ROL  R25
	ROL  R0
	ROL  R1
	ROL  R20
	ROL  R21
	SUB  R0,R30
	SBC  R1,R31
	SBC  R20,R22
	SBC  R21,R23
	BRCC __DIVD21U2
	ADD  R0,R30
	ADC  R1,R31
	ADC  R20,R22
	ADC  R21,R23
	RJMP __DIVD21U3
__DIVD21U2:
	SBR  R26,1
__DIVD21U3:
	DEC  R19
	BRNE __DIVD21U1
	MOVW R30,R26
	MOVW R22,R24
	MOVW R26,R0
	MOVW R24,R20
	POP  R21
	POP  R20
	POP  R19
	RET

__DIVD21:
	RCALL __CHKSIGND
	RCALL __DIVD21U
	BRTC __DIVD211
	RCALL __ANEGD1
__DIVD211:
	RET

__CHKSIGNW:
	CLT
	SBRS R31,7
	RJMP __CHKSW1
	RCALL __ANEGW1
	SET
__CHKSW1:
	SBRS R27,7
	RJMP __CHKSW2
	COM  R26
	COM  R27
	ADIW R26,1
	BLD  R0,0
	INC  R0
	BST  R0,0
__CHKSW2:
	RET

__CHKSIGND:
	CLT
	SBRS R23,7
	RJMP __CHKSD1
	RCALL __ANEGD1
	SET
__CHKSD1:
	SBRS R25,7
	RJMP __CHKSD2
	CLR  R0
	COM  R26
	COM  R27
	COM  R24
	COM  R25
	ADIW R26,1
	ADC  R24,R0
	ADC  R25,R0
	BLD  R0,0
	INC  R0
	BST  R0,0
__CHKSD2:
	RET

__GETD1P_INC:
	LD   R30,X+
	LD   R31,X+
	LD   R22,X+
	LD   R23,X+
	RET

__PUTDP1_DEC:
	ST   -X,R23
	ST   -X,R22
	ST   -X,R31
	ST   -X,R30
	RET

__GETD1S0:
	LD   R30,Y
	LDD  R31,Y+1
	LDD  R22,Y+2
	LDD  R23,Y+3
	RET

__PUTD1S0:
	ST   Y,R30
	STD  Y+1,R31
	STD  Y+2,R22
	STD  Y+3,R23
	RET

__SWAPW12:
	MOV  R1,R27
	MOV  R27,R31
	MOV  R31,R1

__SWAPB12:
	MOV  R1,R26
	MOV  R26,R30
	MOV  R30,R1
	RET

__EEPROMRDB:
	SBIC EECR,EEWE
	RJMP __EEPROMRDB
	PUSH R31
	IN   R31,SREG
	CLI
	OUT  EEARL,R26
	OUT  EEARH,R27
	SBI  EECR,EERE
	IN   R30,EEDR
	OUT  SREG,R31
	POP  R31
	RET

__EEPROMWRB:
	SBIS EECR,EEWE
	RJMP __EEPROMWRB1
	WDR
	RJMP __EEPROMWRB
__EEPROMWRB1:
	IN   R25,SREG
	CLI
	OUT  EEARL,R26
	OUT  EEARH,R27
	SBI  EECR,EERE
	IN   R24,EEDR
	CP   R30,R24
	BREQ __EEPROMWRB0
	OUT  EEDR,R30
	SBI  EECR,EEMWE
	SBI  EECR,EEWE
__EEPROMWRB0:
	OUT  SREG,R25
	RET

__CPW02:
	CLR  R0
	CP   R0,R26
	CPC  R0,R27
	RET

__CPD02:
	CLR  R0
	CP   R0,R26
	CPC  R0,R27
	CPC  R0,R24
	CPC  R0,R25
	RET

__SAVELOCR6:
	ST   -Y,R21
__SAVELOCR5:
	ST   -Y,R20
__SAVELOCR4:
	ST   -Y,R19
__SAVELOCR3:
	ST   -Y,R18
__SAVELOCR2:
	ST   -Y,R17
	ST   -Y,R16
	RET

__LOADLOCR6:
	LDD  R21,Y+5
__LOADLOCR5:
	LDD  R20,Y+4
__LOADLOCR4:
	LDD  R19,Y+3
__LOADLOCR3:
	LDD  R18,Y+2
__LOADLOCR2:
	LDD  R17,Y+1
	LD   R16,Y
	RET

;END OF CODE MARKER
__END_OF_CODE:
