
AVRASM ver. 2.1.30  F:\Project\Micro\AVR\MDM_328\Debug\List\mdm328.asm Fri Apr 03 16:11:42 2015

F:\Project\Micro\AVR\MDM_328\Debug\List\mdm328.asm(1090): warning: Register r3 already defined by the .DEF directive
F:\Project\Micro\AVR\MDM_328\Debug\List\mdm328.asm(1091): warning: Register r4 already defined by the .DEF directive
F:\Project\Micro\AVR\MDM_328\Debug\List\mdm328.asm(1092): warning: Register r5 already defined by the .DEF directive
F:\Project\Micro\AVR\MDM_328\Debug\List\mdm328.asm(1093): warning: Register r6 already defined by the .DEF directive
F:\Project\Micro\AVR\MDM_328\Debug\List\mdm328.asm(1094): warning: Register r7 already defined by the .DEF directive
F:\Project\Micro\AVR\MDM_328\Debug\List\mdm328.asm(1095): warning: Register r8 already defined by the .DEF directive
F:\Project\Micro\AVR\MDM_328\Debug\List\mdm328.asm(1096): warning: Register r9 already defined by the .DEF directive
F:\Project\Micro\AVR\MDM_328\Debug\List\mdm328.asm(1097): warning: Register r10 already defined by the .DEF directive
F:\Project\Micro\AVR\MDM_328\Debug\List\mdm328.asm(1098): warning: Register r11 already defined by the .DEF directive
F:\Project\Micro\AVR\MDM_328\Debug\List\mdm328.asm(1099): warning: Register r12 already defined by the .DEF directive
F:\Project\Micro\AVR\MDM_328\Debug\List\mdm328.asm(1100): warning: Register r13 already defined by the .DEF directive
F:\Project\Micro\AVR\MDM_328\Debug\List\mdm328.asm(1101): warning: Register r14 already defined by the .DEF directive
                 
                 
                 ;CodeVisionAVR C Compiler V3.12 Advanced
                 ;(C) Copyright 1998-2014 Pavel Haiduc, HP InfoTech s.r.l.
                 ;http://www.hpinfotech.com
                 
                 ;Build configuration    : Debug
                 ;Chip type              : ATmega328P
                 ;Program type           : Application
                 ;Clock frequency        : 16,000000 MHz
                 ;Memory model           : Small
                 ;Optimize for           : Size
                 ;(s)printf features     : int, width
                 ;(s)scanf features      : int, width
                 ;External RAM size      : 0
                 ;Data Stack size        : 512 byte(s)
                 ;Heap size              : 0 byte(s)
                 ;Promote 'char' to 'int': Yes
                 ;'char' is unsigned     : Yes
                 ;8 bit enums            : Yes
                 ;Global 'const' stored in FLASH: Yes
                 ;Enhanced function parameter passing: Yes
                 ;Enhanced core instructions: On
                 ;Automatic register allocation for global variables: On
                 ;Smart register allocation: On
                 
                 	#define _MODEL_SMALL_
                 
                 	#pragma AVRPART ADMIN PART_NAME ATmega328P
                 	#pragma AVRPART MEMORY PROG_FLASH 32768
                 	#pragma AVRPART MEMORY EEPROM 1024
                 	#pragma AVRPART MEMORY INT_SRAM SIZE 2048
                 	#pragma AVRPART MEMORY INT_SRAM START_ADDR 0x100
                 
                 	#define CALL_SUPPORTED 1
                 
                 	.LISTMAC
                 	.EQU EERE=0x0
                 	.EQU EEWE=0x1
                 	.EQU EEMWE=0x2
                 	.EQU UDRE=0x5
                 	.EQU RXC=0x7
                 	.EQU EECR=0x1F
                 	.EQU EEDR=0x20
                 	.EQU EEARL=0x21
                 	.EQU EEARH=0x22
                 	.EQU SPSR=0x2D
                 	.EQU SPDR=0x2E
                 	.EQU SMCR=0x33
                 	.EQU MCUSR=0x34
                 	.EQU MCUCR=0x35
                 	.EQU WDTCSR=0x60
                 	.EQU UCSR0A=0xC0
                 	.EQU UDR0=0xC6
                 	.EQU SPL=0x3D
                 	.EQU SPH=0x3E
                 	.EQU SREG=0x3F
                 	.EQU GPIOR0=0x1E
                 
                 	.DEF R0X0=R0
                 	.DEF R0X1=R1
                 	.DEF R0X2=R2
                 	.DEF R0X3=R3
                 	.DEF R0X4=R4
                 	.DEF R0X5=R5
                 	.DEF R0X6=R6
                 	.DEF R0X7=R7
                 	.DEF R0X8=R8
                 	.DEF R0X9=R9
                 	.DEF R0XA=R10
                 	.DEF R0XB=R11
                 	.DEF R0XC=R12
                 	.DEF R0XD=R13
                 	.DEF R0XE=R14
                 	.DEF R0XF=R15
                 	.DEF R0X10=R16
                 	.DEF R0X11=R17
                 	.DEF R0X12=R18
                 	.DEF R0X13=R19
                 	.DEF R0X14=R20
                 	.DEF R0X15=R21
                 	.DEF R0X16=R22
                 	.DEF R0X17=R23
                 	.DEF R0X18=R24
                 	.DEF R0X19=R25
                 	.DEF R0X1A=R26
                 	.DEF R0X1B=R27
                 	.DEF R0X1C=R28
                 	.DEF R0X1D=R29
                 	.DEF R0X1E=R30
                 	.DEF R0X1F=R31
                 
                 	.EQU __SRAM_START=0x0100
                 	.EQU __SRAM_END=0x08FF
                 	.EQU __DSTACK_SIZE=0x0200
                 	.EQU __HEAP_SIZE=0x0000
                 	.EQU __CLEAR_SRAM_SIZE=__SRAM_END-__SRAM_START+1
                 
                 	.MACRO __CPD1N
                 	CPI  R30,LOW(@0)
                 	LDI  R26,HIGH(@0)
                 	CPC  R31,R26
                 	LDI  R26,BYTE3(@0)
                 	CPC  R22,R26
                 	LDI  R26,BYTE4(@0)
                 	CPC  R23,R26
                 	.ENDM
                 
                 	.MACRO __CPD2N
                 	CPI  R26,LOW(@0)
                 	LDI  R30,HIGH(@0)
                 	CPC  R27,R30
                 	LDI  R30,BYTE3(@0)
                 	CPC  R24,R30
                 	LDI  R30,BYTE4(@0)
                 	CPC  R25,R30
                 	.ENDM
                 
                 	.MACRO __CPWRR
                 	CP   R@0,R@2
                 	CPC  R@1,R@3
                 	.ENDM
                 
                 	.MACRO __CPWRN
                 	CPI  R@0,LOW(@2)
                 	LDI  R30,HIGH(@2)
                 	CPC  R@1,R30
                 	.ENDM
                 
                 	.MACRO __ADDB1MN
                 	SUBI R30,LOW(-@0-(@1))
                 	.ENDM
                 
                 	.MACRO __ADDB2MN
                 	SUBI R26,LOW(-@0-(@1))
                 	.ENDM
                 
                 	.MACRO __ADDW1MN
                 	SUBI R30,LOW(-@0-(@1))
                 	SBCI R31,HIGH(-@0-(@1))
                 	.ENDM
                 
                 	.MACRO __ADDW2MN
                 	SUBI R26,LOW(-@0-(@1))
                 	SBCI R27,HIGH(-@0-(@1))
                 	.ENDM
                 
                 	.MACRO __ADDW1FN
                 	SUBI R30,LOW(-2*@0-(@1))
                 	SBCI R31,HIGH(-2*@0-(@1))
                 	.ENDM
                 
                 	.MACRO __ADDD1FN
                 	SUBI R30,LOW(-2*@0-(@1))
                 	SBCI R31,HIGH(-2*@0-(@1))
                 	SBCI R22,BYTE3(-2*@0-(@1))
                 	.ENDM
                 
                 	.MACRO __ADDD1N
                 	SUBI R30,LOW(-@0)
                 	SBCI R31,HIGH(-@0)
                 	SBCI R22,BYTE3(-@0)
                 	SBCI R23,BYTE4(-@0)
                 	.ENDM
                 
                 	.MACRO __ADDD2N
                 	SUBI R26,LOW(-@0)
                 	SBCI R27,HIGH(-@0)
                 	SBCI R24,BYTE3(-@0)
                 	SBCI R25,BYTE4(-@0)
                 	.ENDM
                 
                 	.MACRO __SUBD1N
                 	SUBI R30,LOW(@0)
                 	SBCI R31,HIGH(@0)
                 	SBCI R22,BYTE3(@0)
                 	SBCI R23,BYTE4(@0)
                 	.ENDM
                 
                 	.MACRO __SUBD2N
                 	SUBI R26,LOW(@0)
                 	SBCI R27,HIGH(@0)
                 	SBCI R24,BYTE3(@0)
                 	SBCI R25,BYTE4(@0)
                 	.ENDM
                 
                 	.MACRO __ANDBMNN
                 	LDS  R30,@0+(@1)
                 	ANDI R30,LOW(@2)
                 	STS  @0+(@1),R30
                 	.ENDM
                 
                 	.MACRO __ANDWMNN
                 	LDS  R30,@0+(@1)
                 	ANDI R30,LOW(@2)
                 	STS  @0+(@1),R30
                 	LDS  R30,@0+(@1)+1
                 	ANDI R30,HIGH(@2)
                 	STS  @0+(@1)+1,R30
                 	.ENDM
                 
                 	.MACRO __ANDD1N
                 	ANDI R30,LOW(@0)
                 	ANDI R31,HIGH(@0)
                 	ANDI R22,BYTE3(@0)
                 	ANDI R23,BYTE4(@0)
                 	.ENDM
                 
                 	.MACRO __ANDD2N
                 	ANDI R26,LOW(@0)
                 	ANDI R27,HIGH(@0)
                 	ANDI R24,BYTE3(@0)
                 	ANDI R25,BYTE4(@0)
                 	.ENDM
                 
                 	.MACRO __ORBMNN
                 	LDS  R30,@0+(@1)
                 	ORI  R30,LOW(@2)
                 	STS  @0+(@1),R30
                 	.ENDM
                 
                 	.MACRO __ORWMNN
                 	LDS  R30,@0+(@1)
                 	ORI  R30,LOW(@2)
                 	STS  @0+(@1),R30
                 	LDS  R30,@0+(@1)+1
                 	ORI  R30,HIGH(@2)
                 	STS  @0+(@1)+1,R30
                 	.ENDM
                 
                 	.MACRO __ORD1N
                 	ORI  R30,LOW(@0)
                 	ORI  R31,HIGH(@0)
                 	ORI  R22,BYTE3(@0)
                 	ORI  R23,BYTE4(@0)
                 	.ENDM
                 
                 	.MACRO __ORD2N
                 	ORI  R26,LOW(@0)
                 	ORI  R27,HIGH(@0)
                 	ORI  R24,BYTE3(@0)
                 	ORI  R25,BYTE4(@0)
                 	.ENDM
                 
                 	.MACRO __DELAY_USB
                 	LDI  R24,LOW(@0)
                 __DELAY_USB_LOOP:
                 	DEC  R24
                 	BRNE __DELAY_USB_LOOP
                 	.ENDM
                 
                 	.MACRO __DELAY_USW
                 	LDI  R24,LOW(@0)
                 	LDI  R25,HIGH(@0)
                 __DELAY_USW_LOOP:
                 	SBIW R24,1
                 	BRNE __DELAY_USW_LOOP
                 	.ENDM
                 
                 	.MACRO __GETD1S
                 	LDD  R30,Y+@0
                 	LDD  R31,Y+@0+1
                 	LDD  R22,Y+@0+2
                 	LDD  R23,Y+@0+3
                 	.ENDM
                 
                 	.MACRO __GETD2S
                 	LDD  R26,Y+@0
                 	LDD  R27,Y+@0+1
                 	LDD  R24,Y+@0+2
                 	LDD  R25,Y+@0+3
                 	.ENDM
                 
                 	.MACRO __PUTD1S
                 	STD  Y+@0,R30
                 	STD  Y+@0+1,R31
                 	STD  Y+@0+2,R22
                 	STD  Y+@0+3,R23
                 	.ENDM
                 
                 	.MACRO __PUTD2S
                 	STD  Y+@0,R26
                 	STD  Y+@0+1,R27
                 	STD  Y+@0+2,R24
                 	STD  Y+@0+3,R25
                 	.ENDM
                 
                 	.MACRO __PUTDZ2
                 	STD  Z+@0,R26
                 	STD  Z+@0+1,R27
                 	STD  Z+@0+2,R24
                 	STD  Z+@0+3,R25
                 	.ENDM
                 
                 	.MACRO __CLRD1S
                 	STD  Y+@0,R30
                 	STD  Y+@0+1,R30
                 	STD  Y+@0+2,R30
                 	STD  Y+@0+3,R30
                 	.ENDM
                 
                 	.MACRO __POINTB1MN
                 	LDI  R30,LOW(@0+(@1))
                 	.ENDM
                 
                 	.MACRO __POINTW1MN
                 	LDI  R30,LOW(@0+(@1))
                 	LDI  R31,HIGH(@0+(@1))
                 	.ENDM
                 
                 	.MACRO __POINTD1M
                 	LDI  R30,LOW(@0)
                 	LDI  R31,HIGH(@0)
                 	LDI  R22,BYTE3(@0)
                 	LDI  R23,BYTE4(@0)
                 	.ENDM
                 
                 	.MACRO __POINTW1FN
                 	LDI  R30,LOW(2*@0+(@1))
                 	LDI  R31,HIGH(2*@0+(@1))
                 	.ENDM
                 
                 	.MACRO __POINTD1FN
                 	LDI  R30,LOW(2*@0+(@1))
                 	LDI  R31,HIGH(2*@0+(@1))
                 	LDI  R22,BYTE3(2*@0+(@1))
                 	LDI  R23,BYTE4(2*@0+(@1))
                 	.ENDM
                 
                 	.MACRO __POINTB2MN
                 	LDI  R26,LOW(@0+(@1))
                 	.ENDM
                 
                 	.MACRO __POINTW2MN
                 	LDI  R26,LOW(@0+(@1))
                 	LDI  R27,HIGH(@0+(@1))
                 	.ENDM
                 
                 	.MACRO __POINTW2FN
                 	LDI  R26,LOW(2*@0+(@1))
                 	LDI  R27,HIGH(2*@0+(@1))
                 	.ENDM
                 
                 	.MACRO __POINTD2FN
                 	LDI  R26,LOW(2*@0+(@1))
                 	LDI  R27,HIGH(2*@0+(@1))
                 	LDI  R24,BYTE3(2*@0+(@1))
                 	LDI  R25,BYTE4(2*@0+(@1))
                 	.ENDM
                 
                 	.MACRO __POINTBRM
                 	LDI  R@0,LOW(@1)
                 	.ENDM
                 
                 	.MACRO __POINTWRM
                 	LDI  R@0,LOW(@2)
                 	LDI  R@1,HIGH(@2)
                 	.ENDM
                 
                 	.MACRO __POINTBRMN
                 	LDI  R@0,LOW(@1+(@2))
                 	.ENDM
                 
                 	.MACRO __POINTWRMN
                 	LDI  R@0,LOW(@2+(@3))
                 	LDI  R@1,HIGH(@2+(@3))
                 	.ENDM
                 
                 	.MACRO __POINTWRFN
                 	LDI  R@0,LOW(@2*2+(@3))
                 	LDI  R@1,HIGH(@2*2+(@3))
                 	.ENDM
                 
                 	.MACRO __GETD1N
                 	LDI  R30,LOW(@0)
                 	LDI  R31,HIGH(@0)
                 	LDI  R22,BYTE3(@0)
                 	LDI  R23,BYTE4(@0)
                 	.ENDM
                 
                 	.MACRO __GETD2N
                 	LDI  R26,LOW(@0)
                 	LDI  R27,HIGH(@0)
                 	LDI  R24,BYTE3(@0)
                 	LDI  R25,BYTE4(@0)
                 	.ENDM
                 
                 	.MACRO __GETB1MN
                 	LDS  R30,@0+(@1)
                 	.ENDM
                 
                 	.MACRO __GETB1HMN
                 	LDS  R31,@0+(@1)
                 	.ENDM
                 
                 	.MACRO __GETW1MN
                 	LDS  R30,@0+(@1)
                 	LDS  R31,@0+(@1)+1
                 	.ENDM
                 
                 	.MACRO __GETD1MN
                 	LDS  R30,@0+(@1)
                 	LDS  R31,@0+(@1)+1
                 	LDS  R22,@0+(@1)+2
                 	LDS  R23,@0+(@1)+3
                 	.ENDM
                 
                 	.MACRO __GETBRMN
                 	LDS  R@0,@1+(@2)
                 	.ENDM
                 
                 	.MACRO __GETWRMN
                 	LDS  R@0,@2+(@3)
                 	LDS  R@1,@2+(@3)+1
                 	.ENDM
                 
                 	.MACRO __GETWRZ
                 	LDD  R@0,Z+@2
                 	LDD  R@1,Z+@2+1
                 	.ENDM
                 
                 	.MACRO __GETD2Z
                 	LDD  R26,Z+@0
                 	LDD  R27,Z+@0+1
                 	LDD  R24,Z+@0+2
                 	LDD  R25,Z+@0+3
                 	.ENDM
                 
                 	.MACRO __GETB2MN
                 	LDS  R26,@0+(@1)
                 	.ENDM
                 
                 	.MACRO __GETW2MN
                 	LDS  R26,@0+(@1)
                 	LDS  R27,@0+(@1)+1
                 	.ENDM
                 
                 	.MACRO __GETD2MN
                 	LDS  R26,@0+(@1)
                 	LDS  R27,@0+(@1)+1
                 	LDS  R24,@0+(@1)+2
                 	LDS  R25,@0+(@1)+3
                 	.ENDM
                 
                 	.MACRO __PUTB1MN
                 	STS  @0+(@1),R30
                 	.ENDM
                 
                 	.MACRO __PUTW1MN
                 	STS  @0+(@1),R30
                 	STS  @0+(@1)+1,R31
                 	.ENDM
                 
                 	.MACRO __PUTD1MN
                 	STS  @0+(@1),R30
                 	STS  @0+(@1)+1,R31
                 	STS  @0+(@1)+2,R22
                 	STS  @0+(@1)+3,R23
                 	.ENDM
                 
                 	.MACRO __PUTB1EN
                 	LDI  R26,LOW(@0+(@1))
                 	LDI  R27,HIGH(@0+(@1))
                 	CALL __EEPROMWRB
                 	.ENDM
                 
                 	.MACRO __PUTW1EN
                 	LDI  R26,LOW(@0+(@1))
                 	LDI  R27,HIGH(@0+(@1))
                 	CALL __EEPROMWRW
                 	.ENDM
                 
                 	.MACRO __PUTD1EN
                 	LDI  R26,LOW(@0+(@1))
                 	LDI  R27,HIGH(@0+(@1))
                 	CALL __EEPROMWRD
                 	.ENDM
                 
                 	.MACRO __PUTBR0MN
                 	STS  @0+(@1),R0
                 	.ENDM
                 
                 	.MACRO __PUTBMRN
                 	STS  @0+(@1),R@2
                 	.ENDM
                 
                 	.MACRO __PUTWMRN
                 	STS  @0+(@1),R@2
                 	STS  @0+(@1)+1,R@3
                 	.ENDM
                 
                 	.MACRO __PUTBZR
                 	STD  Z+@1,R@0
                 	.ENDM
                 
                 	.MACRO __PUTWZR
                 	STD  Z+@2,R@0
                 	STD  Z+@2+1,R@1
                 	.ENDM
                 
                 	.MACRO __GETW1R
                 	MOV  R30,R@0
                 	MOV  R31,R@1
                 	.ENDM
                 
                 	.MACRO __GETW2R
                 	MOV  R26,R@0
                 	MOV  R27,R@1
                 	.ENDM
                 
                 	.MACRO __GETWRN
                 	LDI  R@0,LOW(@2)
                 	LDI  R@1,HIGH(@2)
                 	.ENDM
                 
                 	.MACRO __PUTW1R
                 	MOV  R@0,R30
                 	MOV  R@1,R31
                 	.ENDM
                 
                 	.MACRO __PUTW2R
                 	MOV  R@0,R26
                 	MOV  R@1,R27
                 	.ENDM
                 
                 	.MACRO __ADDWRN
                 	SUBI R@0,LOW(-@2)
                 	SBCI R@1,HIGH(-@2)
                 	.ENDM
                 
                 	.MACRO __ADDWRR
                 	ADD  R@0,R@2
                 	ADC  R@1,R@3
                 	.ENDM
                 
                 	.MACRO __SUBWRN
                 	SUBI R@0,LOW(@2)
                 	SBCI R@1,HIGH(@2)
                 	.ENDM
                 
                 	.MACRO __SUBWRR
                 	SUB  R@0,R@2
                 	SBC  R@1,R@3
                 	.ENDM
                 
                 	.MACRO __ANDWRN
                 	ANDI R@0,LOW(@2)
                 	ANDI R@1,HIGH(@2)
                 	.ENDM
                 
                 	.MACRO __ANDWRR
                 	AND  R@0,R@2
                 	AND  R@1,R@3
                 	.ENDM
                 
                 	.MACRO __ORWRN
                 	ORI  R@0,LOW(@2)
                 	ORI  R@1,HIGH(@2)
                 	.ENDM
                 
                 	.MACRO __ORWRR
                 	OR   R@0,R@2
                 	OR   R@1,R@3
                 	.ENDM
                 
                 	.MACRO __EORWRR
                 	EOR  R@0,R@2
                 	EOR  R@1,R@3
                 	.ENDM
                 
                 	.MACRO __GETWRS
                 	LDD  R@0,Y+@2
                 	LDD  R@1,Y+@2+1
                 	.ENDM
                 
                 	.MACRO __PUTBSR
                 	STD  Y+@1,R@0
                 	.ENDM
                 
                 	.MACRO __PUTWSR
                 	STD  Y+@2,R@0
                 	STD  Y+@2+1,R@1
                 	.ENDM
                 
                 	.MACRO __MOVEWRR
                 	MOV  R@0,R@2
                 	MOV  R@1,R@3
                 	.ENDM
                 
                 	.MACRO __INWR
                 	IN   R@0,@2
                 	IN   R@1,@2+1
                 	.ENDM
                 
                 	.MACRO __OUTWR
                 	OUT  @2+1,R@1
                 	OUT  @2,R@0
                 	.ENDM
                 
                 	.MACRO __CALL1MN
                 	LDS  R30,@0+(@1)
                 	LDS  R31,@0+(@1)+1
                 	ICALL
                 	.ENDM
                 
                 	.MACRO __CALL1FN
                 	LDI  R30,LOW(2*@0+(@1))
                 	LDI  R31,HIGH(2*@0+(@1))
                 	CALL __GETW1PF
                 	ICALL
                 	.ENDM
                 
                 	.MACRO __CALL2EN
                 	PUSH R26
                 	PUSH R27
                 	LDI  R26,LOW(@0+(@1))
                 	LDI  R27,HIGH(@0+(@1))
                 	CALL __EEPROMRDW
                 	POP  R27
                 	POP  R26
                 	ICALL
                 	.ENDM
                 
                 	.MACRO __CALL2EX
                 	SUBI R26,LOW(-@0)
                 	SBCI R27,HIGH(-@0)
                 	CALL __EEPROMRDD
                 	ICALL
                 	.ENDM
                 
                 	.MACRO __GETW1STACK
                 	IN   R30,SPL
                 	IN   R31,SPH
                 	ADIW R30,@0+1
                 	LD   R0,Z+
                 	LD   R31,Z
                 	MOV  R30,R0
                 	.ENDM
                 
                 	.MACRO __GETD1STACK
                 	IN   R30,SPL
                 	IN   R31,SPH
                 	ADIW R30,@0+1
                 	LD   R0,Z+
                 	LD   R1,Z+
                 	LD   R22,Z
                 	MOVW R30,R0
                 	.ENDM
                 
                 	.MACRO __NBST
                 	BST  R@0,@1
                 	IN   R30,SREG
                 	LDI  R31,0x40
                 	EOR  R30,R31
                 	OUT  SREG,R30
                 	.ENDM
                 
                 
                 	.MACRO __PUTB1SN
                 	LDD  R26,Y+@0
                 	LDD  R27,Y+@0+1
                 	SUBI R26,LOW(-@1)
                 	SBCI R27,HIGH(-@1)
                 	ST   X,R30
                 	.ENDM
                 
                 	.MACRO __PUTW1SN
                 	LDD  R26,Y+@0
                 	LDD  R27,Y+@0+1
                 	SUBI R26,LOW(-@1)
                 	SBCI R27,HIGH(-@1)
                 	ST   X+,R30
                 	ST   X,R31
                 	.ENDM
                 
                 	.MACRO __PUTD1SN
                 	LDD  R26,Y+@0
                 	LDD  R27,Y+@0+1
                 	SUBI R26,LOW(-@1)
                 	SBCI R27,HIGH(-@1)
                 	CALL __PUTDP1
                 	.ENDM
                 
                 	.MACRO __PUTB1SNS
                 	LDD  R26,Y+@0
                 	LDD  R27,Y+@0+1
                 	ADIW R26,@1
                 	ST   X,R30
                 	.ENDM
                 
                 	.MACRO __PUTW1SNS
                 	LDD  R26,Y+@0
                 	LDD  R27,Y+@0+1
                 	ADIW R26,@1
                 	ST   X+,R30
                 	ST   X,R31
                 	.ENDM
                 
                 	.MACRO __PUTD1SNS
                 	LDD  R26,Y+@0
                 	LDD  R27,Y+@0+1
                 	ADIW R26,@1
                 	CALL __PUTDP1
                 	.ENDM
                 
                 	.MACRO __PUTB1PMN
                 	LDS  R26,@0
                 	LDS  R27,@0+1
                 	SUBI R26,LOW(-@1)
                 	SBCI R27,HIGH(-@1)
                 	ST   X,R30
                 	.ENDM
                 
                 	.MACRO __PUTW1PMN
                 	LDS  R26,@0
                 	LDS  R27,@0+1
                 	SUBI R26,LOW(-@1)
                 	SBCI R27,HIGH(-@1)
                 	ST   X+,R30
                 	ST   X,R31
                 	.ENDM
                 
                 	.MACRO __PUTD1PMN
                 	LDS  R26,@0
                 	LDS  R27,@0+1
                 	SUBI R26,LOW(-@1)
                 	SBCI R27,HIGH(-@1)
                 	CALL __PUTDP1
                 	.ENDM
                 
                 	.MACRO __PUTB1PMNS
                 	LDS  R26,@0
                 	LDS  R27,@0+1
                 	ADIW R26,@1
                 	ST   X,R30
                 	.ENDM
                 
                 	.MACRO __PUTW1PMNS
                 	LDS  R26,@0
                 	LDS  R27,@0+1
                 	ADIW R26,@1
                 	ST   X+,R30
                 	ST   X,R31
                 	.ENDM
                 
                 	.MACRO __PUTD1PMNS
                 	LDS  R26,@0
                 	LDS  R27,@0+1
                 	ADIW R26,@1
                 	CALL __PUTDP1
                 	.ENDM
                 
                 	.MACRO __PUTB1RN
                 	MOVW R26,R@0
                 	SUBI R26,LOW(-@1)
                 	SBCI R27,HIGH(-@1)
                 	ST   X,R30
                 	.ENDM
                 
                 	.MACRO __PUTW1RN
                 	MOVW R26,R@0
                 	SUBI R26,LOW(-@1)
                 	SBCI R27,HIGH(-@1)
                 	ST   X+,R30
                 	ST   X,R31
                 	.ENDM
                 
                 	.MACRO __PUTD1RN
                 	MOVW R26,R@0
                 	SUBI R26,LOW(-@1)
                 	SBCI R27,HIGH(-@1)
                 	CALL __PUTDP1
                 	.ENDM
                 
                 	.MACRO __PUTB1RNS
                 	MOVW R26,R@0
                 	ADIW R26,@1
                 	ST   X,R30
                 	.ENDM
                 
                 	.MACRO __PUTW1RNS
                 	MOVW R26,R@0
                 	ADIW R26,@1
                 	ST   X+,R30
                 	ST   X,R31
                 	.ENDM
                 
                 	.MACRO __PUTD1RNS
                 	MOVW R26,R@0
                 	ADIW R26,@1
                 	CALL __PUTDP1
                 	.ENDM
                 
                 	.MACRO __PUTB1RON
                 	MOV  R26,R@0
                 	MOV  R27,R@1
                 	SUBI R26,LOW(-@2)
                 	SBCI R27,HIGH(-@2)
                 	ST   X,R30
                 	.ENDM
                 
                 	.MACRO __PUTW1RON
                 	MOV  R26,R@0
                 	MOV  R27,R@1
                 	SUBI R26,LOW(-@2)
                 	SBCI R27,HIGH(-@2)
                 	ST   X+,R30
                 	ST   X,R31
                 	.ENDM
                 
                 	.MACRO __PUTD1RON
                 	MOV  R26,R@0
                 	MOV  R27,R@1
                 	SUBI R26,LOW(-@2)
                 	SBCI R27,HIGH(-@2)
                 	CALL __PUTDP1
                 	.ENDM
                 
                 	.MACRO __PUTB1RONS
                 	MOV  R26,R@0
                 	MOV  R27,R@1
                 	ADIW R26,@2
                 	ST   X,R30
                 	.ENDM
                 
                 	.MACRO __PUTW1RONS
                 	MOV  R26,R@0
                 	MOV  R27,R@1
                 	ADIW R26,@2
                 	ST   X+,R30
                 	ST   X,R31
                 	.ENDM
                 
                 	.MACRO __PUTD1RONS
                 	MOV  R26,R@0
                 	MOV  R27,R@1
                 	ADIW R26,@2
                 	CALL __PUTDP1
                 	.ENDM
                 
                 
                 	.MACRO __GETB1SX
                 	MOVW R30,R28
                 	SUBI R30,LOW(-@0)
                 	SBCI R31,HIGH(-@0)
                 	LD   R30,Z
                 	.ENDM
                 
                 	.MACRO __GETB1HSX
                 	MOVW R30,R28
                 	SUBI R30,LOW(-@0)
                 	SBCI R31,HIGH(-@0)
                 	LD   R31,Z
                 	.ENDM
                 
                 	.MACRO __GETW1SX
                 	MOVW R30,R28
                 	SUBI R30,LOW(-@0)
                 	SBCI R31,HIGH(-@0)
                 	LD   R0,Z+
                 	LD   R31,Z
                 	MOV  R30,R0
                 	.ENDM
                 
                 	.MACRO __GETD1SX
                 	MOVW R30,R28
                 	SUBI R30,LOW(-@0)
                 	SBCI R31,HIGH(-@0)
                 	LD   R0,Z+
                 	LD   R1,Z+
                 	LD   R22,Z+
                 	LD   R23,Z
                 	MOVW R30,R0
                 	.ENDM
                 
                 	.MACRO __GETB2SX
                 	MOVW R26,R28
                 	SUBI R26,LOW(-@0)
                 	SBCI R27,HIGH(-@0)
                 	LD   R26,X
                 	.ENDM
                 
                 	.MACRO __GETW2SX
                 	MOVW R26,R28
                 	SUBI R26,LOW(-@0)
                 	SBCI R27,HIGH(-@0)
                 	LD   R0,X+
                 	LD   R27,X
                 	MOV  R26,R0
                 	.ENDM
                 
                 	.MACRO __GETD2SX
                 	MOVW R26,R28
                 	SUBI R26,LOW(-@0)
                 	SBCI R27,HIGH(-@0)
                 	LD   R0,X+
                 	LD   R1,X+
                 	LD   R24,X+
                 	LD   R25,X
                 	MOVW R26,R0
                 	.ENDM
                 
                 	.MACRO __GETBRSX
                 	MOVW R30,R28
                 	SUBI R30,LOW(-@1)
                 	SBCI R31,HIGH(-@1)
                 	LD   R@0,Z
                 	.ENDM
                 
                 	.MACRO __GETWRSX
                 	MOVW R30,R28
                 	SUBI R30,LOW(-@2)
                 	SBCI R31,HIGH(-@2)
                 	LD   R@0,Z+
                 	LD   R@1,Z
                 	.ENDM
                 
                 	.MACRO __GETBRSX2
                 	MOVW R26,R28
                 	SUBI R26,LOW(-@1)
                 	SBCI R27,HIGH(-@1)
                 	LD   R@0,X
                 	.ENDM
                 
                 	.MACRO __GETWRSX2
                 	MOVW R26,R28
                 	SUBI R26,LOW(-@2)
                 	SBCI R27,HIGH(-@2)
                 	LD   R@0,X+
                 	LD   R@1,X
                 	.ENDM
                 
                 	.MACRO __LSLW8SX
                 	MOVW R30,R28
                 	SUBI R30,LOW(-@0)
                 	SBCI R31,HIGH(-@0)
                 	LD   R31,Z
                 	CLR  R30
                 	.ENDM
                 
                 	.MACRO __PUTB1SX
                 	MOVW R26,R28
                 	SUBI R26,LOW(-@0)
                 	SBCI R27,HIGH(-@0)
                 	ST   X,R30
                 	.ENDM
                 
                 	.MACRO __PUTW1SX
                 	MOVW R26,R28
                 	SUBI R26,LOW(-@0)
                 	SBCI R27,HIGH(-@0)
                 	ST   X+,R30
                 	ST   X,R31
                 	.ENDM
                 
                 	.MACRO __PUTD1SX
                 	MOVW R26,R28
                 	SUBI R26,LOW(-@0)
                 	SBCI R27,HIGH(-@0)
                 	ST   X+,R30
                 	ST   X+,R31
                 	ST   X+,R22
                 	ST   X,R23
                 	.ENDM
                 
                 	.MACRO __CLRW1SX
                 	MOVW R26,R28
                 	SUBI R26,LOW(-@0)
                 	SBCI R27,HIGH(-@0)
                 	ST   X+,R30
                 	ST   X,R30
                 	.ENDM
                 
                 	.MACRO __CLRD1SX
                 	MOVW R26,R28
                 	SUBI R26,LOW(-@0)
                 	SBCI R27,HIGH(-@0)
                 	ST   X+,R30
                 	ST   X+,R30
                 	ST   X+,R30
                 	ST   X,R30
                 	.ENDM
                 
                 	.MACRO __PUTB2SX
                 	MOVW R30,R28
                 	SUBI R30,LOW(-@0)
                 	SBCI R31,HIGH(-@0)
                 	ST   Z,R26
                 	.ENDM
                 
                 	.MACRO __PUTW2SX
                 	MOVW R30,R28
                 	SUBI R30,LOW(-@0)
                 	SBCI R31,HIGH(-@0)
                 	ST   Z+,R26
                 	ST   Z,R27
                 	.ENDM
                 
                 	.MACRO __PUTD2SX
                 	MOVW R30,R28
                 	SUBI R30,LOW(-@0)
                 	SBCI R31,HIGH(-@0)
                 	ST   Z+,R26
                 	ST   Z+,R27
                 	ST   Z+,R24
                 	ST   Z,R25
                 	.ENDM
                 
                 	.MACRO __PUTBSRX
                 	MOVW R30,R28
                 	SUBI R30,LOW(-@1)
                 	SBCI R31,HIGH(-@1)
                 	ST   Z,R@0
                 	.ENDM
                 
                 	.MACRO __PUTWSRX
                 	MOVW R30,R28
                 	SUBI R30,LOW(-@2)
                 	SBCI R31,HIGH(-@2)
                 	ST   Z+,R@0
                 	ST   Z,R@1
                 	.ENDM
                 
                 	.MACRO __PUTB1SNX
                 	MOVW R26,R28
                 	SUBI R26,LOW(-@0)
                 	SBCI R27,HIGH(-@0)
                 	LD   R0,X+
                 	LD   R27,X
                 	MOV  R26,R0
                 	SUBI R26,LOW(-@1)
                 	SBCI R27,HIGH(-@1)
                 	ST   X,R30
                 	.ENDM
                 
                 	.MACRO __PUTW1SNX
                 	MOVW R26,R28
                 	SUBI R26,LOW(-@0)
                 	SBCI R27,HIGH(-@0)
                 	LD   R0,X+
                 	LD   R27,X
                 	MOV  R26,R0
                 	SUBI R26,LOW(-@1)
                 	SBCI R27,HIGH(-@1)
                 	ST   X+,R30
                 	ST   X,R31
                 	.ENDM
                 
                 	.MACRO __PUTD1SNX
                 	MOVW R26,R28
                 	SUBI R26,LOW(-@0)
                 	SBCI R27,HIGH(-@0)
                 	LD   R0,X+
                 	LD   R27,X
                 	MOV  R26,R0
                 	SUBI R26,LOW(-@1)
                 	SBCI R27,HIGH(-@1)
                 	ST   X+,R30
                 	ST   X+,R31
                 	ST   X+,R22
                 	ST   X,R23
                 	.ENDM
                 
                 	.MACRO __MULBRR
                 	MULS R@0,R@1
                 	MOVW R30,R0
                 	.ENDM
                 
                 	.MACRO __MULBRRU
                 	MUL  R@0,R@1
                 	MOVW R30,R0
                 	.ENDM
                 
                 	.MACRO __MULBRR0
                 	MULS R@0,R@1
                 	.ENDM
                 
                 	.MACRO __MULBRRU0
                 	MUL  R@0,R@1
                 	.ENDM
                 
                 	.MACRO __MULBNWRU
                 	LDI  R26,@2
                 	MUL  R26,R@0
                 	MOVW R30,R0
                 	MUL  R26,R@1
                 	ADD  R31,R0
                 	.ENDM
                 
                 ;NAME DEFINITIONS FOR GLOBAL VARIABLES ALLOCATED TO REGISTERS
                 	.DEF _i=R3
                 	.DEF _i_msb=R4
                 	.DEF _j=R5
                 	.DEF _j_msb=R6
                 	.DEF _n=R7
                 	.DEF _n_msb=R8
                 	.DEF _m=R9
                 	.DEF _m_msb=R10
                 	.DEF _k=R11
                 	.DEF _k_msb=R12
                 	.DEF _o=R13
                 	.DEF _o_msb=R14
                 
                 ;GPIOR0 INITIALIZATION VALUE
                 	.EQU __GPIOR0_INIT=0x00
                 
                 	.CSEG
                 	.ORG 0x00
                 
                 ;START OF CODE MARKER
                 __START_OF_CODE:
                 
                 ;INTERRUPT VECTORS
000000 940c 1383 	JMP  __RESET
000002 940c 1657 	JMP  _ext_int0_isr
000004 940c 0000 	JMP  0x00
000006 940c 0000 	JMP  0x00
000008 940c 0000 	JMP  0x00
00000a 940c 0000 	JMP  0x00
00000c 940c 0000 	JMP  0x00
00000e 940c 0000 	JMP  0x00
000010 940c 0000 	JMP  0x00
000012 940c 189c 	JMP  _timer2_ovf_isr
000014 940c 0000 	JMP  0x00
000016 940c 0000 	JMP  0x00
000018 940c 0000 	JMP  0x00
00001a 940c 165e 	JMP  _timer1_ovf_isr
00001c 940c 0000 	JMP  0x00
00001e 940c 0000 	JMP  0x00
000020 940c 0000 	JMP  0x00
000022 940c 0000 	JMP  0x00
000024 940c 0000 	JMP  0x00
000026 940c 0000 	JMP  0x00
000028 940c 0000 	JMP  0x00
00002a 940c 0000 	JMP  0x00
00002c 940c 0000 	JMP  0x00
00002e 940c 0000 	JMP  0x00
000030 940c 234d 	JMP  _twi_int_handler
000032 940c 0000 	JMP  0x00
                 
                 _font:
000034 0000
000035 0000
000036 3e00
000037 4f5b      	.DB  0x0,0x0,0x0,0x0,0x0,0x3E,0x5B,0x4F
000038 3e5b
000039 6b3e
00003a 6b4f
00003b 1c3e      	.DB  0x5B,0x3E,0x3E,0x6B,0x4F,0x6B,0x3E,0x1C
00003c 7c3e
00003d 1c3e
00003e 3c18
00003f 3c7e      	.DB  0x3E,0x7C,0x3E,0x1C,0x18,0x3C,0x7E,0x3C
000040 1c18
000041 7d57
000042 1c57
000043 5e1c      	.DB  0x18,0x1C,0x57,0x7D,0x57,0x1C,0x1C,0x5E
000044 5e7f
000045 001c
000046 3c18
000047 0018      	.DB  0x7F,0x5E,0x1C,0x0,0x18,0x3C,0x18,0x0
000048 e7ff
000049 e7c3
00004a 00ff
00004b 2418      	.DB  0xFF,0xE7,0xC3,0xE7,0xFF,0x0,0x18,0x24
00004c 0018
00004d e7ff
00004e e7db
00004f 30ff      	.DB  0x18,0x0,0xFF,0xE7,0xDB,0xE7,0xFF,0x30
000050 3a48
000051 0e06
000052 2926
000053 2979      	.DB  0x48,0x3A,0x6,0xE,0x26,0x29,0x79,0x29
000054 4026
000055 057f
000056 0705
000057 7f40      	.DB  0x26,0x40,0x7F,0x5,0x5,0x7,0x40,0x7F
000058 2505
000059 5a3f
00005a e73c
00005b 5a3c      	.DB  0x5,0x25,0x3F,0x5A,0x3C,0xE7,0x3C,0x5A
00005c 3e7f
00005d 1c1c
00005e 0808
00005f 1c1c      	.DB  0x7F,0x3E,0x1C,0x1C,0x8,0x8,0x1C,0x1C
000060 7f3e
000061 2214
000062 227f
000063 5f14      	.DB  0x3E,0x7F,0x14,0x22,0x7F,0x22,0x14,0x5F
000064 005f
000065 5f5f
000066 0906
000067 017f      	.DB  0x5F,0x0,0x5F,0x5F,0x6,0x9,0x7F,0x1
000068 007f
000069 8966
00006a 6a95
00006b 6060      	.DB  0x7F,0x0,0x66,0x89,0x95,0x6A,0x60,0x60
00006c 6060
00006d 9460
00006e ffa2
00006f 94a2      	.DB  0x60,0x60,0x60,0x94,0xA2,0xFF,0xA2,0x94
000070 0408
000071 047e
000072 1008
000073 7e20      	.DB  0x8,0x4,0x7E,0x4,0x8,0x10,0x20,0x7E
000074 1020
000075 0808
000076 1c2a
000077 0808      	.DB  0x20,0x10,0x8,0x8,0x2A,0x1C,0x8,0x8
000078 2a1c
000079 0808
00007a 101e
00007b 1010      	.DB  0x1C,0x2A,0x8,0x8,0x1E,0x10,0x10,0x10
00007c 0c10
00007d 0c1e
00007e 0c1e
00007f 3830      	.DB  0x10,0xC,0x1E,0xC,0x1E,0xC,0x30,0x38
000080 383e
000081 0630
000082 3e0e
000083 060e      	.DB  0x3E,0x38,0x30,0x6,0xE,0x3E,0xE,0x6
000084 0000
000085 0000
000086 0000
000087 5f00      	.DB  0x0,0x0,0x0,0x0,0x0,0x0,0x0,0x5F
000088 0000
000089 0700
00008a 0700
00008b 1400      	.DB  0x0,0x0,0x0,0x7,0x0,0x7,0x0,0x14
00008c 147f
00008d 147f
00008e 2a24
00008f 2a7f      	.DB  0x7F,0x14,0x7F,0x14,0x24,0x2A,0x7F,0x2A
000090 2312
000091 0813
000092 6264
000093 4936      	.DB  0x12,0x23,0x13,0x8,0x64,0x62,0x36,0x49
000094 2056
000095 0050
000096 0708
000097 0003      	.DB  0x56,0x20,0x50,0x0,0x8,0x7,0x3,0x0
000098 1c00
000099 4122
00009a 0000
00009b 2241      	.DB  0x0,0x1C,0x22,0x41,0x0,0x0,0x41,0x22
00009c 001c
00009d 1c2a
00009e 1c7f
00009f 082a      	.DB  0x1C,0x0,0x2A,0x1C,0x7F,0x1C,0x2A,0x8
0000a0 3e08
0000a1 0808
0000a2 8000
0000a3 3070      	.DB  0x8,0x3E,0x8,0x8,0x0,0x80,0x70,0x30
0000a4 0800
0000a5 0808
0000a6 0808
0000a7 0000      	.DB  0x0,0x8,0x8,0x8,0x8,0x8,0x0,0x0
0000a8 6060
0000a9 2000
0000aa 0810
0000ab 0204      	.DB  0x60,0x60,0x0,0x20,0x10,0x8,0x4,0x2
0000ac 513e
0000ad 4549
0000ae 003e
0000af 7f42      	.DB  0x3E,0x51,0x49,0x45,0x3E,0x0,0x42,0x7F
0000b0 0040
0000b1 4972
0000b2 4949
0000b3 2146      	.DB  0x40,0x0,0x72,0x49,0x49,0x49,0x46,0x21
0000b4 4941
0000b5 334d
0000b6 1418
0000b7 7f12      	.DB  0x41,0x49,0x4D,0x33,0x18,0x14,0x12,0x7F
0000b8 2710
0000b9 4545
0000ba 3945
0000bb 4a3c      	.DB  0x10,0x27,0x45,0x45,0x45,0x39,0x3C,0x4A
0000bc 4949
0000bd 4131
0000be 1121
0000bf 0709      	.DB  0x49,0x49,0x31,0x41,0x21,0x11,0x9,0x7
0000c0 4936
0000c1 4949
0000c2 4636
0000c3 4949      	.DB  0x36,0x49,0x49,0x49,0x36,0x46,0x49,0x49
0000c4 1e29
0000c5 0000
0000c6 0014
0000c7 0000      	.DB  0x29,0x1E,0x0,0x0,0x14,0x0,0x0,0x0
0000c8 3440
0000c9 0000
0000ca 0800
0000cb 2214      	.DB  0x40,0x34,0x0,0x0,0x0,0x8,0x14,0x22
0000cc 1441
0000cd 1414
0000ce 1414
0000cf 4100      	.DB  0x41,0x14,0x14,0x14,0x14,0x14,0x0,0x41
0000d0 1422
0000d1 0208
0000d2 5901
0000d3 0609      	.DB  0x22,0x14,0x8,0x2,0x1,0x59,0x9,0x6
0000d4 413e
0000d5 595d
0000d6 7c4e
0000d7 1112      	.DB  0x3E,0x41,0x5D,0x59,0x4E,0x7C,0x12,0x11
0000d8 7c12
0000d9 497f
0000da 4949
0000db 3e36      	.DB  0x12,0x7C,0x7F,0x49,0x49,0x49,0x36,0x3E
0000dc 4141
0000dd 2241
0000de 417f
0000df 4141      	.DB  0x41,0x41,0x41,0x22,0x7F,0x41,0x41,0x41
0000e0 7f3e
0000e1 4949
0000e2 4149
0000e3 097f      	.DB  0x3E,0x7F,0x49,0x49,0x49,0x41,0x7F,0x9
0000e4 0909
0000e5 3e01
0000e6 4141
0000e7 7351      	.DB  0x9,0x9,0x1,0x3E,0x41,0x41,0x51,0x73
0000e8 087f
0000e9 0808
0000ea 007f
0000eb 7f41      	.DB  0x7F,0x8,0x8,0x8,0x7F,0x0,0x41,0x7F
0000ec 0041
0000ed 4020
0000ee 3f41
0000ef 7f01      	.DB  0x41,0x0,0x20,0x40,0x41,0x3F,0x1,0x7F
0000f0 1408
0000f1 4122
0000f2 407f
0000f3 4040      	.DB  0x8,0x14,0x22,0x41,0x7F,0x40,0x40,0x40
0000f4 7f40
0000f5 1c02
0000f6 7f02
0000f7 047f      	.DB  0x40,0x7F,0x2,0x1C,0x2,0x7F,0x7F,0x4
0000f8 1008
0000f9 3e7f
0000fa 4141
0000fb 3e41      	.DB  0x8,0x10,0x7F,0x3E,0x41,0x41,0x41,0x3E
0000fc 097f
0000fd 0909
0000fe 3e06
0000ff 5141      	.DB  0x7F,0x9,0x9,0x9,0x6,0x3E,0x41,0x51
000100 5e21
000101 097f
000102 2919
000103 2646      	.DB  0x21,0x5E,0x7F,0x9,0x19,0x29,0x46,0x26
000104 4949
000105 3249
000106 0103
000107 017f      	.DB  0x49,0x49,0x49,0x32,0x3,0x1,0x7F,0x1
000108 3f03
000109 4040
00010a 3f40
00010b 201f      	.DB  0x3,0x3F,0x40,0x40,0x40,0x3F,0x1F,0x20
00010c 2040
00010d 3f1f
00010e 3840
00010f 3f40      	.DB  0x40,0x20,0x1F,0x3F,0x40,0x38,0x40,0x3F
000110 1463
000111 1408
000112 0363
000113 7804      	.DB  0x63,0x14,0x8,0x14,0x63,0x3,0x4,0x78
000114 0304
000115 5961
000116 4d49
000117 0043      	.DB  0x4,0x3,0x61,0x59,0x49,0x4D,0x43,0x0
000118 417f
000119 4141
00011a 0402
00011b 1008      	.DB  0x7F,0x41,0x41,0x41,0x2,0x4,0x8,0x10
00011c 0020
00011d 4141
00011e 7f41
00011f 0204      	.DB  0x20,0x0,0x41,0x41,0x41,0x7F,0x4,0x2
000120 0201
000121 4004
000122 4040
000123 4040      	.DB  0x1,0x2,0x4,0x40,0x40,0x40,0x40,0x40
000124 0300
000125 0807
000126 2000
000127 5454      	.DB  0x0,0x3,0x7,0x8,0x0,0x20,0x54,0x54
000128 4078
000129 287f
00012a 4444
00012b 3838      	.DB  0x78,0x40,0x7F,0x28,0x44,0x44,0x38,0x38
00012c 4444
00012d 2844
00012e 4438
00012f 2844      	.DB  0x44,0x44,0x44,0x28,0x38,0x44,0x44,0x28
000130 387f
000131 5454
000132 1854
000133 0800      	.DB  0x7F,0x38,0x54,0x54,0x54,0x18,0x0,0x8
000134 097e
000135 1802
000136 a4a4
000137 789c      	.DB  0x7E,0x9,0x2,0x18,0xA4,0xA4,0x9C,0x78
000138 087f
000139 0404
00013a 0078
00013b 7d44      	.DB  0x7F,0x8,0x4,0x4,0x78,0x0,0x44,0x7D
00013c 0040
00013d 4020
00013e 3d40
00013f 7f00      	.DB  0x40,0x0,0x20,0x40,0x40,0x3D,0x0,0x7F
000140 2810
000141 0044
000142 4100
000143 407f      	.DB  0x10,0x28,0x44,0x0,0x0,0x41,0x7F,0x40
000144 7c00
000145 7804
000146 7804
000147 087c      	.DB  0x0,0x7C,0x4,0x78,0x4,0x78,0x7C,0x8
000148 0404
000149 3878
00014a 4444
00014b 3844      	.DB  0x4,0x4,0x78,0x38,0x44,0x44,0x44,0x38
00014c 18fc
00014d 2424
00014e 1818
00014f 2424      	.DB  0xFC,0x18,0x24,0x24,0x18,0x18,0x24,0x24
000150 fc18
000151 087c
000152 0404
000153 4808      	.DB  0x18,0xFC,0x7C,0x8,0x4,0x4,0x8,0x48
000154 5454
000155 2454
000156 0404
000157 443f      	.DB  0x54,0x54,0x54,0x24,0x4,0x4,0x3F,0x44
000158 3c24
000159 4040
00015a 7c20
00015b 201c      	.DB  0x24,0x3C,0x40,0x40,0x20,0x7C,0x1C,0x20
00015c 2040
00015d 3c1c
00015e 3040
00015f 3c40      	.DB  0x40,0x20,0x1C,0x3C,0x40,0x30,0x40,0x3C
000160 2844
000161 2810
000162 4c44
000163 9090      	.DB  0x44,0x28,0x10,0x28,0x44,0x4C,0x90,0x90
000164 7c90
000165 6444
000166 4c54
000167 0044      	.DB  0x90,0x7C,0x44,0x64,0x54,0x4C,0x44,0x0
000168 3608
000169 0041
00016a 0000
00016b 0077      	.DB  0x8,0x36,0x41,0x0,0x0,0x0,0x77,0x0
00016c 0000
00016d 3641
00016e 0008
00016f 0102      	.DB  0x0,0x0,0x41,0x36,0x8,0x0,0x2,0x1
000170 0402
000171 3c02
000172 2326
000173 3c26      	.DB  0x2,0x4,0x2,0x3C,0x26,0x23,0x26,0x3C
000174 0000
000175 0000
000176 7f00
000177 0101      	.DB  0x0,0x0,0x0,0x0,0x0,0x7F,0x1,0x1
000178 0301
000179 0000
00017a 0000
00017b 0000      	.DB  0x1,0x3,0x0,0x0,0x0,0x0,0x0,0x0
00017c 0000
00017d 0000
00017e 0000
00017f 0000      	.DB  0x0,0x0,0x0,0x0,0x0,0x0,0x0,0x0
000180 0000
000181 0000
000182 0000
000183 0000      	.DB  0x0,0x0,0x0,0x0,0x0,0x0,0x0,0x0
000184 0000
000185 0000
000186 0000
000187 0000      	.DB  0x0,0x0,0x0,0x0,0x0,0x0,0x0,0x0
000188 0000
000189 0000
00018a 0000
00018b 0000      	.DB  0x0,0x0,0x0,0x0,0x0,0x0,0x0,0x0
00018c 0000
00018d 0000
00018e 0000
00018f 0000      	.DB  0x0,0x0,0x0,0x0,0x0,0x0,0x0,0x0
000190 0000
000191 0000
000192 0000
000193 0000      	.DB  0x0,0x0,0x0,0x0,0x0,0x0,0x0,0x0
000194 0000
000195 0000
000196 0000
000197 0000      	.DB  0x0,0x0,0x0,0x0,0x0,0x0,0x0,0x0
000198 0000
000199 0000
00019a 0000
00019b 0000      	.DB  0x0,0x0,0x0,0x0,0x0,0x0,0x0,0x0
00019c 0000
00019d 0000
00019e 0000
00019f 0000      	.DB  0x0,0x0,0x0,0x0,0x0,0x0,0x0,0x0
0001a0 0000
0001a1 0000
0001a2 0000
0001a3 0000      	.DB  0x0,0x0,0x0,0x0,0x0,0x0,0x0,0x0
0001a4 0000
0001a5 0000
0001a6 0000
0001a7 0000      	.DB  0x0,0x0,0x0,0x0,0x0,0x0,0x0,0x0
0001a8 0000
0001a9 0000
0001aa 0000
0001ab 0000      	.DB  0x0,0x0,0x0,0x0,0x0,0x0,0x0,0x0
0001ac 0000
0001ad 0000
0001ae 0000
0001af 0000      	.DB  0x0,0x0,0x0,0x0,0x0,0x0,0x0,0x0
0001b0 0000
0001b1 0000
0001b2 0000
0001b3 0000      	.DB  0x0,0x0,0x0,0x0,0x0,0x0,0x0,0x0
0001b4 0000
0001b5 0000
0001b6 0000
0001b7 0000      	.DB  0x0,0x0,0x0,0x0,0x0,0x0,0x0,0x0
0001b8 0000
0001b9 0000
0001ba 0000
0001bb 0000      	.DB  0x0,0x0,0x0,0x0,0x0,0x0,0x0,0x0
0001bc 0000
0001bd 0000
0001be 0000
0001bf 0000      	.DB  0x0,0x0,0x0,0x0,0x0,0x0,0x0,0x0
0001c0 0000
0001c1 0000
0001c2 0000
0001c3 0000      	.DB  0x0,0x0,0x0,0x0,0x0,0x0,0x0,0x0
0001c4 0000
0001c5 0000
0001c6 0000
0001c7 0000      	.DB  0x0,0x0,0x0,0x0,0x0,0x0,0x0,0x0
0001c8 0000
0001c9 0000
0001ca 0000
0001cb 0000      	.DB  0x0,0x0,0x0,0x0,0x0,0x0,0x0,0x0
0001cc 0000
0001cd 0000
0001ce 0000
0001cf 0000      	.DB  0x0,0x0,0x0,0x0,0x0,0x0,0x0,0x0
0001d0 7f00
0001d1 0101
0001d2 0301
0001d3 0000      	.DB  0x0,0x7F,0x1,0x1,0x1,0x3,0x0,0x0
0001d4 0000
0001d5 0000
0001d6 0000
0001d7 0000      	.DB  0x0,0x0,0x0,0x0,0x0,0x0,0x0,0x0
0001d8 497f
0001d9 4949
0001da 0049
0001db 0000      	.DB  0x7F,0x49,0x49,0x49,0x49,0x0,0x0,0x0
0001dc 0000
0001dd 493e
0001de 4149
0001df 0022      	.DB  0x0,0x0,0x3E,0x49,0x49,0x41,0x22,0x0
0001e0 0000
0001e1 0000
0001e2 0000
0001e3 0000      	.DB  0x0,0x0,0x0,0x0,0x0,0x0,0x0,0x0
0001e4 0000
0001e5 0000
0001e6 0000
0001e7 0000      	.DB  0x0,0x0,0x0,0x0,0x0,0x0,0x0,0x0
0001e8 0000
0001e9 0000
0001ea 7e43
0001eb 0043      	.DB  0x0,0x0,0x0,0x0,0x43,0x7E,0x43,0x0
0001ec 0000
0001ed 0000
0001ee 0000
0001ef 0000      	.DB  0x0,0x0,0x0,0x0,0x0,0x0,0x0,0x0
0001f0 0000
0001f1 4100
0001f2 417f
0001f3 0000      	.DB  0x0,0x0,0x0,0x41,0x7F,0x41,0x0,0x0
0001f4 7d44
0001f5 0040
0001f6 047c
0001f7 0404      	.DB  0x44,0x7D,0x40,0x0,0x7C,0x4,0x4,0x4
0001f8 000c
0001f9 0000
0001fa 0000
0001fb 0000      	.DB  0xC,0x0,0x0,0x0,0x0,0x0,0x0,0x0
0001fc 0000
0001fd 0000
0001fe 0000
0001ff 0000      	.DB  0x0,0x0,0x0,0x0,0x0,0x0,0x0,0x0
000200 5438
000201 5454
000202 0008
000203 0000      	.DB  0x38,0x54,0x54,0x54,0x8,0x0,0x0,0x0
000204 0000
000205 5438
000206 4454
000207 0028      	.DB  0x0,0x0,0x38,0x54,0x54,0x44,0x28,0x0
000208 0000
000209 0000
00020a 0000
00020b 0000      	.DB  0x0,0x0,0x0,0x0,0x0,0x0,0x0,0x0
00020c 0000
00020d 0000
00020e 0000
00020f 0000      	.DB  0x0,0x0,0x0,0x0,0x0,0x0,0x0,0x0
000210 0000
000211 0000
000212 7c45
000213 0041      	.DB  0x0,0x0,0x0,0x0,0x45,0x7C,0x41,0x0
000214 117e
000215 1111
000216 7f7e
000217 4949      	.DB  0x7E,0x11,0x11,0x11,0x7E,0x7F,0x49,0x49
000218 3349
000219 497f
00021a 4949
00021b 7f36      	.DB  0x49,0x33,0x7F,0x49,0x49,0x49,0x36,0x7F
00021c 0101
00021d 0301
00021e 51e0
00021f 414f      	.DB  0x1,0x1,0x1,0x3,0xE0,0x51,0x4F,0x41
000220 7fff
000221 4949
000222 4949
000223 0877      	.DB  0xFF,0x7F,0x49,0x49,0x49,0x49,0x77,0x8
000224 087f
000225 4977
000226 4949
000227 3649      	.DB  0x7F,0x8,0x77,0x49,0x49,0x49,0x49,0x36
000228 107f
000229 0408
00022a 7c7f
00022b 1221      	.DB  0x7F,0x10,0x8,0x4,0x7F,0x7C,0x21,0x12
00022c 7c09
00022d 087f
00022e 2214
00022f 2041      	.DB  0x9,0x7C,0x7F,0x8,0x14,0x22,0x41,0x20
000230 3f41
000231 7f01
000232 027f
000233 020c      	.DB  0x41,0x3F,0x1,0x7F,0x7F,0x2,0xC,0x2
000234 7f7f
000235 0808
000236 7f08
000237 413e      	.DB  0x7F,0x7F,0x8,0x8,0x8,0x7F,0x3E,0x41
000238 4141
000239 7f3e
00023a 0101
00023b 7f01      	.DB  0x41,0x41,0x3E,0x7F,0x1,0x1,0x1,0x7F
00023c 097f
00023d 0909
00023e 3e06
00023f 4141      	.DB  0x7F,0x9,0x9,0x9,0x6,0x3E,0x41,0x41
000240 2241
000241 0101
000242 017f
000243 2701      	.DB  0x41,0x22,0x1,0x1,0x7F,0x1,0x1,0x27
000244 4848
000245 3f48
000246 221c
000247 227f      	.DB  0x48,0x48,0x48,0x3F,0x1C,0x22,0x7F,0x22
000248 631c
000249 0814
00024a 6314
00024b 407f      	.DB  0x1C,0x63,0x14,0x8,0x14,0x63,0x7F,0x40
00024c 4040
00024d 07ff
00024e 0808
00024f 7f08      	.DB  0x40,0x40,0xFF,0x7,0x8,0x8,0x8,0x7F
000250 407f
000251 407f
000252 7f7f
000253 7f40      	.DB  0x7F,0x40,0x7F,0x40,0x7F,0x7F,0x40,0x7F
000254 ff40
000255 7f01
000256 4848
000257 7f30      	.DB  0x40,0xFF,0x1,0x7F,0x48,0x48,0x30,0x7F
000258 3048
000259 7f00
00025a 487f
00025b 3048      	.DB  0x48,0x30,0x0,0x7F,0x7F,0x48,0x48,0x30
00025c 2200
00025d 4941
00025e 3e49
00025f 087f      	.DB  0x0,0x22,0x41,0x49,0x49,0x3E,0x7F,0x8
000260 413e
000261 463e
000262 1929
000263 7f09      	.DB  0x3E,0x41,0x3E,0x46,0x29,0x19,0x9,0x7F
000264 5420
000265 5454
000266 3c78
000267 4a4a      	.DB  0x20,0x54,0x54,0x54,0x78,0x3C,0x4A,0x4A
000268 3149
000269 547c
00026a 2854
00026b 7c00      	.DB  0x49,0x31,0x7C,0x54,0x54,0x28,0x0,0x7C
00026c 0404
00026d 0c04
00026e 54e0
00026f 444c      	.DB  0x4,0x4,0x4,0xC,0xE0,0x54,0x4C,0x44
000270 38fc
000271 5454
000272 0854
000273 106c      	.DB  0xFC,0x38,0x54,0x54,0x54,0x8,0x6C,0x10
000274 107c
000275 446c
000276 5444
000277 2854      	.DB  0x7C,0x10,0x6C,0x44,0x44,0x54,0x54,0x28
000278 207c
000279 0810
00027a 787c
00027b 2442      	.DB  0x7C,0x20,0x10,0x8,0x7C,0x78,0x42,0x24
00027c 7812
00027d 107c
00027e 4428
00027f 2000      	.DB  0x12,0x78,0x7C,0x10,0x28,0x44,0x0,0x20
000280 3c44
000281 7c04
000282 087c
000283 0810      	.DB  0x44,0x3C,0x4,0x7C,0x7C,0x8,0x10,0x8
000284 7c7c
000285 1010
000286 7c10
000287 4438      	.DB  0x7C,0x7C,0x10,0x10,0x10,0x7C,0x38,0x44
000288 4444
000289 7c38
00028a 0404
00028b 7c04      	.DB  0x44,0x44,0x38,0x7C,0x4,0x4,0x4,0x7C
00028c 147c
00028d 1414
00028e 3808
00028f 4444      	.DB  0x7C,0x14,0x14,0x14,0x8,0x38,0x44,0x44
000290 4444
000291 0404
000292 047c
000293 0c04      	.DB  0x44,0x44,0x4,0x4,0x7C,0x4,0x4,0xC
000294 5050
000295 3c50
000296 2418
000297 247e      	.DB  0x50,0x50,0x50,0x3C,0x18,0x24,0x7E,0x24
000298 4418
000299 1028
00029a 4428
00029b 407c      	.DB  0x18,0x44,0x28,0x10,0x28,0x44,0x7C,0x40
00029c 4040
00029d 0cfc
00029e 1010
00029f 7c10      	.DB  0x40,0x40,0xFC,0xC,0x10,0x10,0x10,0x7C
0002a0 407c
0002a1 407c
0002a2 7c7c
0002a3 7c40      	.DB  0x7C,0x40,0x7C,0x40,0x7C,0x7C,0x40,0x7C
0002a4 fc40
0002a5 7c04
0002a6 5050
0002a7 7c20      	.DB  0x40,0xFC,0x4,0x7C,0x50,0x50,0x20,0x7C
0002a8 2050
0002a9 7c00
0002aa 507c
0002ab 2050      	.DB  0x50,0x20,0x0,0x7C,0x7C,0x50,0x50,0x20
0002ac 2800
0002ad 5444
0002ae 3854
0002af 107c      	.DB  0x0,0x28,0x44,0x54,0x54,0x38,0x7C,0x10
0002b0 4438
0002b1 0838
0002b2 3454
0002b3 7c14      	.DB  0x38,0x44,0x38,0x8,0x54,0x34,0x14,0x7C
                 _signal:
0002b4 0300
0002b5 0906
0002b6 100d
0002b7 1613      	.DB  0x0,0x3,0x6,0x9,0xD,0x10,0x13,0x16
0002b8 1c19
0002b9 221f
0002ba 2925
0002bb 2f2c      	.DB  0x19,0x1C,0x1F,0x22,0x25,0x29,0x2C,0x2F
0002bc 3532
0002bd 3b38
0002be 413e
0002bf 4744      	.DB  0x32,0x35,0x38,0x3B,0x3E,0x41,0x44,0x47
0002c0 4d4a
0002c1 5350
0002c2 5956
0002c3 5f5c      	.DB  0x4A,0x4D,0x50,0x53,0x56,0x59,0x5C,0x5F
0002c4 6462
0002c5 6a67
0002c6 706d
0002c7 7573      	.DB  0x62,0x64,0x67,0x6A,0x6D,0x70,0x73,0x75
0002c8 7b78
0002c9 807e
0002ca 8683
0002cb 8b88      	.DB  0x78,0x7B,0x7E,0x80,0x83,0x86,0x88,0x8B
0002cc 908e
0002cd 9593
0002ce 9a98
0002cf 9f9d      	.DB  0x8E,0x90,0x93,0x95,0x98,0x9A,0x9D,0x9F
0002d0 a4a2
0002d1 a9a7
0002d2 aeab
0002d3 b2b0      	.DB  0xA2,0xA4,0xA7,0xA9,0xAB,0xAE,0xB0,0xB2
0002d4 b7b4
0002d5 bbb9
0002d6 bfbd
0002d7 c3c1      	.DB  0xB4,0xB7,0xB9,0xBB,0xBD,0xBF,0xC1,0xC3
0002d8 c7c5
0002d9 cbc9
0002da cfcd
0002db d2d0      	.DB  0xC5,0xC7,0xC9,0xCB,0xCD,0xCF,0xD0,0xD2
0002dc d6d4
0002dd d9d7
0002de dcdb
0002df dfde      	.DB  0xD4,0xD6,0xD7,0xD9,0xDB,0xDC,0xDE,0xDF
0002e0 e2e1
0002e1 e5e4
0002e2 e8e7
0002e3 eae9      	.DB  0xE1,0xE2,0xE4,0xE5,0xE7,0xE8,0xE9,0xEA
0002e4 edec
0002e5 efee
0002e6 f1f0
0002e7 f3f2      	.DB  0xEC,0xED,0xEE,0xEF,0xF0,0xF1,0xF2,0xF3
0002e8 f5f4
0002e9 f7f6
0002ea f8f7
0002eb f9f9      	.DB  0xF4,0xF5,0xF6,0xF7,0xF7,0xF8,0xF9,0xF9
0002ec fbfa
0002ed fcfb
0002ee fdfc
0002ef fdfd      	.DB  0xFA,0xFB,0xFB,0xFC,0xFC,0xFD,0xFD,0xFD
0002f0 fefe
0002f1 fffe
0002f2 ffff
0002f3 ffff      	.DB  0xFE,0xFE,0xFE,0xFF,0xFF,0xFF,0xFF,0xFF
0002f4 ffff
0002f5 ffff
0002f6 ffff
0002f7 fefe      	.DB  0xFF,0xFF,0xFF,0xFF,0xFF,0xFF,0xFE,0xFE
0002f8 fdfe
0002f9 fdfd
0002fa fcfc
0002fb fbfb      	.DB  0xFE,0xFD,0xFD,0xFD,0xFC,0xFC,0xFB,0xFB
0002fc f9fa
0002fd f8f9
0002fe f7f7
0002ff f5f6      	.DB  0xFA,0xF9,0xF9,0xF8,0xF7,0xF7,0xF6,0xF5
000300 f3f4
000301 f1f2
000302 eff0
000303 edee      	.DB  0xF4,0xF3,0xF2,0xF1,0xF0,0xEF,0xEE,0xED
000304 eaec
000305 e8e9
000306 e5e7
000307 e2e4      	.DB  0xEC,0xEA,0xE9,0xE8,0xE7,0xE5,0xE4,0xE2
000308 dfe1
000309 dcde
00030a d9db
00030b d6d7      	.DB  0xE1,0xDF,0xDE,0xDC,0xDB,0xD9,0xD7,0xD6
00030c d2d4
00030d cfd0
00030e cbcd
00030f c7c9      	.DB  0xD4,0xD2,0xD0,0xCF,0xCD,0xCB,0xC9,0xC7
000310 c3c5
000311 bfc1
000312 bbbd
000313 b7b9      	.DB  0xC5,0xC3,0xC1,0xBF,0xBD,0xBB,0xB9,0xB7
000314 b2b4
000315 aeb0
000316 a9ab
000317 a4a7      	.DB  0xB4,0xB2,0xB0,0xAE,0xAB,0xA9,0xA7,0xA4
000318 9fa2
000319 9a9d
00031a 9598
00031b 9093      	.DB  0xA2,0x9F,0x9D,0x9A,0x98,0x95,0x93,0x90
00031c 8b8e
00031d 8688
00031e 8083
00031f 7b7e      	.DB  0x8E,0x8B,0x88,0x86,0x83,0x80,0x7E,0x7B
000320 7578
000321 7073
000322 6a6d
000323 6467      	.DB  0x78,0x75,0x73,0x70,0x6D,0x6A,0x67,0x64
000324 5f62
000325 595c
000326 5356
000327 4d50      	.DB  0x62,0x5F,0x5C,0x59,0x56,0x53,0x50,0x4D
000328 474a
000329 4144
00032a 3b3e
00032b 3538      	.DB  0x4A,0x47,0x44,0x41,0x3E,0x3B,0x38,0x35
00032c 2f32
00032d 292c
00032e 2225
00032f 1c1f      	.DB  0x32,0x2F,0x2C,0x29,0x25,0x22,0x1F,0x1C
000330 1619
000331 1013
000332 090d
000333 0306      	.DB  0x19,0x16,0x13,0x10,0xD,0x9,0x6,0x3
000334 ffff
000335 ffff
000336 ffff
000337 ffff      	.DB  0xFF,0xFF,0xFF,0xFF,0xFF,0xFF,0xFF,0xFF
000338 ffff
000339 ffff
00033a ffff
00033b ffff      	.DB  0xFF,0xFF,0xFF,0xFF,0xFF,0xFF,0xFF,0xFF
00033c ffff
00033d ffff
00033e ffff
00033f ffff      	.DB  0xFF,0xFF,0xFF,0xFF,0xFF,0xFF,0xFF,0xFF
000340 ffff
000341 ffff
000342 ffff
000343 ffff      	.DB  0xFF,0xFF,0xFF,0xFF,0xFF,0xFF,0xFF,0xFF
000344 ffff
000345 ffff
000346 ffff
000347 ffff      	.DB  0xFF,0xFF,0xFF,0xFF,0xFF,0xFF,0xFF,0xFF
000348 ffff
000349 ffff
00034a ffff
00034b ffff      	.DB  0xFF,0xFF,0xFF,0xFF,0xFF,0xFF,0xFF,0xFF
00034c ffff
00034d ffff
00034e ffff
00034f ffff      	.DB  0xFF,0xFF,0xFF,0xFF,0xFF,0xFF,0xFF,0xFF
000350 ffff
000351 ffff
000352 ffff
000353 ffff      	.DB  0xFF,0xFF,0xFF,0xFF,0xFF,0xFF,0xFF,0xFF
000354 ffff
000355 ffff
000356 ffff
000357 ffff      	.DB  0xFF,0xFF,0xFF,0xFF,0xFF,0xFF,0xFF,0xFF
000358 ffff
000359 ffff
00035a ffff
00035b ffff      	.DB  0xFF,0xFF,0xFF,0xFF,0xFF,0xFF,0xFF,0xFF
00035c ffff
00035d ffff
00035e ffff
00035f ffff      	.DB  0xFF,0xFF,0xFF,0xFF,0xFF,0xFF,0xFF,0xFF
000360 ffff
000361 ffff
000362 ffff
000363 ffff      	.DB  0xFF,0xFF,0xFF,0xFF,0xFF,0xFF,0xFF,0xFF
000364 ffff
000365 ffff
000366 ffff
000367 ffff      	.DB  0xFF,0xFF,0xFF,0xFF,0xFF,0xFF,0xFF,0xFF
000368 ffff
000369 ffff
00036a ffff
00036b ffff      	.DB  0xFF,0xFF,0xFF,0xFF,0xFF,0xFF,0xFF,0xFF
00036c ffff
00036d ffff
00036e ffff
00036f ffff      	.DB  0xFF,0xFF,0xFF,0xFF,0xFF,0xFF,0xFF,0xFF
000370 ffff
000371 ffff
000372 ffff
000373 00ff      	.DB  0xFF,0xFF,0xFF,0xFF,0xFF,0xFF,0xFF,0x0
000374 0000
000375 0000
000376 0000
000377 0000      	.DB  0x0,0x0,0x0,0x0,0x0,0x0,0x0,0x0
000378 0000
000379 0000
00037a 0000
00037b 0000      	.DB  0x0,0x0,0x0,0x0,0x0,0x0,0x0,0x0
00037c 0000
00037d 0000
00037e 0000
00037f 0000      	.DB  0x0,0x0,0x0,0x0,0x0,0x0,0x0,0x0
000380 0000
000381 0000
000382 0000
000383 0000      	.DB  0x0,0x0,0x0,0x0,0x0,0x0,0x0,0x0
000384 0000
000385 0000
000386 0000
000387 0000      	.DB  0x0,0x0,0x0,0x0,0x0,0x0,0x0,0x0
000388 0000
000389 0000
00038a 0000
00038b 0000      	.DB  0x0,0x0,0x0,0x0,0x0,0x0,0x0,0x0
00038c 0000
00038d 0000
00038e 0000
00038f 0000      	.DB  0x0,0x0,0x0,0x0,0x0,0x0,0x0,0x0
000390 0000
000391 0000
000392 0000
000393 0000      	.DB  0x0,0x0,0x0,0x0,0x0,0x0,0x0,0x0
000394 0000
000395 0000
000396 0000
000397 0000      	.DB  0x0,0x0,0x0,0x0,0x0,0x0,0x0,0x0
000398 0000
000399 0000
00039a 0000
00039b 0000      	.DB  0x0,0x0,0x0,0x0,0x0,0x0,0x0,0x0
00039c 0000
00039d 0000
00039e 0000
00039f 0000      	.DB  0x0,0x0,0x0,0x0,0x0,0x0,0x0,0x0
0003a0 0000
0003a1 0000
0003a2 0000
0003a3 0000      	.DB  0x0,0x0,0x0,0x0,0x0,0x0,0x0,0x0
0003a4 0000
0003a5 0000
0003a6 0000
0003a7 0000      	.DB  0x0,0x0,0x0,0x0,0x0,0x0,0x0,0x0
0003a8 0000
0003a9 0000
0003aa 0000
0003ab 0000      	.DB  0x0,0x0,0x0,0x0,0x0,0x0,0x0,0x0
0003ac 0000
0003ad 0000
0003ae 0000
0003af 0000      	.DB  0x0,0x0,0x0,0x0,0x0,0x0,0x0,0x0
0003b0 0000
0003b1 0000
0003b2 0000
0003b3 7f7f      	.DB  0x0,0x0,0x0,0x0,0x0,0x0,0x7F,0x7F
0003b4 ffff
0003b5 ffff
0003b6 ffff
0003b7 ffff      	.DB  0xFF,0xFF,0xFF,0xFF,0xFF,0xFF,0xFF,0xFF
0003b8 ffff
0003b9 ffff
0003ba ffff
0003bb ffff      	.DB  0xFF,0xFF,0xFF,0xFF,0xFF,0xFF,0xFF,0xFF
0003bc ffff
0003bd ffff
0003be ffff
0003bf ffff      	.DB  0xFF,0xFF,0xFF,0xFF,0xFF,0xFF,0xFF,0xFF
0003c0 ffff
0003c1 ffff
0003c2 ffff
0003c3 ffff      	.DB  0xFF,0xFF,0xFF,0xFF,0xFF,0xFF,0xFF,0xFF
0003c4 ffff
0003c5 ffff
0003c6 ffff
0003c7 ffff      	.DB  0xFF,0xFF,0xFF,0xFF,0xFF,0xFF,0xFF,0xFF
0003c8 ffff
0003c9 ffff
0003ca ffff
0003cb ffff      	.DB  0xFF,0xFF,0xFF,0xFF,0xFF,0xFF,0xFF,0xFF
0003cc ffff
0003cd ffff
0003ce ffff
0003cf ffff      	.DB  0xFF,0xFF,0xFF,0xFF,0xFF,0xFF,0xFF,0xFF
0003d0 ffff
0003d1 ffff
0003d2 ffff
0003d3 ffff      	.DB  0xFF,0xFF,0xFF,0xFF,0xFF,0xFF,0xFF,0xFF
0003d4 ffff
0003d5 ffff
0003d6 ffff
0003d7 ffff      	.DB  0xFF,0xFF,0xFF,0xFF,0xFF,0xFF,0xFF,0xFF
0003d8 ffff
0003d9 ffff
0003da ffff
0003db ffff      	.DB  0xFF,0xFF,0xFF,0xFF,0xFF,0xFF,0xFF,0xFF
0003dc ffff
0003dd ffff
0003de ffff
0003df ffff      	.DB  0xFF,0xFF,0xFF,0xFF,0xFF,0xFF,0xFF,0xFF
0003e0 ffff
0003e1 ffff
0003e2 ffff
0003e3 ffff      	.DB  0xFF,0xFF,0xFF,0xFF,0xFF,0xFF,0xFF,0xFF
0003e4 ffff
0003e5 ffff
0003e6 ffff
0003e7 ffff      	.DB  0xFF,0xFF,0xFF,0xFF,0xFF,0xFF,0xFF,0xFF
0003e8 ffff
0003e9 ffff
0003ea ffff
0003eb ffff      	.DB  0xFF,0xFF,0xFF,0xFF,0xFF,0xFF,0xFF,0xFF
0003ec ffff
0003ed ffff
0003ee ffff
0003ef ffff      	.DB  0xFF,0xFF,0xFF,0xFF,0xFF,0xFF,0xFF,0xFF
0003f0 ffff
0003f1 ffff
0003f2 ffff
0003f3 55ff      	.DB  0xFF,0xFF,0xFF,0xFF,0xFF,0xFF,0xFF,0x55
0003f4 5555
0003f5 5555
0003f6 5555
0003f7 5555      	.DB  0x55,0x55,0x55,0x55,0x55,0x55,0x55,0x55
0003f8 5555
0003f9 5555
0003fa 5555
0003fb 5555      	.DB  0x55,0x55,0x55,0x55,0x55,0x55,0x55,0x55
0003fc 5555
0003fd 5555
0003fe 5555
0003ff 5555      	.DB  0x55,0x55,0x55,0x55,0x55,0x55,0x55,0x55
000400 5555
000401 5555
000402 5555
000403 5555      	.DB  0x55,0x55,0x55,0x55,0x55,0x55,0x55,0x55
000404 5555
000405 5555
000406 5555
000407 5555      	.DB  0x55,0x55,0x55,0x55,0x55,0x55,0x55,0x55
000408 5555
000409 5555
00040a 5555
00040b 5555      	.DB  0x55,0x55,0x55,0x55,0x55,0x55,0x55,0x55
00040c 5555
00040d 5555
00040e 5555
00040f 5555      	.DB  0x55,0x55,0x55,0x55,0x55,0x55,0x55,0x55
000410 5555
000411 5555
000412 5555
000413 5555      	.DB  0x55,0x55,0x55,0x55,0x55,0x55,0x55,0x55
000414 5555
000415 5555
000416 5555
000417 5555      	.DB  0x55,0x55,0x55,0x55,0x55,0x55,0x55,0x55
000418 5555
000419 5555
00041a 5555
00041b 5555      	.DB  0x55,0x55,0x55,0x55,0x55,0x55,0x55,0x55
00041c 5555
00041d 5555
00041e 5555
00041f 5555      	.DB  0x55,0x55,0x55,0x55,0x55,0x55,0x55,0x55
000420 5555
000421 5555
000422 5555
000423 5555      	.DB  0x55,0x55,0x55,0x55,0x55,0x55,0x55,0x55
000424 5555
000425 5555
000426 5555
000427 5555      	.DB  0x55,0x55,0x55,0x55,0x55,0x55,0x55,0x55
000428 5555
000429 5555
00042a 5555
00042b 5555      	.DB  0x55,0x55,0x55,0x55,0x55,0x55,0x55,0x55
00042c 5555
00042d 5555
00042e 5555
00042f 5555      	.DB  0x55,0x55,0x55,0x55,0x55,0x55,0x55,0x55
000430 5555
000431 5555
000432 5555
000433 5555      	.DB  0x55,0x55,0x55,0x55,0x55,0x55,0x55,0x55
000434 feff
000435 fcfd
000436 fafb
000437 f8f9      	.DB  0xFF,0xFE,0xFD,0xFC,0xFB,0xFA,0xF9,0xF8
000438 f6f7
000439 f4f5
00043a f2f3
00043b f0f1      	.DB  0xF7,0xF6,0xF5,0xF4,0xF3,0xF2,0xF1,0xF0
00043c eeef
00043d eced
00043e eaeb
00043f e8e9      	.DB  0xEF,0xEE,0xED,0xEC,0xEB,0xEA,0xE9,0xE8
000440 e6e7
000441 e4e5
000442 e2e3
000443 e0e1      	.DB  0xE7,0xE6,0xE5,0xE4,0xE3,0xE2,0xE1,0xE0
000444 dedf
000445 dcdd
000446 dadb
000447 d8d9      	.DB  0xDF,0xDE,0xDD,0xDC,0xDB,0xDA,0xD9,0xD8
000448 d6d7
000449 d4d5
00044a d2d3
00044b d0d1      	.DB  0xD7,0xD6,0xD5,0xD4,0xD3,0xD2,0xD1,0xD0
00044c cecf
00044d cccd
00044e cacb
00044f c8c9      	.DB  0xCF,0xCE,0xCD,0xCC,0xCB,0xCA,0xC9,0xC8
000450 c6c7
000451 c4c5
000452 c2c3
000453 c0c1      	.DB  0xC7,0xC6,0xC5,0xC4,0xC3,0xC2,0xC1,0xC0
000454 bebf
000455 bcbd
000456 babb
000457 b8b9      	.DB  0xBF,0xBE,0xBD,0xBC,0xBB,0xBA,0xB9,0xB8
000458 b6b7
000459 b4b5
00045a b2b3
00045b b0b1      	.DB  0xB7,0xB6,0xB5,0xB4,0xB3,0xB2,0xB1,0xB0
00045c aeaf
00045d acad
00045e aaab
00045f a8a9      	.DB  0xAF,0xAE,0xAD,0xAC,0xAB,0xAA,0xA9,0xA8
000460 a6a7
000461 a4a5
000462 a2a3
000463 a0a1      	.DB  0xA7,0xA6,0xA5,0xA4,0xA3,0xA2,0xA1,0xA0
000464 9e9f
000465 9c9d
000466 9a9b
000467 9899      	.DB  0x9F,0x9E,0x9D,0x9C,0x9B,0x9A,0x99,0x98
000468 9697
000469 9495
00046a 9293
00046b 9091      	.DB  0x97,0x96,0x95,0x94,0x93,0x92,0x91,0x90
00046c 8e8f
00046d 8c8d
00046e 8a8b
00046f 8889      	.DB  0x8F,0x8E,0x8D,0x8C,0x8B,0x8A,0x89,0x88
000470 8687
000471 8485
000472 8283
000473 0081      	.DB  0x87,0x86,0x85,0x84,0x83,0x82,0x81,0x0
000474 0201
000475 0403
000476 0605
000477 0807      	.DB  0x1,0x2,0x3,0x4,0x5,0x6,0x7,0x8
000478 0a09
000479 0c0b
00047a 0e0d
00047b 100f      	.DB  0x9,0xA,0xB,0xC,0xD,0xE,0xF,0x10
00047c 1211
00047d 1413
00047e 1615
00047f 1817      	.DB  0x11,0x12,0x13,0x14,0x15,0x16,0x17,0x18
000480 1a19
000481 1c1b
000482 1e1d
000483 201f      	.DB  0x19,0x1A,0x1B,0x1C,0x1D,0x1E,0x1F,0x20
000484 2221
000485 2423
000486 2625
000487 2827      	.DB  0x21,0x22,0x23,0x24,0x25,0x26,0x27,0x28
000488 2a29
000489 2c2b
00048a 2e2d
00048b 302f      	.DB  0x29,0x2A,0x2B,0x2C,0x2D,0x2E,0x2F,0x30
00048c 3231
00048d 3433
00048e 3635
00048f 3837      	.DB  0x31,0x32,0x33,0x34,0x35,0x36,0x37,0x38
000490 3a39
000491 3c3b
000492 3e3d
000493 403f      	.DB  0x39,0x3A,0x3B,0x3C,0x3D,0x3E,0x3F,0x40
000494 4241
000495 4443
000496 4645
000497 4847      	.DB  0x41,0x42,0x43,0x44,0x45,0x46,0x47,0x48
000498 4a49
000499 4c4b
00049a 4e4d
00049b 504f      	.DB  0x49,0x4A,0x4B,0x4C,0x4D,0x4E,0x4F,0x50
00049c 5251
00049d 5453
00049e 5655
00049f 5857      	.DB  0x51,0x52,0x53,0x54,0x55,0x56,0x57,0x58
0004a0 5a59
0004a1 5c5b
0004a2 5e5d
0004a3 605f      	.DB  0x59,0x5A,0x5B,0x5C,0x5D,0x5E,0x5F,0x60
0004a4 6261
0004a5 6463
0004a6 6665
0004a7 6867      	.DB  0x61,0x62,0x63,0x64,0x65,0x66,0x67,0x68
0004a8 6a69
0004a9 6c6b
0004aa 6e6d
0004ab 706f      	.DB  0x69,0x6A,0x6B,0x6C,0x6D,0x6E,0x6F,0x70
0004ac 7271
0004ad 7473
0004ae 7675
0004af 7877      	.DB  0x71,0x72,0x73,0x74,0x75,0x76,0x77,0x78
0004b0 7a79
0004b1 7c7b
0004b2 7e7d
0004b3 7f7f      	.DB  0x79,0x7A,0x7B,0x7C,0x7D,0x7E,0x7F,0x7F
0004b4 feff
0004b5 fbfc
0004b6 f8fa
0004b7 f6f7      	.DB  0xFF,0xFE,0xFC,0xFB,0xFA,0xF8,0xF7,0xF6
0004b8 f3f4
0004b9 f0f2
0004ba eeef
0004bb ebec      	.DB  0xF4,0xF3,0xF2,0xF0,0xEF,0xEE,0xEC,0xEB
0004bc e8ea
0004bd e6e7
0004be e3e4
0004bf e0e2      	.DB  0xEA,0xE8,0xE7,0xE6,0xE4,0xE3,0xE2,0xE0
0004c0 dedf
0004c1 dbdc
0004c2 d8da
0004c3 d6d7      	.DB  0xDF,0xDE,0xDC,0xDB,0xDA,0xD8,0xD7,0xD6
0004c4 d3d4
0004c5 d0d1
0004c6 cdcf
0004c7 cbcc      	.DB  0xD4,0xD3,0xD1,0xD0,0xCF,0xCD,0xCC,0xCB
0004c8 c8c9
0004c9 c5c7
0004ca c3c4
0004cb c0c1      	.DB  0xC9,0xC8,0xC7,0xC5,0xC4,0xC3,0xC1,0xC0
0004cc bdbf
0004cd bbbc
0004ce b8b9
0004cf b5b7      	.DB  0xBF,0xBD,0xBC,0xBB,0xB9,0xB8,0xB7,0xB5
0004d0 b3b4
0004d1 b0b1
0004d2 adaf
0004d3 abac      	.DB  0xB4,0xB3,0xB1,0xB0,0xAF,0xAD,0xAC,0xAB
0004d4 a8a9
0004d5 a5a7
0004d6 a3a4
0004d7 a0a1      	.DB  0xA9,0xA8,0xA7,0xA5,0xA4,0xA3,0xA1,0xA0
0004d8 9d9f
0004d9 9b9c
0004da 9899
0004db 9597      	.DB  0x9F,0x9D,0x9C,0x9B,0x99,0x98,0x97,0x95
0004dc 9394
0004dd 9091
0004de 8d8f
0004df 8b8c      	.DB  0x94,0x93,0x91,0x90,0x8F,0x8D,0x8C,0x8B
0004e0 8889
0004e1 8587
0004e2 8384
0004e3 8081      	.DB  0x89,0x88,0x87,0x85,0x84,0x83,0x81,0x80
0004e4 7d7e
0004e5 7a7c
0004e6 7879
0004e7 7576      	.DB  0x7E,0x7D,0x7C,0x7A,0x79,0x78,0x76,0x75
0004e8 7274
0004e9 7071
0004ea 6d6e
0004eb 6a6c      	.DB  0x74,0x72,0x71,0x70,0x6E,0x6D,0x6C,0x6A
0004ec 6869
0004ed 6566
0004ee 6264
0004ef 6061      	.DB  0x69,0x68,0x66,0x65,0x64,0x62,0x61,0x60
0004f0 5d5e
0004f1 5a5c
0004f2 5859
0004f3 5556      	.DB  0x5E,0x5D,0x5C,0x5A,0x59,0x58,0x56,0x55
0004f4 5555
0004f5 5555
0004f6 5555
0004f7 5555      	.DB  0x55,0x55,0x55,0x55,0x55,0x55,0x55,0x55
0004f8 5555
0004f9 5555
0004fa 5555
0004fb 5555      	.DB  0x55,0x55,0x55,0x55,0x55,0x55,0x55,0x55
0004fc 5555
0004fd 5555
0004fe 5555
0004ff 5555      	.DB  0x55,0x55,0x55,0x55,0x55,0x55,0x55,0x55
000500 5555
000501 5555
000502 5555
000503 5555      	.DB  0x55,0x55,0x55,0x55,0x55,0x55,0x55,0x55
000504 5555
000505 5555
000506 5555
000507 5555      	.DB  0x55,0x55,0x55,0x55,0x55,0x55,0x55,0x55
000508 5555
000509 5555
00050a 5555
00050b 5555      	.DB  0x55,0x55,0x55,0x55,0x55,0x55,0x55,0x55
00050c 5555
00050d 5555
00050e 5555
00050f 5555      	.DB  0x55,0x55,0x55,0x55,0x55,0x55,0x55,0x55
000510 5555
000511 5555
000512 5555
000513 5555      	.DB  0x55,0x55,0x55,0x55,0x55,0x55,0x55,0x55
000514 5555
000515 5555
000516 5555
000517 5555      	.DB  0x55,0x55,0x55,0x55,0x55,0x55,0x55,0x55
000518 5555
000519 5555
00051a 5555
00051b 5555      	.DB  0x55,0x55,0x55,0x55,0x55,0x55,0x55,0x55
00051c 5555
00051d 5555
00051e 5555
00051f 5555      	.DB  0x55,0x55,0x55,0x55,0x55,0x55,0x55,0x55
000520 5555
000521 5555
000522 5555
000523 5555      	.DB  0x55,0x55,0x55,0x55,0x55,0x55,0x55,0x55
000524 5555
000525 5555
000526 5555
000527 5555      	.DB  0x55,0x55,0x55,0x55,0x55,0x55,0x55,0x55
000528 5555
000529 5555
00052a 5555
00052b 5555      	.DB  0x55,0x55,0x55,0x55,0x55,0x55,0x55,0x55
00052c 5555
00052d 5555
00052e 5555
00052f 5555      	.DB  0x55,0x55,0x55,0x55,0x55,0x55,0x55,0x55
000530 5555
000531 5555
000532 5555
000533 5555      	.DB  0x55,0x55,0x55,0x55,0x55,0x55,0x55,0x55
000534 ffff
000535 5555
000536 ffff
000537 5555      	.DB  0xFF,0xFF,0x55,0x55,0xFF,0xFF,0x55,0x55
000538 ffff
000539 5555
00053a ffff
00053b 5555      	.DB  0xFF,0xFF,0x55,0x55,0xFF,0xFF,0x55,0x55
00053c ffff
00053d 5555
00053e ffff
00053f 5555      	.DB  0xFF,0xFF,0x55,0x55,0xFF,0xFF,0x55,0x55
000540 ffff
000541 5555
000542 ffff
000543 5555      	.DB  0xFF,0xFF,0x55,0x55,0xFF,0xFF,0x55,0x55
000544 ffff
000545 5555
000546 ffff
000547 5555      	.DB  0xFF,0xFF,0x55,0x55,0xFF,0xFF,0x55,0x55
000548 ffff
000549 5555
00054a ffff
00054b 5555      	.DB  0xFF,0xFF,0x55,0x55,0xFF,0xFF,0x55,0x55
00054c ffff
00054d 5555
00054e ffff
00054f 5555      	.DB  0xFF,0xFF,0x55,0x55,0xFF,0xFF,0x55,0x55
000550 ffff
000551 5555
000552 ffff
000553 5555      	.DB  0xFF,0xFF,0x55,0x55,0xFF,0xFF,0x55,0x55
000554 ffff
000555 5555
000556 ffff
000557 5555      	.DB  0xFF,0xFF,0x55,0x55,0xFF,0xFF,0x55,0x55
000558 ffff
000559 5555
00055a ffff
00055b 5555      	.DB  0xFF,0xFF,0x55,0x55,0xFF,0xFF,0x55,0x55
00055c ffff
00055d 5555
00055e ffff
00055f 5555      	.DB  0xFF,0xFF,0x55,0x55,0xFF,0xFF,0x55,0x55
000560 ffff
000561 5555
000562 ffff
000563 5555      	.DB  0xFF,0xFF,0x55,0x55,0xFF,0xFF,0x55,0x55
000564 ffff
000565 5555
000566 ffff
000567 5555      	.DB  0xFF,0xFF,0x55,0x55,0xFF,0xFF,0x55,0x55
000568 ffff
000569 5555
00056a ffff
00056b 5555      	.DB  0xFF,0xFF,0x55,0x55,0xFF,0xFF,0x55,0x55
00056c ffff
00056d 5555
00056e ffff
00056f 5555      	.DB  0xFF,0xFF,0x55,0x55,0xFF,0xFF,0x55,0x55
000570 ffff
000571 5555
000572 ffff
000573 5555      	.DB  0xFF,0xFF,0x55,0x55,0xFF,0xFF,0x55,0x55
000574 5555
000575 5555
000576 5555
000577 5555      	.DB  0x55,0x55,0x55,0x55,0x55,0x55,0x55,0x55
000578 5555
000579 5555
00057a 5555
00057b 5555      	.DB  0x55,0x55,0x55,0x55,0x55,0x55,0x55,0x55
00057c 5555
00057d 5555
00057e 5555
00057f 5555      	.DB  0x55,0x55,0x55,0x55,0x55,0x55,0x55,0x55
000580 5555
000581 5555
000582 5555
000583 5555      	.DB  0x55,0x55,0x55,0x55,0x55,0x55,0x55,0x55
000584 5555
000585 5555
000586 5555
000587 5555      	.DB  0x55,0x55,0x55,0x55,0x55,0x55,0x55,0x55
000588 5555
000589 5555
00058a 5555
00058b 5555      	.DB  0x55,0x55,0x55,0x55,0x55,0x55,0x55,0x55
00058c 5555
00058d 5555
00058e 5555
00058f 5555      	.DB  0x55,0x55,0x55,0x55,0x55,0x55,0x55,0x55
000590 5555
000591 5555
000592 5555
000593 5555      	.DB  0x55,0x55,0x55,0x55,0x55,0x55,0x55,0x55
000594 5555
000595 5555
000596 5555
000597 5555      	.DB  0x55,0x55,0x55,0x55,0x55,0x55,0x55,0x55
000598 5555
000599 5555
00059a 5555
00059b 5555      	.DB  0x55,0x55,0x55,0x55,0x55,0x55,0x55,0x55
00059c 5555
00059d 5555
00059e 5555
00059f 5555      	.DB  0x55,0x55,0x55,0x55,0x55,0x55,0x55,0x55
0005a0 5555
0005a1 5555
0005a2 5555
0005a3 5555      	.DB  0x55,0x55,0x55,0x55,0x55,0x55,0x55,0x55
0005a4 5555
0005a5 5555
0005a6 5555
0005a7 5555      	.DB  0x55,0x55,0x55,0x55,0x55,0x55,0x55,0x55
0005a8 5555
0005a9 5555
0005aa 5555
0005ab 5555      	.DB  0x55,0x55,0x55,0x55,0x55,0x55,0x55,0x55
0005ac 5555
0005ad 5555
0005ae 5555
0005af 5555      	.DB  0x55,0x55,0x55,0x55,0x55,0x55,0x55,0x55
0005b0 5555
0005b1 5555
0005b2 5555
0005b3 5555      	.DB  0x55,0x55,0x55,0x55,0x55,0x55,0x55,0x55
0005b4 ffff
0005b5 7f7f
0005b6 ffff
0005b7 7f7f      	.DB  0xFF,0xFF,0x7F,0x7F,0xFF,0xFF,0x7F,0x7F
0005b8 ffff
0005b9 7f7f
0005ba ffff
0005bb 7f7f      	.DB  0xFF,0xFF,0x7F,0x7F,0xFF,0xFF,0x7F,0x7F
0005bc ffff
0005bd 7f7f
0005be ffff
0005bf 7f7f      	.DB  0xFF,0xFF,0x7F,0x7F,0xFF,0xFF,0x7F,0x7F
0005c0 ffff
0005c1 7f7f
0005c2 ffff
0005c3 7f7f      	.DB  0xFF,0xFF,0x7F,0x7F,0xFF,0xFF,0x7F,0x7F
0005c4 ffff
0005c5 7f7f
0005c6 ffff
0005c7 7f7f      	.DB  0xFF,0xFF,0x7F,0x7F,0xFF,0xFF,0x7F,0x7F
0005c8 ffff
0005c9 7f7f
0005ca ffff
0005cb 7f7f      	.DB  0xFF,0xFF,0x7F,0x7F,0xFF,0xFF,0x7F,0x7F
0005cc ffff
0005cd 7f7f
0005ce ffff
0005cf 7f7f      	.DB  0xFF,0xFF,0x7F,0x7F,0xFF,0xFF,0x7F,0x7F
0005d0 ffff
0005d1 7f7f
0005d2 ffff
0005d3 7f7f      	.DB  0xFF,0xFF,0x7F,0x7F,0xFF,0xFF,0x7F,0x7F
0005d4 ffff
0005d5 7f7f
0005d6 ffff
0005d7 7f7f      	.DB  0xFF,0xFF,0x7F,0x7F,0xFF,0xFF,0x7F,0x7F
0005d8 ffff
0005d9 7f7f
0005da ffff
0005db 7f7f      	.DB  0xFF,0xFF,0x7F,0x7F,0xFF,0xFF,0x7F,0x7F
0005dc ffff
0005dd 7f7f
0005de ffff
0005df 7f7f      	.DB  0xFF,0xFF,0x7F,0x7F,0xFF,0xFF,0x7F,0x7F
0005e0 ffff
0005e1 7f7f
0005e2 ffff
0005e3 7f7f      	.DB  0xFF,0xFF,0x7F,0x7F,0xFF,0xFF,0x7F,0x7F
0005e4 ffff
0005e5 7f7f
0005e6 ffff
0005e7 7f7f      	.DB  0xFF,0xFF,0x7F,0x7F,0xFF,0xFF,0x7F,0x7F
0005e8 ffff
0005e9 7f7f
0005ea ffff
0005eb 7f7f      	.DB  0xFF,0xFF,0x7F,0x7F,0xFF,0xFF,0x7F,0x7F
0005ec ffff
0005ed 7f7f
0005ee ffff
0005ef 7f7f      	.DB  0xFF,0xFF,0x7F,0x7F,0xFF,0xFF,0x7F,0x7F
0005f0 ffff
0005f1 7f7f
0005f2 ffff
0005f3 007f      	.DB  0xFF,0xFF,0x7F,0x7F,0xFF,0xFF,0x7F,0x0
0005f4 7f00
0005f5 007f
0005f6 7f00
0005f7 007f      	.DB  0x0,0x7F,0x7F,0x0,0x0,0x7F,0x7F,0x0
0005f8 7f00
0005f9 007f
0005fa 7f00
0005fb 007f      	.DB  0x0,0x7F,0x7F,0x0,0x0,0x7F,0x7F,0x0
0005fc 7f00
0005fd 007f
0005fe 7f00
0005ff 007f      	.DB  0x0,0x7F,0x7F,0x0,0x0,0x7F,0x7F,0x0
000600 7f00
000601 007f
000602 7f00
000603 007f      	.DB  0x0,0x7F,0x7F,0x0,0x0,0x7F,0x7F,0x0
000604 7f00
000605 007f
000606 7f00
000607 007f      	.DB  0x0,0x7F,0x7F,0x0,0x0,0x7F,0x7F,0x0
000608 7f00
000609 007f
00060a 7f00
00060b 007f      	.DB  0x0,0x7F,0x7F,0x0,0x0,0x7F,0x7F,0x0
00060c 7f00
00060d 007f
00060e 7f00
00060f 007f      	.DB  0x0,0x7F,0x7F,0x0,0x0,0x7F,0x7F,0x0
000610 7f00
000611 007f
000612 7f00
000613 007f      	.DB  0x0,0x7F,0x7F,0x0,0x0,0x7F,0x7F,0x0
000614 7f00
000615 007f
000616 7f00
000617 007f      	.DB  0x0,0x7F,0x7F,0x0,0x0,0x7F,0x7F,0x0
000618 7f00
000619 007f
00061a 7f00
00061b 007f      	.DB  0x0,0x7F,0x7F,0x0,0x0,0x7F,0x7F,0x0
00061c 7f00
00061d 007f
00061e 7f00
00061f 007f      	.DB  0x0,0x7F,0x7F,0x0,0x0,0x7F,0x7F,0x0
000620 7f00
000621 007f
000622 7f00
000623 007f      	.DB  0x0,0x7F,0x7F,0x0,0x0,0x7F,0x7F,0x0
000624 7f00
000625 007f
000626 7f00
000627 007f      	.DB  0x0,0x7F,0x7F,0x0,0x0,0x7F,0x7F,0x0
000628 7f00
000629 007f
00062a 7f00
00062b 007f      	.DB  0x0,0x7F,0x7F,0x0,0x0,0x7F,0x7F,0x0
00062c 7f00
00062d 007f
00062e 7f00
00062f 007f      	.DB  0x0,0x7F,0x7F,0x0,0x0,0x7F,0x7F,0x0
000630 7f00
000631 007f
000632 7f00
000633 7f7f      	.DB  0x0,0x7F,0x7F,0x0,0x0,0x7F,0x7F,0x7F
                 _bolezni:
000634 c1c8
000635 3ad1
000636 f2f1
000637 ede5      	.DB  0xC8,0xC1,0xD1,0x3A,0xF1,0xF2,0xE5,0xED
000638 eaee
000639 f0e0
00063a e8e4
00063b 2eff      	.DB  0xEE,0xEA,0xE0,0xF0,0xE4,0xE8,0xFF,0x2E
00063c 2020
00063d 2020
00063e 2020
00063f 2020      	.DB  0x20,0x20,0x20,0x20,0x20,0x20,0x20,0x20
000640 2020
000641 2020
000642 2020
000643 2020      	.DB  0x20,0x20,0x20,0x20,0x20,0x20,0x20,0x20
000644 2020
000645 2020
000646 2020
000647 2020      	.DB  0x20,0x20,0x20,0x20,0x20,0x20,0x20,0x20
000648 2020
000649 2020
00064a 2020
00064b 2020      	.DB  0x20,0x20,0x20,0x20,0x20,0x20,0x20,0x20
00064c 2020
00064d 2020
00064e 2020
00064f 2020      	.DB  0x20,0x20,0x20,0x20,0x20,0x20,0x20,0x20
000650 2020
000651 2020
000652 2020
000653 2020      	.DB  0x20,0x20,0x20,0x20,0x20,0x20,0x20,0x20
000654 2020
000655 2020
000656 2020
000657 2020      	.DB  0x20,0x20,0x20,0x20,0x20,0x20,0x20,0x20
000658 2020
000659 2020
00065a 2020
00065b 2020      	.DB  0x20,0x20,0x20,0x20,0x20,0x20,0x20,0x20
00065c 2020
00065d 2020
00065e 2020
00065f 2020      	.DB  0x20,0x20,0x20,0x20,0x20,0x20,0x20,0x20
000660 2020
000661 2020
000662 2020
000663 2020      	.DB  0x20,0x20,0x20,0x20,0x20,0x20,0x20,0x20
000664 2020
000665 2020
000666 2020
000667 c800      	.DB  0x20,0x20,0x20,0x20,0x20,0x20,0x0,0xC8
000668 d1c1
000669 f13a
00066a e5f2
00066b eeed      	.DB  0xC1,0xD1,0x3A,0xF1,0xF2,0xE5,0xED,0xEE
00066c e0ea
00066d e4f0
00066e ffe8
00066f f120      	.DB  0xEA,0xE0,0xF0,0xE4,0xE8,0xFF,0x20,0xF1
000670 e320
000671 efe8
000672 f0e5
000673 eef2      	.DB  0x20,0xE3,0xE8,0xEF,0xE5,0xF0,0xF2,0xEE
000674 e8ed
000675 e5f7
000676 eaf1
000677 e9ee      	.DB  0xED,0xE8,0xF7,0xE5,0xF1,0xEA,0xEE,0xE9
000678 e120
000679 ebee
00067a e7e5
00067b fced      	.DB  0x20,0xE1,0xEE,0xEB,0xE5,0xE7,0xED,0xFC
00067c 2efe
00067d 2020
00067e 2020
00067f 2020      	.DB  0xFE,0x2E,0x20,0x20,0x20,0x20,0x20,0x20
000680 2020
000681 2020
000682 2020
000683 2020      	.DB  0x20,0x20,0x20,0x20,0x20,0x20,0x20,0x20
000684 2020
000685 2020
000686 2020
000687 2020      	.DB  0x20,0x20,0x20,0x20,0x20,0x20,0x20,0x20
000688 2020
000689 2020
00068a 2020
00068b 2020      	.DB  0x20,0x20,0x20,0x20,0x20,0x20,0x20,0x20
00068c 2020
00068d 2020
00068e 2020
00068f 2020      	.DB  0x20,0x20,0x20,0x20,0x20,0x20,0x20,0x20
000690 2020
000691 2020
000692 2020
000693 2020      	.DB  0x20,0x20,0x20,0x20,0x20,0x20,0x20,0x20
000694 2020
000695 2020
000696 2020
000697 2020      	.DB  0x20,0x20,0x20,0x20,0x20,0x20,0x20,0x20
000698 2020
000699 2020
00069a 0020
00069b c1c8      	.DB  0x20,0x20,0x20,0x20,0x20,0x0,0xC8,0xC1
00069c 3ad1
00069d f1ee
00069e f0f2
00069f e9fb      	.DB  0xD1,0x3A,0xEE,0xF1,0xF2,0xF0,0xFB,0xE9
0006a0 e820
0006a1 f4ed
0006a2 f0e0
0006a3 f2ea      	.DB  0x20,0xE8,0xED,0xF4,0xE0,0xF0,0xEA,0xF2
0006a4 ec20
0006a5 eee8
0006a6 e0ea
0006a7 e4f0      	.DB  0x20,0xEC,0xE8,0xEE,0xEA,0xE0,0xF0,0xE4
0006a8 2ee0
0006a9 2020
0006aa 2020
0006ab 2020      	.DB  0xE0,0x2E,0x20,0x20,0x20,0x20,0x20,0x20
0006ac 2020
0006ad 2020
0006ae 2020
0006af 2020      	.DB  0x20,0x20,0x20,0x20,0x20,0x20,0x20,0x20
0006b0 2020
0006b1 2020
0006b2 2020
0006b3 2020      	.DB  0x20,0x20,0x20,0x20,0x20,0x20,0x20,0x20
0006b4 2020
0006b5 2020
0006b6 2020
0006b7 2020      	.DB  0x20,0x20,0x20,0x20,0x20,0x20,0x20,0x20
0006b8 2020
0006b9 2020
0006ba 2020
0006bb 2020      	.DB  0x20,0x20,0x20,0x20,0x20,0x20,0x20,0x20
0006bc 2020
0006bd 2020
0006be 2020
0006bf 2020      	.DB  0x20,0x20,0x20,0x20,0x20,0x20,0x20,0x20
0006c0 2020
0006c1 2020
0006c2 2020
0006c3 2020      	.DB  0x20,0x20,0x20,0x20,0x20,0x20,0x20,0x20
0006c4 2020
0006c5 2020
0006c6 2020
0006c7 2020      	.DB  0x20,0x20,0x20,0x20,0x20,0x20,0x20,0x20
0006c8 2020
0006c9 2020
0006ca 2020
0006cb 2020      	.DB  0x20,0x20,0x20,0x20,0x20,0x20,0x20,0x20
0006cc 2020
0006cd 2020
0006ce c800
0006cf d1c1      	.DB  0x20,0x20,0x20,0x20,0x0,0xC8,0xC1,0xD1
0006d0 f13a
0006d1 e5f2
0006d2 eeed
0006d3 e0ea      	.DB  0x3A,0xF1,0xF2,0xE5,0xED,0xEE,0xEA,0xE0
0006d4 e4f0
0006d5 ffe8
0006d6 202c
0006d7 eeef      	.DB  0xF0,0xE4,0xE8,0xFF,0x2C,0x20,0xEF,0xEE
0006d8 f2f1
0006d9 ede8
0006da e0f4
0006db eaf0      	.DB  0xF1,0xF2,0xE8,0xED,0xF4,0xE0,0xF0,0xEA
0006dc edf2
0006dd e9fb
0006de ea20
0006df f0e0      	.DB  0xF2,0xED,0xFB,0xE9,0x20,0xEA,0xE0,0xF0
0006e0 e8e4
0006e1 f1ee
0006e2 ebea
0006e3 f0e5      	.DB  0xE4,0xE8,0xEE,0xF1,0xEA,0xEB,0xE5,0xF0
0006e4 e7ee
0006e5 202e
0006e6 2020
0006e7 2020      	.DB  0xEE,0xE7,0x2E,0x20,0x20,0x20,0x20,0x20
0006e8 2020
0006e9 2020
0006ea 2020
0006eb 2020      	.DB  0x20,0x20,0x20,0x20,0x20,0x20,0x20,0x20
0006ec 2020
0006ed 2020
0006ee 2020
0006ef 2020      	.DB  0x20,0x20,0x20,0x20,0x20,0x20,0x20,0x20
0006f0 2020
0006f1 2020
0006f2 2020
0006f3 2020      	.DB  0x20,0x20,0x20,0x20,0x20,0x20,0x20,0x20
0006f4 2020
0006f5 2020
0006f6 2020
0006f7 2020      	.DB  0x20,0x20,0x20,0x20,0x20,0x20,0x20,0x20
0006f8 2020
0006f9 2020
0006fa 2020
0006fb 2020      	.DB  0x20,0x20,0x20,0x20,0x20,0x20,0x20,0x20
0006fc 2020
0006fd 2020
0006fe 2020
0006ff 2020      	.DB  0x20,0x20,0x20,0x20,0x20,0x20,0x20,0x20
000700 2020
000701 0020
000702 c1c8
000703 3ad1      	.DB  0x20,0x20,0x20,0x0,0xC8,0xC1,0xD1,0x3A
000704 f2f1
000705 ede5
000706 eaee
000707 f0e0      	.DB  0xF1,0xF2,0xE5,0xED,0xEE,0xEA,0xE0,0xF0
000708 e8e4
000709 2cff
00070a ef20
00070b f1ee      	.DB  0xE4,0xE8,0xFF,0x2C,0x20,0xEF,0xEE,0xF1
00070c e8f2
00070d f4ed
00070e f0e0
00070f f2ea      	.DB  0xF2,0xE8,0xED,0xF4,0xE0,0xF0,0xEA,0xF2
000710 fbed
000711 20e9
000712 e0ea
000713 e4f0      	.DB  0xED,0xFB,0xE9,0x20,0xEA,0xE0,0xF0,0xE4
000714 eee8
000715 eaf1
000716 e5eb
000717 eef0      	.DB  0xE8,0xEE,0xF1,0xEA,0xEB,0xE5,0xF0,0xEE
000718 20e7
000719 20f1
00071a e5ed
00071b eee4      	.DB  0xE7,0x20,0xF1,0x20,0xED,0xE5,0xE4,0xEE
00071c f2f1
00071d f2e0
00071e f7ee
00071f eeed      	.DB  0xF1,0xF2,0xE0,0xF2,0xEE,0xF7,0xED,0xEE
000720 f2f1
000721 fefc
000722 ea20
000723 eef0      	.DB  0xF1,0xF2,0xFC,0xFE,0x20,0xEA,0xF0,0xEE
000724 eee2
000725 e1ee
000726 e0f0
000727 e5f9      	.DB  0xE2,0xEE,0xEE,0xE1,0xF0,0xE0,0xF9,0xE5
000728 e8ed
000729 2eff
00072a 2020
00072b 2020      	.DB  0xED,0xE8,0xFF,0x2E,0x20,0x20,0x20,0x20
00072c 2020
00072d 2020
00072e 2020
00072f 2020      	.DB  0x20,0x20,0x20,0x20,0x20,0x20,0x20,0x20
000730 2020
000731 2020
000732 2020
000733 2020      	.DB  0x20,0x20,0x20,0x20,0x20,0x20,0x20,0x20
000734 2020
000735 c800
000736 d1c1
000737 f13a      	.DB  0x20,0x20,0x0,0xC8,0xC1,0xD1,0x3A,0xF1
000738 e5f2
000739 eeed
00073a e0ea
00073b e4f0      	.DB  0xF2,0xE5,0xED,0xEE,0xEA,0xE0,0xF0,0xE4
00073c ffe8
00073d ef2c
00073e f1ee
00073f e8f2      	.DB  0xE8,0xFF,0x2C,0xEF,0xEE,0xF1,0xF2,0xE8
000740 f4ed
000741 f0e0
000742 f2ea
000743 fbed      	.DB  0xED,0xF4,0xE0,0xF0,0xEA,0xF2,0xED,0xFB
000744 20e9
000745 e0ea
000746 e4f0
000747 eee8      	.DB  0xE9,0x20,0xEA,0xE0,0xF0,0xE4,0xE8,0xEE
000748 eaf1
000749 e5eb
00074a eef0
00074b 2ce7      	.DB  0xF1,0xEA,0xEB,0xE5,0xF0,0xEE,0xE7,0x2C
00074c e5ed
00074d eee4
00074e f2f1
00074f f2e0      	.DB  0xED,0xE5,0xE4,0xEE,0xF1,0xF2,0xE0,0xF2
000750 f7ee
000751 eeed
000752 20e5
000753 f0ea      	.DB  0xEE,0xF7,0xED,0xEE,0xE5,0x20,0xEA,0xF0
000754 e2ee
000755 eeee
000756 f0e1
000757 f9e0      	.DB  0xEE,0xE2,0xEE,0xEE,0xE1,0xF0,0xE0,0xF9
000758 ede5
000759 ffe8
00075a f120
00075b e320      	.DB  0xE5,0xED,0xE8,0xFF,0x20,0xF1,0x20,0xE3
00075c efe8
00075d f0e5
00075e eef2
00075f e8ed      	.DB  0xE8,0xEF,0xE5,0xF0,0xF2,0xEE,0xED,0xE8
000760 e9e5
000761 202e
000762 2020
000763 2020      	.DB  0xE5,0xE9,0x2E,0x20,0x20,0x20,0x20,0x20
000764 2020
000765 2020
000766 2020
000767 2020      	.DB  0x20,0x20,0x20,0x20,0x20,0x20,0x20,0x20
000768 0020
000769 e8c3
00076a e5ef
00076b f2f0      	.DB  0x20,0x0,0xC3,0xE8,0xEF,0xE5,0xF0,0xF2
00076c edee
00076d f7e8
00076e f1e5
00076f e0ea      	.DB  0xEE,0xED,0xE8,0xF7,0xE5,0xF1,0xEA,0xE0
000770 20ff
000771 eee1
000772 e5eb
000773 ede7      	.DB  0xFF,0x20,0xE1,0xEE,0xEB,0xE5,0xE7,0xED
000774 20fc
000775 20f1
000776 e8e4
000777 f6f1      	.DB  0xFC,0x20,0xF1,0x20,0xE4,0xE8,0xF1,0xF6
000778 f0e8
000779 f3ea
00077a ffeb
00077b eef2      	.DB  0xE8,0xF0,0xEA,0xF3,0xEB,0xFF,0xF2,0xEE
00077c edf0
00077d e9ee
00077e fd20
00077f f6ed      	.DB  0xF0,0xED,0xEE,0xE9,0x20,0xFD,0xED,0xF6
000780 f4e5
000781 ebe0
000782 efee
000783 f2e0      	.DB  0xE5,0xF4,0xE0,0xEB,0xEE,0xEF,0xE0,0xF2
000784 e5e8
000785 2ee9
000786 2020
000787 2020      	.DB  0xE8,0xE5,0xE9,0x2E,0x20,0x20,0x20,0x20
000788 2020
000789 2020
00078a 2020
00078b 2020      	.DB  0x20,0x20,0x20,0x20,0x20,0x20,0x20,0x20
00078c 2020
00078d 2020
00078e 2020
00078f 2020      	.DB  0x20,0x20,0x20,0x20,0x20,0x20,0x20,0x20
000790 2020
000791 2020
000792 2020
000793 2020      	.DB  0x20,0x20,0x20,0x20,0x20,0x20,0x20,0x20
000794 2020
000795 2020
000796 2020
000797 2020      	.DB  0x20,0x20,0x20,0x20,0x20,0x20,0x20,0x20
000798 2020
000799 2020
00079a 2020
00079b 2020      	.DB  0x20,0x20,0x20,0x20,0x20,0x20,0x20,0x20
00079c c300
00079d efe8
00079e f0e5
00079f eef2      	.DB  0x0,0xC3,0xE8,0xEF,0xE5,0xF0,0xF2,0xEE
0007a0 e8ed
0007a1 e5f7
0007a2 eaf1
0007a3 ffe0      	.DB  0xED,0xE8,0xF7,0xE5,0xF1,0xEA,0xE0,0xFF
0007a4 e120
0007a5 ebee
0007a6 e7e5
0007a7 fced      	.DB  0x20,0xE1,0xEE,0xEB,0xE5,0xE7,0xED,0xFC
0007a8 f120
0007a9 e420
0007aa f1e8
0007ab e8f6      	.DB  0x20,0xF1,0x20,0xE4,0xE8,0xF1,0xF6,0xE8
0007ac eaf0
0007ad ebf3
0007ae f2ff
0007af f0ee      	.DB  0xF0,0xEA,0xF3,0xEB,0xFF,0xF2,0xEE,0xF0
0007b0 eeed
0007b1 20e9
0007b2 edfd
0007b3 e5f6      	.DB  0xED,0xEE,0xE9,0x20,0xFD,0xED,0xF6,0xE5
0007b4 e0f4
0007b5 eeeb
0007b6 e0ef
0007b7 e8f2      	.DB  0xF4,0xE0,0xEB,0xEE,0xEF,0xE0,0xF2,0xE8
0007b8 e9e5
0007b9 202e
0007ba 2020
0007bb 2020      	.DB  0xE5,0xE9,0x2E,0x20,0x20,0x20,0x20,0x20
0007bc 2020
0007bd 2020
0007be 2020
0007bf 2020      	.DB  0x20,0x20,0x20,0x20,0x20,0x20,0x20,0x20
0007c0 2020
0007c1 2020
0007c2 2020
0007c3 2020      	.DB  0x20,0x20,0x20,0x20,0x20,0x20,0x20,0x20
0007c4 2020
0007c5 2020
0007c6 2020
0007c7 2020      	.DB  0x20,0x20,0x20,0x20,0x20,0x20,0x20,0x20
0007c8 2020
0007c9 2020
0007ca 2020
0007cb 2020      	.DB  0x20,0x20,0x20,0x20,0x20,0x20,0x20,0x20
0007cc 2020
0007cd 2020
0007ce 2020
0007cf 0020      	.DB  0x20,0x20,0x20,0x20,0x20,0x20,0x20,0x0
0007d0 e0cd
0007d1 f3f0
0007d2 e5f8
0007d3 e8ed      	.DB  0xCD,0xE0,0xF0,0xF3,0xF8,0xE5,0xED,0xE8
0007d4 20ff
0007d5 e8f0
0007d6 ecf2
0007d7 20e0      	.DB  0xFF,0x20,0xF0,0xE8,0xF2,0xEC,0xE0,0x20
0007d8 e5e1
0007d9 20e7
0007da c1c8
0007db 2ed1      	.DB  0xE1,0xE5,0xE7,0x20,0xC8,0xC1,0xD1,0x2E
0007dc 2020
0007dd 2020
0007de 2020
0007df 2020      	.DB  0x20,0x20,0x20,0x20,0x20,0x20,0x20,0x20
0007e0 2020
0007e1 2020
0007e2 2020
0007e3 2020      	.DB  0x20,0x20,0x20,0x20,0x20,0x20,0x20,0x20
0007e4 2020
0007e5 2020
0007e6 2020
0007e7 2020      	.DB  0x20,0x20,0x20,0x20,0x20,0x20,0x20,0x20
0007e8 2020
0007e9 2020
0007ea 2020
0007eb 2020      	.DB  0x20,0x20,0x20,0x20,0x20,0x20,0x20,0x20
0007ec 2020
0007ed 2020
0007ee 2020
0007ef 2020      	.DB  0x20,0x20,0x20,0x20,0x20,0x20,0x20,0x20
0007f0 2020
0007f1 2020
0007f2 2020
0007f3 2020      	.DB  0x20,0x20,0x20,0x20,0x20,0x20,0x20,0x20
0007f4 2020
0007f5 2020
0007f6 2020
0007f7 2020      	.DB  0x20,0x20,0x20,0x20,0x20,0x20,0x20,0x20
0007f8 2020
0007f9 2020
0007fa 2020
0007fb 2020      	.DB  0x20,0x20,0x20,0x20,0x20,0x20,0x20,0x20
0007fc 2020
0007fd 2020
0007fe 2020
0007ff 2020      	.DB  0x20,0x20,0x20,0x20,0x20,0x20,0x20,0x20
000800 2020
000801 2020
000802 2020
000803 cc00      	.DB  0x20,0x20,0x20,0x20,0x20,0x20,0x0,0xCC
000804 eee8
000805 e0ea
000806 e4f0
000807 f2e8      	.DB  0xE8,0xEE,0xEA,0xE0,0xF0,0xE4,0xE8,0xF2
000808 202e
000809 2020
00080a 2020
00080b 2020      	.DB  0x2E,0x20,0x20,0x20,0x20,0x20,0x20,0x20
00080c 2020
00080d 2020
00080e 2020
00080f 2020      	.DB  0x20,0x20,0x20,0x20,0x20,0x20,0x20,0x20
000810 2020
000811 2020
000812 2020
000813 2020      	.DB  0x20,0x20,0x20,0x20,0x20,0x20,0x20,0x20
000814 2020
000815 2020
000816 2020
000817 2020      	.DB  0x20,0x20,0x20,0x20,0x20,0x20,0x20,0x20
000818 2020
000819 2020
00081a 2020
00081b 2020      	.DB  0x20,0x20,0x20,0x20,0x20,0x20,0x20,0x20
00081c 2020
00081d 2020
00081e 2020
00081f 2020      	.DB  0x20,0x20,0x20,0x20,0x20,0x20,0x20,0x20
000820 2020
000821 2020
000822 2020
000823 2020      	.DB  0x20,0x20,0x20,0x20,0x20,0x20,0x20,0x20
000824 2020
000825 2020
000826 2020
000827 2020      	.DB  0x20,0x20,0x20,0x20,0x20,0x20,0x20,0x20
000828 2020
000829 2020
00082a 2020
00082b 2020      	.DB  0x20,0x20,0x20,0x20,0x20,0x20,0x20,0x20
00082c 2020
00082d 2020
00082e 2020
00082f 2020      	.DB  0x20,0x20,0x20,0x20,0x20,0x20,0x20,0x20
000830 2020
000831 2020
000832 2020
000833 2020      	.DB  0x20,0x20,0x20,0x20,0x20,0x20,0x20,0x20
000834 2020
000835 2020
000836 0020
000837 eecf      	.DB  0x20,0x20,0x20,0x20,0x20,0x0,0xCF,0xEE
000838 eef0
000839 20ea
00083a e5f1
00083b e4f0      	.DB  0xF0,0xEE,0xEA,0x20,0xF1,0xE5,0xF0,0xE4
00083c e0f6
00083d 2820
00083e e5f0
00083f ece2      	.DB  0xF6,0xE0,0x20,0x28,0xF0,0xE5,0xE2,0xEC
000840 f2e0
000841 f7e8
000842 f1e5
000843 e8ea      	.DB  0xE0,0xF2,0xE8,0xF7,0xE5,0xF1,0xEA,0xE8
000844 2ce9
000845 e220
000846 eef0
000847 e4e6      	.DB  0xE9,0x2C,0x20,0xE2,0xF0,0xEE,0xE6,0xE4
000848 ede5
000849 fbed
00084a 29e9
00084b f120      	.DB  0xE5,0xED,0xED,0xFB,0xE9,0x29,0x20,0xF1
00084c ed20
00084d e4e5
00084e f1ee
00084f e0f2      	.DB  0x20,0xED,0xE5,0xE4,0xEE,0xF1,0xF2,0xE0
000850 eef2
000851 edf7
000852 f1ee
000853 fcf2      	.DB  0xF2,0xEE,0xF7,0xED,0xEE,0xF1,0xF2,0xFC
000854 20fe
000855 f0ea
000856 e2ee
000857 eeee      	.DB  0xFE,0x20,0xEA,0xF0,0xEE,0xE2,0xEE,0xEE
000858 f0e1
000859 f9e0
00085a ede5
00085b ffe8      	.DB  0xE1,0xF0,0xE0,0xF9,0xE5,0xED,0xE8,0xFF
00085c 202e
00085d 2020
00085e 2020
00085f 2020      	.DB  0x2E,0x20,0x20,0x20,0x20,0x20,0x20,0x20
000860 2020
000861 2020
000862 2020
000863 2020      	.DB  0x20,0x20,0x20,0x20,0x20,0x20,0x20,0x20
000864 2020
000865 2020
000866 2020
000867 2020      	.DB  0x20,0x20,0x20,0x20,0x20,0x20,0x20,0x20
000868 2020
000869 2020
00086a cf00
00086b f0ee      	.DB  0x20,0x20,0x20,0x20,0x0,0xCF,0xEE,0xF0
00086c eaee
00086d f120
00086e f0e5
00086f f6e4      	.DB  0xEE,0xEA,0x20,0xF1,0xE5,0xF0,0xE4,0xF6
000870 20e0
000871 f028
000872 e2e5
000873 e0ec      	.DB  0xE0,0x20,0x28,0xF0,0xE5,0xE2,0xEC,0xE0
000874 e8f2
000875 e5f7
000876 eaf1
000877 e9e8      	.DB  0xF2,0xE8,0xF7,0xE5,0xF1,0xEA,0xE8,0xE9
000878 202c
000879 f0e2
00087a e6ee
00087b e5e4      	.DB  0x2C,0x20,0xE2,0xF0,0xEE,0xE6,0xE4,0xE5
00087c eded
00087d e9fb
00087e 2c29
00087f ed20      	.DB  0xED,0xED,0xFB,0xE9,0x29,0x2C,0x20,0xED
000880 e4e5
000881 f1ee
000882 e0f2
000883 eef2      	.DB  0xE5,0xE4,0xEE,0xF1,0xF2,0xE0,0xF2,0xEE
000884 edf7
000885 f1ee
000886 fcf2
000887 ea20      	.DB  0xF7,0xED,0xEE,0xF1,0xF2,0xFC,0x20,0xEA
000888 eef0
000889 eee2
00088a e1ee
00088b e0f0      	.DB  0xF0,0xEE,0xE2,0xEE,0xEE,0xE1,0xF0,0xE0
00088c e5f9
00088d e8ed
00088e 20ff
00088f 20f1      	.DB  0xF9,0xE5,0xED,0xE8,0xFF,0x20,0xF1,0x20
000890 e8e3
000891 e5ef
000892 f2f0
000893 edee      	.DB  0xE3,0xE8,0xEF,0xE5,0xF0,0xF2,0xEE,0xED
000894 e5e8
000895 2ee9
000896 2020
000897 2020      	.DB  0xE8,0xE5,0xE9,0x2E,0x20,0x20,0x20,0x20
000898 2020
000899 2020
00089a 2020
00089b 2020      	.DB  0x20,0x20,0x20,0x20,0x20,0x20,0x20,0x20
00089c 2020
00089d 0020
00089e f0c1
00089f edee      	.DB  0x20,0x20,0x20,0x0,0xC1,0xF0,0xEE,0xED
0008a0 e8f5
0008a1 ebe0
0008a2 edfc
0008a3 ffe0      	.DB  0xF5,0xE8,0xE0,0xEB,0xFC,0xED,0xE0,0xFF
0008a4 e020
0008a5 f2f1
0008a6 e0ec
0008a7 202e      	.DB  0x20,0xE0,0xF1,0xF2,0xEC,0xE0,0x2E,0x20
0008a8 2020
0008a9 2020
0008aa 2020
0008ab 2020      	.DB  0x20,0x20,0x20,0x20,0x20,0x20,0x20,0x20
0008ac 2020
0008ad 2020
0008ae 2020
0008af 2020      	.DB  0x20,0x20,0x20,0x20,0x20,0x20,0x20,0x20
0008b0 2020
0008b1 2020
0008b2 2020
0008b3 2020      	.DB  0x20,0x20,0x20,0x20,0x20,0x20,0x20,0x20
0008b4 2020
0008b5 2020
0008b6 2020
0008b7 2020      	.DB  0x20,0x20,0x20,0x20,0x20,0x20,0x20,0x20
0008b8 2020
0008b9 2020
0008ba 2020
0008bb 2020      	.DB  0x20,0x20,0x20,0x20,0x20,0x20,0x20,0x20
0008bc 2020
0008bd 2020
0008be 2020
0008bf 2020      	.DB  0x20,0x20,0x20,0x20,0x20,0x20,0x20,0x20
0008c0 2020
0008c1 2020
0008c2 2020
0008c3 2020      	.DB  0x20,0x20,0x20,0x20,0x20,0x20,0x20,0x20
0008c4 2020
0008c5 2020
0008c6 2020
0008c7 2020      	.DB  0x20,0x20,0x20,0x20,0x20,0x20,0x20,0x20
0008c8 2020
0008c9 2020
0008ca 2020
0008cb 2020      	.DB  0x20,0x20,0x20,0x20,0x20,0x20,0x20,0x20
0008cc 2020
0008cd 2020
0008ce 2020
0008cf 2020      	.DB  0x20,0x20,0x20,0x20,0x20,0x20,0x20,0x20
0008d0 2020
0008d1 c100
0008d2 eef0
0008d3 f5ed      	.DB  0x20,0x20,0x0,0xC1,0xF0,0xEE,0xED,0xF5
0008d4 f2e8
0008d5 2820
0008d6 f1ee
0008d7 f0f2      	.DB  0xE8,0xF2,0x20,0x28,0xEE,0xF1,0xF2,0xF0
0008d8 e9fb
0008d9 2e29
0008da 2020
0008db 2020      	.DB  0xFB,0xE9,0x29,0x2E,0x20,0x20,0x20,0x20
0008dc 2020
0008dd 2020
0008de 2020
0008df 2020      	.DB  0x20,0x20,0x20,0x20,0x20,0x20,0x20,0x20
0008e0 2020
0008e1 2020
0008e2 2020
0008e3 2020      	.DB  0x20,0x20,0x20,0x20,0x20,0x20,0x20,0x20
0008e4 2020
0008e5 2020
0008e6 2020
0008e7 2020      	.DB  0x20,0x20,0x20,0x20,0x20,0x20,0x20,0x20
0008e8 2020
0008e9 2020
0008ea 2020
0008eb 2020      	.DB  0x20,0x20,0x20,0x20,0x20,0x20,0x20,0x20
0008ec 2020
0008ed 2020
0008ee 2020
0008ef 2020      	.DB  0x20,0x20,0x20,0x20,0x20,0x20,0x20,0x20
0008f0 2020
0008f1 2020
0008f2 2020
0008f3 2020      	.DB  0x20,0x20,0x20,0x20,0x20,0x20,0x20,0x20
0008f4 2020
0008f5 2020
0008f6 2020
0008f7 2020      	.DB  0x20,0x20,0x20,0x20,0x20,0x20,0x20,0x20
0008f8 2020
0008f9 2020
0008fa 2020
0008fb 2020      	.DB  0x20,0x20,0x20,0x20,0x20,0x20,0x20,0x20
0008fc 2020
0008fd 2020
0008fe 2020
0008ff 2020      	.DB  0x20,0x20,0x20,0x20,0x20,0x20,0x20,0x20
000900 2020
000901 2020
000902 2020
000903 2020      	.DB  0x20,0x20,0x20,0x20,0x20,0x20,0x20,0x20
000904 0020
000905 edcf
000906 e2e5
000907 eeec      	.DB  0x20,0x0,0xCF,0xED,0xE5,0xE2,0xEC,0xEE
000908 e8ed
000909 20ff
00090a ee28
00090b f2f1      	.DB  0xED,0xE8,0xFF,0x20,0x28,0xEE,0xF1,0xF2
00090c e0f0
00090d 2cff
00090e ee20
00090f eee1      	.DB  0xF0,0xE0,0xFF,0x2C,0x20,0xEE,0xE1,0xEE
000910 f2f1
000911 e5f0
000912 e8ed
000913 20e5      	.DB  0xF1,0xF2,0xF0,0xE5,0xED,0xE8,0xE5,0x20
000914 f0f5
000915 edee
000916 f7e8
000917 f1e5      	.DB  0xF5,0xF0,0xEE,0xED,0xE8,0xF7,0xE5,0xF1
000918 eeea
000919 29e9
00091a 202e
00091b 2020      	.DB  0xEA,0xEE,0xE9,0x29,0x2E,0x20,0x20,0x20
00091c 2020
00091d 2020
00091e 2020
00091f 2020      	.DB  0x20,0x20,0x20,0x20,0x20,0x20,0x20,0x20
000920 2020
000921 2020
000922 2020
000923 2020      	.DB  0x20,0x20,0x20,0x20,0x20,0x20,0x20,0x20
000924 2020
000925 2020
000926 2020
000927 2020      	.DB  0x20,0x20,0x20,0x20,0x20,0x20,0x20,0x20
000928 2020
000929 2020
00092a 2020
00092b 2020      	.DB  0x20,0x20,0x20,0x20,0x20,0x20,0x20,0x20
00092c 2020
00092d 2020
00092e 2020
00092f 2020      	.DB  0x20,0x20,0x20,0x20,0x20,0x20,0x20,0x20
000930 2020
000931 2020
000932 2020
000933 2020      	.DB  0x20,0x20,0x20,0x20,0x20,0x20,0x20,0x20
000934 2020
000935 2020
000936 2020
000937 2020      	.DB  0x20,0x20,0x20,0x20,0x20,0x20,0x20,0x20
000938 df00
000939 e2e7
00093a ede5
00093b e0ed      	.DB  0x0,0xDF,0xE7,0xE2,0xE5,0xED,0xED,0xE0
00093c 20ff
00093d eee1
00093e e5eb
00093f ede7      	.DB  0xFF,0x20,0xE1,0xEE,0xEB,0xE5,0xE7,0xED
000940 20fc
000941 e5e6
000942 f3eb
000943 eae4      	.DB  0xFC,0x20,0xE6,0xE5,0xEB,0xF3,0xE4,0xEA
000944 20e0
000945 20e8
000946 3231
000947 f22d      	.DB  0xE0,0x20,0xE8,0x20,0x31,0x32,0x2D,0xF2
000948 20e8
000949 e5ef
00094a f1f0
00094b edf2      	.DB  0xE8,0x20,0xEF,0xE5,0xF0,0xF1,0xF2,0xED
00094c e9ee
00094d ea20
00094e f8e8
00094f e8ea      	.DB  0xEE,0xE9,0x20,0xEA,0xE8,0xF8,0xEA,0xE8
000950 202e
000951 2020
000952 2020
000953 2020      	.DB  0x2E,0x20,0x20,0x20,0x20,0x20,0x20,0x20
000954 2020
000955 2020
000956 2020
000957 2020      	.DB  0x20,0x20,0x20,0x20,0x20,0x20,0x20,0x20
000958 2020
000959 2020
00095a 2020
00095b 2020      	.DB  0x20,0x20,0x20,0x20,0x20,0x20,0x20,0x20
00095c 2020
00095d 2020
00095e 2020
00095f 2020      	.DB  0x20,0x20,0x20,0x20,0x20,0x20,0x20,0x20
000960 2020
000961 2020
000962 2020
000963 2020      	.DB  0x20,0x20,0x20,0x20,0x20,0x20,0x20,0x20
000964 2020
000965 2020
000966 2020
000967 2020      	.DB  0x20,0x20,0x20,0x20,0x20,0x20,0x20,0x20
000968 2020
000969 2020
00096a 2020
00096b 0020      	.DB  0x20,0x20,0x20,0x20,0x20,0x20,0x20,0x0
00096c e0c3
00096d f2f1
00096e e8f0
00096f 2ef2      	.DB  0xC3,0xE0,0xF1,0xF2,0xF0,0xE8,0xF2,0x2E
000970 2020
000971 2020
000972 2020
000973 2020      	.DB  0x20,0x20,0x20,0x20,0x20,0x20,0x20,0x20
000974 2020
000975 2020
000976 2020
000977 2020      	.DB  0x20,0x20,0x20,0x20,0x20,0x20,0x20,0x20
000978 2020
000979 2020
00097a 2020
00097b 2020      	.DB  0x20,0x20,0x20,0x20,0x20,0x20,0x20,0x20
00097c 2020
00097d 2020
00097e 2020
00097f 2020      	.DB  0x20,0x20,0x20,0x20,0x20,0x20,0x20,0x20
000980 2020
000981 2020
000982 2020
000983 2020      	.DB  0x20,0x20,0x20,0x20,0x20,0x20,0x20,0x20
000984 2020
000985 2020
000986 2020
000987 2020      	.DB  0x20,0x20,0x20,0x20,0x20,0x20,0x20,0x20
000988 2020
000989 2020
00098a 2020
00098b 2020      	.DB  0x20,0x20,0x20,0x20,0x20,0x20,0x20,0x20
00098c 2020
00098d 2020
00098e 2020
00098f 2020      	.DB  0x20,0x20,0x20,0x20,0x20,0x20,0x20,0x20
000990 2020
000991 2020
000992 2020
000993 2020      	.DB  0x20,0x20,0x20,0x20,0x20,0x20,0x20,0x20
000994 2020
000995 2020
000996 2020
000997 2020      	.DB  0x20,0x20,0x20,0x20,0x20,0x20,0x20,0x20
000998 2020
000999 2020
00099a 2020
00099b 2020      	.DB  0x20,0x20,0x20,0x20,0x20,0x20,0x20,0x20
00099c 2020
00099d 2020
00099e 2020
00099f d500      	.DB  0x20,0x20,0x20,0x20,0x20,0x20,0x0,0xD5
0009a0 ebee
0009a1 f6e5
0009a2 f1e8
0009a3 eef2      	.DB  0xEE,0xEB,0xE5,0xF6,0xE8,0xF1,0xF2,0xEE
0009a4 ef2d
0009a5 ede0
0009a6 f0ea
0009a7 e0e5      	.DB  0x2D,0xEF,0xE0,0xED,0xEA,0xF0,0xE5,0xE0
0009a8 e8f2
0009a9 2ef2
0009aa 2020
0009ab 2020      	.DB  0xF2,0xE8,0xF2,0x2E,0x20,0x20,0x20,0x20
0009ac 2020
0009ad 2020
0009ae 2020
0009af 2020      	.DB  0x20,0x20,0x20,0x20,0x20,0x20,0x20,0x20
0009b0 2020
0009b1 2020
0009b2 2020
0009b3 2020      	.DB  0x20,0x20,0x20,0x20,0x20,0x20,0x20,0x20
0009b4 2020
0009b5 2020
0009b6 2020
0009b7 2020      	.DB  0x20,0x20,0x20,0x20,0x20,0x20,0x20,0x20
0009b8 2020
0009b9 2020
0009ba 2020
0009bb 2020      	.DB  0x20,0x20,0x20,0x20,0x20,0x20,0x20,0x20
0009bc 2020
0009bd 2020
0009be 2020
0009bf 2020      	.DB  0x20,0x20,0x20,0x20,0x20,0x20,0x20,0x20
0009c0 2020
0009c1 2020
0009c2 2020
0009c3 2020      	.DB  0x20,0x20,0x20,0x20,0x20,0x20,0x20,0x20
0009c4 2020
0009c5 2020
0009c6 2020
0009c7 2020      	.DB  0x20,0x20,0x20,0x20,0x20,0x20,0x20,0x20
0009c8 2020
0009c9 2020
0009ca 2020
0009cb 2020      	.DB  0x20,0x20,0x20,0x20,0x20,0x20,0x20,0x20
0009cc 2020
0009cd 2020
0009ce 2020
0009cf 2020      	.DB  0x20,0x20,0x20,0x20,0x20,0x20,0x20,0x20
0009d0 2020
0009d1 2020
0009d2 0020
0009d3 eeca      	.DB  0x20,0x20,0x20,0x20,0x20,0x0,0xCA,0xEE
0009d4 e8eb
0009d5 2ef2
0009d6 2020
0009d7 2020      	.DB  0xEB,0xE8,0xF2,0x2E,0x20,0x20,0x20,0x20
0009d8 2020
0009d9 2020
0009da 2020
0009db 2020      	.DB  0x20,0x20,0x20,0x20,0x20,0x20,0x20,0x20
0009dc 2020
0009dd 2020
0009de 2020
0009df 2020      	.DB  0x20,0x20,0x20,0x20,0x20,0x20,0x20,0x20
0009e0 2020
0009e1 2020
0009e2 2020
0009e3 2020      	.DB  0x20,0x20,0x20,0x20,0x20,0x20,0x20,0x20
0009e4 2020
0009e5 2020
0009e6 2020
0009e7 2020      	.DB  0x20,0x20,0x20,0x20,0x20,0x20,0x20,0x20
0009e8 2020
0009e9 2020
0009ea 2020
0009eb 2020      	.DB  0x20,0x20,0x20,0x20,0x20,0x20,0x20,0x20
0009ec 2020
0009ed 2020
0009ee 2020
0009ef 2020      	.DB  0x20,0x20,0x20,0x20,0x20,0x20,0x20,0x20
0009f0 2020
0009f1 2020
0009f2 2020
0009f3 2020      	.DB  0x20,0x20,0x20,0x20,0x20,0x20,0x20,0x20
0009f4 2020
0009f5 2020
0009f6 2020
0009f7 2020      	.DB  0x20,0x20,0x20,0x20,0x20,0x20,0x20,0x20
0009f8 2020
0009f9 2020
0009fa 2020
0009fb 2020      	.DB  0x20,0x20,0x20,0x20,0x20,0x20,0x20,0x20
0009fc 2020
0009fd 2020
0009fe 2020
0009ff 2020      	.DB  0x20,0x20,0x20,0x20,0x20,0x20,0x20,0x20
000a00 2020
000a01 2020
000a02 2020
000a03 2020      	.DB  0x20,0x20,0x20,0x20,0x20,0x20,0x20,0x20
000a04 2020
000a05 2020
000a06 c400
000a07 f1e8      	.DB  0x20,0x20,0x20,0x20,0x0,0xC4,0xE8,0xF1
000a08 e8f6
000a09 eaf0
000a0a ebf3
000a0b f2ff      	.DB  0xF6,0xE8,0xF0,0xEA,0xF3,0xEB,0xFF,0xF2
000a0c f0ee
000a0d e0ed
000a0e 20ff
000a0f edfd      	.DB  0xEE,0xF0,0xED,0xE0,0xFF,0x20,0xFD,0xED
000a10 e5f6
000a11 e0f4
000a12 eeeb
000a13 e0ef      	.DB  0xF6,0xE5,0xF4,0xE0,0xEB,0xEE,0xEF,0xE0
000a14 e8f2
000a15 20ff
000a16 e028
000a17 e5f2      	.DB  0xF2,0xE8,0xFF,0x20,0x28,0xE0,0xF2,0xE5
000a18 eef0
000a19 eaf1
000a1a e5eb
000a1b eef0      	.DB  0xF0,0xEE,0xF1,0xEA,0xEB,0xE5,0xF0,0xEE
000a1c 20e7
000a1d eef1
000a1e f3f1
000a1f eee4      	.DB  0xE7,0x20,0xF1,0xEE,0xF1,0xF3,0xE4,0xEE
000a20 20e2
000a21 eee3
000a22 eeeb
000a23 ede2      	.DB  0xE2,0x20,0xE3,0xEE,0xEB,0xEE,0xE2,0xED
000a24 e3ee
000a25 20ee
000a26 eeec
000a27 e3e7      	.DB  0xEE,0xE3,0xEE,0x20,0xEC,0xEE,0xE7,0xE3
000a28 29e0
000a29 202e
000a2a 2020
000a2b 2020      	.DB  0xE0,0x29,0x2E,0x20,0x20,0x20,0x20,0x20
000a2c 2020
000a2d 2020
000a2e 2020
000a2f 2020      	.DB  0x20,0x20,0x20,0x20,0x20,0x20,0x20,0x20
000a30 2020
000a31 2020
000a32 2020
000a33 2020      	.DB  0x20,0x20,0x20,0x20,0x20,0x20,0x20,0x20
000a34 2020
000a35 2020
000a36 2020
000a37 2020      	.DB  0x20,0x20,0x20,0x20,0x20,0x20,0x20,0x20
000a38 2020
000a39 0020
000a3a e5c2
000a3b f2f0      	.DB  0x20,0x20,0x20,0x0,0xC2,0xE5,0xF0,0xF2
000a3c e1e5
000a3d e0f0
000a3e fceb
000a3f eeed      	.DB  0xE5,0xE1,0xF0,0xE0,0xEB,0xFC,0xED,0xEE
000a40 e12d
000a41 e7e0
000a42 ebe8
000a43 f0ff      	.DB  0x2D,0xE1,0xE0,0xE7,0xE8,0xEB,0xFF,0xF0
000a44 e0ed
000a45 20ff
000a46 e5ed
000a47 eee4      	.DB  0xED,0xE0,0xFF,0x20,0xED,0xE5,0xE4,0xEE
000a48 f2f1
000a49 f2e0
000a4a f7ee
000a4b eeed      	.DB  0xF1,0xF2,0xE0,0xF2,0xEE,0xF7,0xED,0xEE
000a4c f2f1
000a4d 2efc
000a4e 2020
000a4f 2020      	.DB  0xF1,0xF2,0xFC,0x2E,0x20,0x20,0x20,0x20
000a50 2020
000a51 2020
000a52 2020
000a53 2020      	.DB  0x20,0x20,0x20,0x20,0x20,0x20,0x20,0x20
000a54 2020
000a55 2020
000a56 2020
000a57 2020      	.DB  0x20,0x20,0x20,0x20,0x20,0x20,0x20,0x20
000a58 2020
000a59 2020
000a5a 2020
000a5b 2020      	.DB  0x20,0x20,0x20,0x20,0x20,0x20,0x20,0x20
000a5c 2020
000a5d 2020
000a5e 2020
000a5f 2020      	.DB  0x20,0x20,0x20,0x20,0x20,0x20,0x20,0x20
000a60 2020
000a61 2020
000a62 2020
000a63 2020      	.DB  0x20,0x20,0x20,0x20,0x20,0x20,0x20,0x20
000a64 2020
000a65 2020
000a66 2020
000a67 2020      	.DB  0x20,0x20,0x20,0x20,0x20,0x20,0x20,0x20
000a68 2020
000a69 2020
000a6a 2020
000a6b 2020      	.DB  0x20,0x20,0x20,0x20,0x20,0x20,0x20,0x20
000a6c 2020
000a6d cd00
000a6e e9e5
000a6f eef0      	.DB  0x20,0x20,0x0,0xCD,0xE5,0xE9,0xF0,0xEE
000a70 f62d
000a71 f0e8
000a72 f3ea
000a73 ffeb      	.DB  0x2D,0xF6,0xE8,0xF0,0xEA,0xF3,0xEB,0xFF
000a74 eef2
000a75 edf0
000a76 ffe0
000a77 e420      	.DB  0xF2,0xEE,0xF0,0xED,0xE0,0xFF,0x20,0xE4
000a78 f1e8
000a79 eef2
000a7a e8ed
000a7b 2eff      	.DB  0xE8,0xF1,0xF2,0xEE,0xED,0xE8,0xFF,0x2E
000a7c 2020
000a7d 2020
000a7e 2020
000a7f 2020      	.DB  0x20,0x20,0x20,0x20,0x20,0x20,0x20,0x20
000a80 2020
000a81 2020
000a82 2020
000a83 2020      	.DB  0x20,0x20,0x20,0x20,0x20,0x20,0x20,0x20
000a84 2020
000a85 2020
000a86 2020
000a87 2020      	.DB  0x20,0x20,0x20,0x20,0x20,0x20,0x20,0x20
000a88 2020
000a89 2020
000a8a 2020
000a8b 2020      	.DB  0x20,0x20,0x20,0x20,0x20,0x20,0x20,0x20
000a8c 2020
000a8d 2020
000a8e 2020
000a8f 2020      	.DB  0x20,0x20,0x20,0x20,0x20,0x20,0x20,0x20
000a90 2020
000a91 2020
000a92 2020
000a93 2020      	.DB  0x20,0x20,0x20,0x20,0x20,0x20,0x20,0x20
000a94 2020
000a95 2020
000a96 2020
000a97 2020      	.DB  0x20,0x20,0x20,0x20,0x20,0x20,0x20,0x20
000a98 2020
000a99 2020
000a9a 2020
000a9b 2020      	.DB  0x20,0x20,0x20,0x20,0x20,0x20,0x20,0x20
000a9c 2020
000a9d 2020
000a9e 2020
000a9f 2020      	.DB  0x20,0x20,0x20,0x20,0x20,0x20,0x20,0x20
000aa0 0020
000aa1 eed1
000aa2 f2f1
000aa3 ffee      	.DB  0x20,0x0,0xD1,0xEE,0xF1,0xF2,0xEE,0xFF
000aa4 e8ed
000aa5 20e5
000aa6 eeef
000aa7 ebf1      	.DB  0xED,0xE8,0xE5,0x20,0xEF,0xEE,0xF1,0xEB
000aa8 20e5
000aa9 e0ed
000aaa f3f0
000aab e5f8      	.DB  0xE5,0x20,0xED,0xE0,0xF0,0xF3,0xF8,0xE5
000aac e8ed
000aad 20ff
000aae eeec
000aaf e3e7      	.DB  0xED,0xE8,0xFF,0x20,0xEC,0xEE,0xE7,0xE3
000ab0 e2ee
000ab1 e3ee
000ab2 20ee
000ab3 f0ea      	.DB  0xEE,0xE2,0xEE,0xE3,0xEE,0x20,0xEA,0xF0
000ab4 e2ee
000ab5 eeee
000ab6 f0e1
000ab7 f9e0      	.DB  0xEE,0xE2,0xEE,0xEE,0xE1,0xF0,0xE0,0xF9
000ab8 ede5
000ab9 ffe8
000aba 202e
000abb 2020      	.DB  0xE5,0xED,0xE8,0xFF,0x2E,0x20,0x20,0x20
000abc 2020
000abd 2020
000abe 2020
000abf 2020      	.DB  0x20,0x20,0x20,0x20,0x20,0x20,0x20,0x20
000ac0 2020
000ac1 2020
000ac2 2020
000ac3 2020      	.DB  0x20,0x20,0x20,0x20,0x20,0x20,0x20,0x20
000ac4 2020
000ac5 2020
000ac6 2020
000ac7 2020      	.DB  0x20,0x20,0x20,0x20,0x20,0x20,0x20,0x20
000ac8 2020
000ac9 2020
000aca 2020
000acb 2020      	.DB  0x20,0x20,0x20,0x20,0x20,0x20,0x20,0x20
000acc 2020
000acd 2020
000ace 2020
000acf 2020      	.DB  0x20,0x20,0x20,0x20,0x20,0x20,0x20,0x20
000ad0 2020
000ad1 2020
000ad2 2020
000ad3 2020      	.DB  0x20,0x20,0x20,0x20,0x20,0x20,0x20,0x20
000ad4 d000
000ad5 e4e0
000ad6 eae8
000ad7 ebf3      	.DB  0x0,0xD0,0xE0,0xE4,0xE8,0xEA,0xF3,0xEB
000ad8 f2e8
000ad9 202c
000ada e5ed
000adb f0e2      	.DB  0xE8,0xF2,0x2C,0x20,0xED,0xE5,0xE2,0xF0
000adc f2e8
000add 2efb
000ade 2020
000adf 2020      	.DB  0xE8,0xF2,0xFB,0x2E,0x20,0x20,0x20,0x20
000ae0 2020
000ae1 2020
000ae2 2020
000ae3 2020      	.DB  0x20,0x20,0x20,0x20,0x20,0x20,0x20,0x20
000ae4 2020
000ae5 2020
000ae6 2020
000ae7 2020      	.DB  0x20,0x20,0x20,0x20,0x20,0x20,0x20,0x20
000ae8 2020
000ae9 2020
000aea 2020
000aeb 2020      	.DB  0x20,0x20,0x20,0x20,0x20,0x20,0x20,0x20
000aec 2020
000aed 2020
000aee 2020
000aef 2020      	.DB  0x20,0x20,0x20,0x20,0x20,0x20,0x20,0x20
000af0 2020
000af1 2020
000af2 2020
000af3 2020      	.DB  0x20,0x20,0x20,0x20,0x20,0x20,0x20,0x20
000af4 2020
000af5 2020
000af6 2020
000af7 2020      	.DB  0x20,0x20,0x20,0x20,0x20,0x20,0x20,0x20
000af8 2020
000af9 2020
000afa 2020
000afb 2020      	.DB  0x20,0x20,0x20,0x20,0x20,0x20,0x20,0x20
000afc 2020
000afd 2020
000afe 2020
000aff 2020      	.DB  0x20,0x20,0x20,0x20,0x20,0x20,0x20,0x20
000b00 2020
000b01 2020
000b02 2020
000b03 2020      	.DB  0x20,0x20,0x20,0x20,0x20,0x20,0x20,0x20
000b04 2020
000b05 2020
000b06 2020
000b07 0020      	.DB  0x20,0x20,0x20,0x20,0x20,0x20,0x20,0x0
000b08 f1ce
000b09 e5f2
000b0a f5ee
000b0b edee      	.DB  0xCE,0xF1,0xF2,0xE5,0xEE,0xF5,0xEE,0xED
000b0c f0e4
000b0d e7ee
000b0e ef20
000b0f e7ee      	.DB  0xE4,0xF0,0xEE,0xE7,0x20,0xEF,0xEE,0xE7
000b10 eee2
000b11 eeed
000b12 edf7
000b13 eae8      	.DB  0xE2,0xEE,0xED,0xEE,0xF7,0xED,0xE8,0xEA
000b14 2ee0
000b15 2020
000b16 2020
000b17 2020      	.DB  0xE0,0x2E,0x20,0x20,0x20,0x20,0x20,0x20
000b18 2020
000b19 2020
000b1a 2020
000b1b 2020      	.DB  0x20,0x20,0x20,0x20,0x20,0x20,0x20,0x20
000b1c 2020
000b1d 2020
000b1e 2020
000b1f 2020      	.DB  0x20,0x20,0x20,0x20,0x20,0x20,0x20,0x20
000b20 2020
000b21 2020
000b22 2020
000b23 2020      	.DB  0x20,0x20,0x20,0x20,0x20,0x20,0x20,0x20
000b24 2020
000b25 2020
000b26 2020
000b27 2020      	.DB  0x20,0x20,0x20,0x20,0x20,0x20,0x20,0x20
000b28 2020
000b29 2020
000b2a 2020
000b2b 2020      	.DB  0x20,0x20,0x20,0x20,0x20,0x20,0x20,0x20
000b2c 2020
000b2d 2020
000b2e 2020
000b2f 2020      	.DB  0x20,0x20,0x20,0x20,0x20,0x20,0x20,0x20
000b30 2020
000b31 2020
000b32 2020
000b33 2020      	.DB  0x20,0x20,0x20,0x20,0x20,0x20,0x20,0x20
000b34 2020
000b35 2020
000b36 2020
000b37 2020      	.DB  0x20,0x20,0x20,0x20,0x20,0x20,0x20,0x20
000b38 2020
000b39 2020
000b3a 2020
000b3b cd00      	.DB  0x20,0x20,0x20,0x20,0x20,0x20,0x0,0xCD
000b3c e2e5
000b3d eef0
000b3e fbe7
000b3f 202e      	.DB  0xE5,0xE2,0xF0,0xEE,0xE7,0xFB,0x2E,0x20
000b40 2020
000b41 2020
000b42 2020
000b43 2020      	.DB  0x20,0x20,0x20,0x20,0x20,0x20,0x20,0x20
000b44 2020
000b45 2020
000b46 2020
000b47 2020      	.DB  0x20,0x20,0x20,0x20,0x20,0x20,0x20,0x20
000b48 2020
000b49 2020
000b4a 2020
000b4b 2020      	.DB  0x20,0x20,0x20,0x20,0x20,0x20,0x20,0x20
000b4c 2020
000b4d 2020
000b4e 2020
000b4f 2020      	.DB  0x20,0x20,0x20,0x20,0x20,0x20,0x20,0x20
000b50 2020
000b51 2020
000b52 2020
000b53 2020      	.DB  0x20,0x20,0x20,0x20,0x20,0x20,0x20,0x20
000b54 2020
000b55 2020
000b56 2020
000b57 2020      	.DB  0x20,0x20,0x20,0x20,0x20,0x20,0x20,0x20
000b58 2020
000b59 2020
000b5a 2020
000b5b 2020      	.DB  0x20,0x20,0x20,0x20,0x20,0x20,0x20,0x20
000b5c 2020
000b5d 2020
000b5e 2020
000b5f 2020      	.DB  0x20,0x20,0x20,0x20,0x20,0x20,0x20,0x20
000b60 2020
000b61 2020
000b62 2020
000b63 2020      	.DB  0x20,0x20,0x20,0x20,0x20,0x20,0x20,0x20
000b64 2020
000b65 2020
000b66 2020
000b67 2020      	.DB  0x20,0x20,0x20,0x20,0x20,0x20,0x20,0x20
000b68 2020
000b69 2020
000b6a 2020
000b6b 2020      	.DB  0x20,0x20,0x20,0x20,0x20,0x20,0x20,0x20
000b6c 2020
000b6d 2020
000b6e 0020
000b6f e0d1      	.DB  0x20,0x20,0x20,0x20,0x20,0x0,0xD1,0xE0
000b70 e0f5
000b71 edf0
000b72 e9fb
000b73 e420      	.DB  0xF5,0xE0,0xF0,0xED,0xFB,0xE9,0x20,0xE4
000b74 e0e8
000b75 e5e1
000b76 2ef2
000b77 2020      	.DB  0xE8,0xE0,0xE1,0xE5,0xF2,0x2E,0x20,0x20
000b78 2020
000b79 2020
000b7a 2020
000b7b 2020      	.DB  0x20,0x20,0x20,0x20,0x20,0x20,0x20,0x20
000b7c 2020
000b7d 2020
000b7e 2020
000b7f 2020      	.DB  0x20,0x20,0x20,0x20,0x20,0x20,0x20,0x20
000b80 2020
000b81 2020
000b82 2020
000b83 2020      	.DB  0x20,0x20,0x20,0x20,0x20,0x20,0x20,0x20
000b84 2020
000b85 2020
000b86 2020
000b87 2020      	.DB  0x20,0x20,0x20,0x20,0x20,0x20,0x20,0x20
000b88 2020
000b89 2020
000b8a 2020
000b8b 2020      	.DB  0x20,0x20,0x20,0x20,0x20,0x20,0x20,0x20
000b8c 2020
000b8d 2020
000b8e 2020
000b8f 2020      	.DB  0x20,0x20,0x20,0x20,0x20,0x20,0x20,0x20
000b90 2020
000b91 2020
000b92 2020
000b93 2020      	.DB  0x20,0x20,0x20,0x20,0x20,0x20,0x20,0x20
000b94 2020
000b95 2020
000b96 2020
000b97 2020      	.DB  0x20,0x20,0x20,0x20,0x20,0x20,0x20,0x20
000b98 2020
000b99 2020
000b9a 2020
000b9b 2020      	.DB  0x20,0x20,0x20,0x20,0x20,0x20,0x20,0x20
000b9c 2020
000b9d 2020
000b9e 2020
000b9f 2020      	.DB  0x20,0x20,0x20,0x20,0x20,0x20,0x20,0x20
000ba0 2020
000ba1 2020
000ba2 cf00
000ba3 eef0      	.DB  0x20,0x20,0x20,0x20,0x0,0xCF,0xF0,0xEE
000ba4 f2f1
000ba5 f2e0
000ba6 f2e8
000ba7 202e      	.DB  0xF1,0xF2,0xE0,0xF2,0xE8,0xF2,0x2E,0x20
000ba8 2020
000ba9 2020
000baa 2020
000bab 2020      	.DB  0x20,0x20,0x20,0x20,0x20,0x20,0x20,0x20
000bac 2020
000bad 2020
000bae 2020
000baf 2020      	.DB  0x20,0x20,0x20,0x20,0x20,0x20,0x20,0x20
000bb0 2020
000bb1 2020
000bb2 2020
000bb3 2020      	.DB  0x20,0x20,0x20,0x20,0x20,0x20,0x20,0x20
000bb4 2020
000bb5 2020
000bb6 2020
000bb7 2020      	.DB  0x20,0x20,0x20,0x20,0x20,0x20,0x20,0x20
000bb8 2020
000bb9 2020
000bba 2020
000bbb 2020      	.DB  0x20,0x20,0x20,0x20,0x20,0x20,0x20,0x20
000bbc 2020
000bbd 2020
000bbe 2020
000bbf 2020      	.DB  0x20,0x20,0x20,0x20,0x20,0x20,0x20,0x20
000bc0 2020
000bc1 2020
000bc2 2020
000bc3 2020      	.DB  0x20,0x20,0x20,0x20,0x20,0x20,0x20,0x20
000bc4 2020
000bc5 2020
000bc6 2020
000bc7 2020      	.DB  0x20,0x20,0x20,0x20,0x20,0x20,0x20,0x20
000bc8 2020
000bc9 2020
000bca 2020
000bcb 2020      	.DB  0x20,0x20,0x20,0x20,0x20,0x20,0x20,0x20
000bcc 2020
000bcd 2020
000bce 2020
000bcf 2020      	.DB  0x20,0x20,0x20,0x20,0x20,0x20,0x20,0x20
000bd0 2020
000bd1 2020
000bd2 2020
000bd3 2020      	.DB  0x20,0x20,0x20,0x20,0x20,0x20,0x20,0x20
000bd4 2020
000bd5 0020
000bd6 e4c0
000bd7 ede5      	.DB  0x20,0x20,0x20,0x0,0xC0,0xE4,0xE5,0xED
000bd8 ecee
000bd9 20e0
000bda f0ef
000bdb f1ee      	.DB  0xEE,0xEC,0xE0,0x20,0xEF,0xF0,0xEE,0xF1
000bdc e0f2
000bdd fbf2
000bde 202e
000bdf 2020      	.DB  0xF2,0xE0,0xF2,0xFB,0x2E,0x20,0x20,0x20
000be0 2020
000be1 2020
000be2 2020
000be3 2020      	.DB  0x20,0x20,0x20,0x20,0x20,0x20,0x20,0x20
000be4 2020
000be5 2020
000be6 2020
000be7 2020      	.DB  0x20,0x20,0x20,0x20,0x20,0x20,0x20,0x20
000be8 2020
000be9 2020
000bea 2020
000beb 2020      	.DB  0x20,0x20,0x20,0x20,0x20,0x20,0x20,0x20
000bec 2020
000bed 2020
000bee 2020
000bef 2020      	.DB  0x20,0x20,0x20,0x20,0x20,0x20,0x20,0x20
000bf0 2020
000bf1 2020
000bf2 2020
000bf3 2020      	.DB  0x20,0x20,0x20,0x20,0x20,0x20,0x20,0x20
000bf4 2020
000bf5 2020
000bf6 2020
000bf7 2020      	.DB  0x20,0x20,0x20,0x20,0x20,0x20,0x20,0x20
000bf8 2020
000bf9 2020
000bfa 2020
000bfb 2020      	.DB  0x20,0x20,0x20,0x20,0x20,0x20,0x20,0x20
000bfc 2020
000bfd 2020
000bfe 2020
000bff 2020      	.DB  0x20,0x20,0x20,0x20,0x20,0x20,0x20,0x20
000c00 2020
000c01 2020
000c02 2020
000c03 2020      	.DB  0x20,0x20,0x20,0x20,0x20,0x20,0x20,0x20
000c04 2020
000c05 2020
000c06 2020
000c07 2020      	.DB  0x20,0x20,0x20,0x20,0x20,0x20,0x20,0x20
000c08 2020
000c09 cf00
000c0a e5e8
000c0b eeeb      	.DB  0x20,0x20,0x0,0xCF,0xE8,0xE5,0xEB,0xEE
000c0c e5ed
000c0d f0f4
000c0e f2e8
000c0f 202e      	.DB  0xED,0xE5,0xF4,0xF0,0xE8,0xF2,0x2E,0x20
000c10 2020
000c11 2020
000c12 2020
000c13 2020      	.DB  0x20,0x20,0x20,0x20,0x20,0x20,0x20,0x20
000c14 2020
000c15 2020
000c16 2020
000c17 2020      	.DB  0x20,0x20,0x20,0x20,0x20,0x20,0x20,0x20
000c18 2020
000c19 2020
000c1a 2020
000c1b 2020      	.DB  0x20,0x20,0x20,0x20,0x20,0x20,0x20,0x20
000c1c 2020
000c1d 2020
000c1e 2020
000c1f 2020      	.DB  0x20,0x20,0x20,0x20,0x20,0x20,0x20,0x20
000c20 2020
000c21 2020
000c22 2020
000c23 2020      	.DB  0x20,0x20,0x20,0x20,0x20,0x20,0x20,0x20
000c24 2020
000c25 2020
000c26 2020
000c27 2020      	.DB  0x20,0x20,0x20,0x20,0x20,0x20,0x20,0x20
000c28 2020
000c29 2020
000c2a 2020
000c2b 2020      	.DB  0x20,0x20,0x20,0x20,0x20,0x20,0x20,0x20
000c2c 2020
000c2d 2020
000c2e 2020
000c2f 2020      	.DB  0x20,0x20,0x20,0x20,0x20,0x20,0x20,0x20
000c30 2020
000c31 2020
000c32 2020
000c33 2020      	.DB  0x20,0x20,0x20,0x20,0x20,0x20,0x20,0x20
000c34 2020
000c35 2020
000c36 2020
000c37 2020      	.DB  0x20,0x20,0x20,0x20,0x20,0x20,0x20,0x20
000c38 2020
000c39 2020
000c3a 2020
000c3b 2020      	.DB  0x20,0x20,0x20,0x20,0x20,0x20,0x20,0x20
000c3c 0020
000c3d eec2
000c3e eff1
000c3f ebe0      	.DB  0x20,0x0,0xC2,0xEE,0xF1,0xEF,0xE0,0xEB
000c40 f2e8
000c41 ebe5
000c42 edfc
000c43 e5fb      	.DB  0xE8,0xF2,0xE5,0xEB,0xFC,0xED,0xFB,0xE5
000c44 e720
000c45 e1e0
000c46 ebee
000c47 e2e5      	.DB  0x20,0xE7,0xE0,0xE1,0xEE,0xEB,0xE5,0xE2
000c48 ede0
000c49 ffe8
000c4a 202c
000c4b edfd      	.DB  0xE0,0xED,0xE8,0xFF,0x2C,0x20,0xFD,0xED
000c4c eee4
000c4d e5ec
000c4e f0f2
000c4f eee8      	.DB  0xE4,0xEE,0xEC,0xE5,0xF2,0xF0,0xE8,0xEE
000c50 2ee7
000c51 2020
000c52 2020
000c53 2020      	.DB  0xE7,0x2E,0x20,0x20,0x20,0x20,0x20,0x20
000c54 2020
000c55 2020
000c56 2020
000c57 2020      	.DB  0x20,0x20,0x20,0x20,0x20,0x20,0x20,0x20
000c58 2020
000c59 2020
000c5a 2020
000c5b 2020      	.DB  0x20,0x20,0x20,0x20,0x20,0x20,0x20,0x20
000c5c 2020
000c5d 2020
000c5e 2020
000c5f 2020      	.DB  0x20,0x20,0x20,0x20,0x20,0x20,0x20,0x20
000c60 2020
000c61 2020
000c62 2020
000c63 2020      	.DB  0x20,0x20,0x20,0x20,0x20,0x20,0x20,0x20
000c64 2020
000c65 2020
000c66 2020
000c67 2020      	.DB  0x20,0x20,0x20,0x20,0x20,0x20,0x20,0x20
000c68 2020
000c69 2020
000c6a 2020
000c6b 2020      	.DB  0x20,0x20,0x20,0x20,0x20,0x20,0x20,0x20
000c6c 2020
000c6d 2020
000c6e 2020
000c6f 2020      	.DB  0x20,0x20,0x20,0x20,0x20,0x20,0x20,0x20
000c70 cd00
000c71 f0e0
000c72 f8f3
000c73 ede5      	.DB  0x0,0xCD,0xE0,0xF0,0xF3,0xF8,0xE5,0xED
000c74 ffe8
000c75 ec20
000c76 ede5
000c77 f2f1      	.DB  0xE8,0xFF,0x20,0xEC,0xE5,0xED,0xF1,0xF2
000c78 f3f0
000c79 ebe0
000c7a edfc
000c7b e3ee      	.DB  0xF0,0xF3,0xE0,0xEB,0xFC,0xED,0xEE,0xE3
000c7c 20ee
000c7d e8f6
000c7e ebea
000c7f 2ee0      	.DB  0xEE,0x20,0xF6,0xE8,0xEA,0xEB,0xE0,0x2E
000c80 2020
000c81 2020
000c82 2020
000c83 2020      	.DB  0x20,0x20,0x20,0x20,0x20,0x20,0x20,0x20
000c84 2020
000c85 2020
000c86 2020
000c87 2020      	.DB  0x20,0x20,0x20,0x20,0x20,0x20,0x20,0x20
000c88 2020
000c89 2020
000c8a 2020
000c8b 2020      	.DB  0x20,0x20,0x20,0x20,0x20,0x20,0x20,0x20
000c8c 2020
000c8d 2020
000c8e 2020
000c8f 2020      	.DB  0x20,0x20,0x20,0x20,0x20,0x20,0x20,0x20
000c90 2020
000c91 2020
000c92 2020
000c93 2020      	.DB  0x20,0x20,0x20,0x20,0x20,0x20,0x20,0x20
000c94 2020
000c95 2020
000c96 2020
000c97 2020      	.DB  0x20,0x20,0x20,0x20,0x20,0x20,0x20,0x20
000c98 2020
000c99 2020
000c9a 2020
000c9b 2020      	.DB  0x20,0x20,0x20,0x20,0x20,0x20,0x20,0x20
000c9c 2020
000c9d 2020
000c9e 2020
000c9f 2020      	.DB  0x20,0x20,0x20,0x20,0x20,0x20,0x20,0x20
000ca0 2020
000ca1 2020
000ca2 2020
000ca3 0020      	.DB  0x20,0x20,0x20,0x20,0x20,0x20,0x20,0x0
000ca4 e5cd
000ca5 f0e9
000ca6 e4ee
000ca7 f0e5      	.DB  0xCD,0xE5,0xE9,0xF0,0xEE,0xE4,0xE5,0xF0
000ca8 e8ec
000ca9 2cf2
000caa fd20
000cab e7ea      	.DB  0xEC,0xE8,0xF2,0x2C,0x20,0xFD,0xEA,0xE7
000cac ece5
000cad 2ee0
000cae 2020
000caf 2020      	.DB  0xE5,0xEC,0xE0,0x2E,0x20,0x20,0x20,0x20
000cb0 2020
000cb1 2020
000cb2 2020
000cb3 2020      	.DB  0x20,0x20,0x20,0x20,0x20,0x20,0x20,0x20
000cb4 2020
000cb5 2020
000cb6 2020
000cb7 2020      	.DB  0x20,0x20,0x20,0x20,0x20,0x20,0x20,0x20
000cb8 2020
000cb9 2020
000cba 2020
000cbb 2020      	.DB  0x20,0x20,0x20,0x20,0x20,0x20,0x20,0x20
000cbc 2020
000cbd 2020
000cbe 2020
000cbf 2020      	.DB  0x20,0x20,0x20,0x20,0x20,0x20,0x20,0x20
000cc0 2020
000cc1 2020
000cc2 2020
000cc3 2020      	.DB  0x20,0x20,0x20,0x20,0x20,0x20,0x20,0x20
000cc4 2020
000cc5 2020
000cc6 2020
000cc7 2020      	.DB  0x20,0x20,0x20,0x20,0x20,0x20,0x20,0x20
000cc8 2020
000cc9 2020
000cca 2020
000ccb 2020      	.DB  0x20,0x20,0x20,0x20,0x20,0x20,0x20,0x20
000ccc 2020
000ccd 2020
000cce 2020
000ccf 2020      	.DB  0x20,0x20,0x20,0x20,0x20,0x20,0x20,0x20
000cd0 2020
000cd1 2020
000cd2 2020
000cd3 2020      	.DB  0x20,0x20,0x20,0x20,0x20,0x20,0x20,0x20
000cd4 2020
000cd5 2020
000cd6 2020
000cd7 cf00      	.DB  0x20,0x20,0x20,0x20,0x20,0x20,0x0,0xCF
000cd8 eef1
000cd9 e8f0
000cda e7e0
000cdb 202e      	.DB  0xF1,0xEE,0xF0,0xE8,0xE0,0xE7,0x2E,0x20
000cdc 2020
000cdd 2020
000cde 2020
000cdf 2020      	.DB  0x20,0x20,0x20,0x20,0x20,0x20,0x20,0x20
000ce0 2020
000ce1 2020
000ce2 2020
000ce3 2020      	.DB  0x20,0x20,0x20,0x20,0x20,0x20,0x20,0x20
000ce4 2020
000ce5 2020
000ce6 2020
000ce7 2020      	.DB  0x20,0x20,0x20,0x20,0x20,0x20,0x20,0x20
000ce8 2020
000ce9 2020
000cea 2020
000ceb 2020      	.DB  0x20,0x20,0x20,0x20,0x20,0x20,0x20,0x20
000cec 2020
000ced 2020
000cee 2020
000cef 2020      	.DB  0x20,0x20,0x20,0x20,0x20,0x20,0x20,0x20
000cf0 2020
000cf1 2020
000cf2 2020
000cf3 2020      	.DB  0x20,0x20,0x20,0x20,0x20,0x20,0x20,0x20
000cf4 2020
000cf5 2020
000cf6 2020
000cf7 2020      	.DB  0x20,0x20,0x20,0x20,0x20,0x20,0x20,0x20
000cf8 2020
000cf9 2020
000cfa 2020
000cfb 2020      	.DB  0x20,0x20,0x20,0x20,0x20,0x20,0x20,0x20
000cfc 2020
000cfd 2020
000cfe 2020
000cff 2020      	.DB  0x20,0x20,0x20,0x20,0x20,0x20,0x20,0x20
000d00 2020
000d01 2020
000d02 2020
000d03 2020      	.DB  0x20,0x20,0x20,0x20,0x20,0x20,0x20,0x20
000d04 2020
000d05 2020
000d06 2020
000d07 2020      	.DB  0x20,0x20,0x20,0x20,0x20,0x20,0x20,0x20
000d08 2020
000d09 2020
000d0a 0020
000d0b f0c3      	.DB  0x20,0x20,0x20,0x20,0x20,0x0,0xC3,0xF0
000d0c efe8
000d0d 2cef
000d0e ce20
000d0f c2d0      	.DB  0xE8,0xEF,0xEF,0x2C,0x20,0xCE,0xD0,0xC2
000d10 2ec8
000d11 2020
000d12 2020
000d13 2020      	.DB  0xC8,0x2E,0x20,0x20,0x20,0x20,0x20,0x20
000d14 2020
000d15 2020
000d16 2020
000d17 2020      	.DB  0x20,0x20,0x20,0x20,0x20,0x20,0x20,0x20
000d18 2020
000d19 2020
000d1a 2020
000d1b 2020      	.DB  0x20,0x20,0x20,0x20,0x20,0x20,0x20,0x20
000d1c 2020
000d1d 2020
000d1e 2020
000d1f 2020      	.DB  0x20,0x20,0x20,0x20,0x20,0x20,0x20,0x20
000d20 2020
000d21 2020
000d22 2020
000d23 2020      	.DB  0x20,0x20,0x20,0x20,0x20,0x20,0x20,0x20
000d24 2020
000d25 2020
000d26 2020
000d27 2020      	.DB  0x20,0x20,0x20,0x20,0x20,0x20,0x20,0x20
000d28 2020
000d29 2020
000d2a 2020
000d2b 2020      	.DB  0x20,0x20,0x20,0x20,0x20,0x20,0x20,0x20
000d2c 2020
000d2d 2020
000d2e 2020
000d2f 2020      	.DB  0x20,0x20,0x20,0x20,0x20,0x20,0x20,0x20
000d30 2020
000d31 2020
000d32 2020
000d33 2020      	.DB  0x20,0x20,0x20,0x20,0x20,0x20,0x20,0x20
000d34 2020
000d35 2020
000d36 2020
000d37 2020      	.DB  0x20,0x20,0x20,0x20,0x20,0x20,0x20,0x20
000d38 2020
000d39 2020
000d3a 2020
000d3b 2020      	.DB  0x20,0x20,0x20,0x20,0x20,0x20,0x20,0x20
000d3c 2020
000d3d 2020
000d3e d200
000d3f edee      	.DB  0x20,0x20,0x20,0x20,0x0,0xD2,0xEE,0xED
000d40 e8e7
000d41 ebeb
000d42 f2e8
000d43 202e      	.DB  0xE7,0xE8,0xEB,0xEB,0xE8,0xF2,0x2E,0x20
000d44 2020
000d45 2020
000d46 2020
000d47 2020      	.DB  0x20,0x20,0x20,0x20,0x20,0x20,0x20,0x20
000d48 2020
000d49 2020
000d4a 2020
000d4b 2020      	.DB  0x20,0x20,0x20,0x20,0x20,0x20,0x20,0x20
000d4c 2020
000d4d 2020
000d4e 2020
000d4f 2020      	.DB  0x20,0x20,0x20,0x20,0x20,0x20,0x20,0x20
000d50 2020
000d51 2020
000d52 2020
000d53 2020      	.DB  0x20,0x20,0x20,0x20,0x20,0x20,0x20,0x20
000d54 2020
000d55 2020
000d56 2020
000d57 2020      	.DB  0x20,0x20,0x20,0x20,0x20,0x20,0x20,0x20
000d58 2020
000d59 2020
000d5a 2020
000d5b 2020      	.DB  0x20,0x20,0x20,0x20,0x20,0x20,0x20,0x20
000d5c 2020
000d5d 2020
000d5e 2020
000d5f 2020      	.DB  0x20,0x20,0x20,0x20,0x20,0x20,0x20,0x20
000d60 2020
000d61 2020
000d62 2020
000d63 2020      	.DB  0x20,0x20,0x20,0x20,0x20,0x20,0x20,0x20
000d64 2020
000d65 2020
000d66 2020
000d67 2020      	.DB  0x20,0x20,0x20,0x20,0x20,0x20,0x20,0x20
000d68 2020
000d69 2020
000d6a 2020
000d6b 2020      	.DB  0x20,0x20,0x20,0x20,0x20,0x20,0x20,0x20
000d6c 2020
000d6d 2020
000d6e 2020
000d6f 2020      	.DB  0x20,0x20,0x20,0x20,0x20,0x20,0x20,0x20
000d70 2020
000d71 0020
000d72 e8d5
000d73 f3f0      	.DB  0x20,0x20,0x20,0x0,0xD5,0xE8,0xF0,0xF3
000d74 e3f0
000d75 f7e8
000d76 f1e5
000d77 e0ea      	.DB  0xF0,0xE3,0xE8,0xF7,0xE5,0xF1,0xEA,0xE0
000d78 20ff
000d79 e0ef
000d7a eef2
000d7b eeeb      	.DB  0xFF,0x20,0xEF,0xE0,0xF2,0xEE,0xEB,0xEE
000d7c e8e3
000d7d 2eff
000d7e 2020
000d7f 2020      	.DB  0xE3,0xE8,0xFF,0x2E,0x20,0x20,0x20,0x20
000d80 2020
000d81 2020
000d82 2020
000d83 2020      	.DB  0x20,0x20,0x20,0x20,0x20,0x20,0x20,0x20
000d84 2020
000d85 2020
000d86 2020
000d87 2020      	.DB  0x20,0x20,0x20,0x20,0x20,0x20,0x20,0x20
000d88 2020
000d89 2020
000d8a 2020
000d8b 2020      	.DB  0x20,0x20,0x20,0x20,0x20,0x20,0x20,0x20
000d8c 2020
000d8d 2020
000d8e 2020
000d8f 2020      	.DB  0x20,0x20,0x20,0x20,0x20,0x20,0x20,0x20
000d90 2020
000d91 2020
000d92 2020
000d93 2020      	.DB  0x20,0x20,0x20,0x20,0x20,0x20,0x20,0x20
000d94 2020
000d95 2020
000d96 2020
000d97 2020      	.DB  0x20,0x20,0x20,0x20,0x20,0x20,0x20,0x20
000d98 2020
000d99 2020
000d9a 2020
000d9b 2020      	.DB  0x20,0x20,0x20,0x20,0x20,0x20,0x20,0x20
000d9c 2020
000d9d 2020
000d9e 2020
000d9f 2020      	.DB  0x20,0x20,0x20,0x20,0x20,0x20,0x20,0x20
000da0 2020
000da1 2020
000da2 2020
000da3 2020      	.DB  0x20,0x20,0x20,0x20,0x20,0x20,0x20,0x20
000da4 2020
000da5 d200
000da6 e0f0
000da7 ece2      	.DB  0x20,0x20,0x0,0xD2,0xF0,0xE0,0xE2,0xEC
000da8 2ce0
000da9 e220
000daa f220
000dab ecee      	.DB  0xE0,0x2C,0x20,0xE2,0x20,0xF2,0xEE,0xEC
000dac f720
000dad f1e8
000dae e5eb
000daf ec20      	.DB  0x20,0xF7,0xE8,0xF1,0xEB,0xE5,0x20,0xEC
000db0 eeed
000db1 e5e6
000db2 f2f1
000db3 e5e2      	.DB  0xED,0xEE,0xE6,0xE5,0xF1,0xF2,0xE2,0xE5
000db4 eded
000db5 ffe0
000db6 e820
000db7 f120      	.DB  0xED,0xED,0xE0,0xFF,0x20,0xE8,0x20,0xF1
000db8 f7ee
000db9 f2e5
000dba ede0
000dbb e0ed      	.DB  0xEE,0xF7,0xE5,0xF2,0xE0,0xED,0xED,0xE0
000dbc 2eff
000dbd 2020
000dbe 2020
000dbf 2020      	.DB  0xFF,0x2E,0x20,0x20,0x20,0x20,0x20,0x20
000dc0 2020
000dc1 2020
000dc2 2020
000dc3 2020      	.DB  0x20,0x20,0x20,0x20,0x20,0x20,0x20,0x20
000dc4 2020
000dc5 2020
000dc6 2020
000dc7 2020      	.DB  0x20,0x20,0x20,0x20,0x20,0x20,0x20,0x20
000dc8 2020
000dc9 2020
000dca 2020
000dcb 2020      	.DB  0x20,0x20,0x20,0x20,0x20,0x20,0x20,0x20
000dcc 2020
000dcd 2020
000dce 2020
000dcf 2020      	.DB  0x20,0x20,0x20,0x20,0x20,0x20,0x20,0x20
000dd0 2020
000dd1 2020
000dd2 2020
000dd3 2020      	.DB  0x20,0x20,0x20,0x20,0x20,0x20,0x20,0x20
000dd4 2020
000dd5 2020
000dd6 2020
000dd7 2020      	.DB  0x20,0x20,0x20,0x20,0x20,0x20,0x20,0x20
000dd8 0020
000dd9 e6ce
000dda e3ee
000ddb 20e8      	.DB  0x20,0x0,0xCE,0xE6,0xEE,0xE3,0xE8,0x20
000ddc 20e8
000ddd f2ee
000dde eeec
000ddf eef0      	.DB  0xE8,0x20,0xEE,0xF2,0xEC,0xEE,0xF0,0xEE
000de0 e5e6
000de1 e8ed
000de2 2eff
000de3 2020      	.DB  0xE6,0xE5,0xED,0xE8,0xFF,0x2E,0x20,0x20
000de4 2020
000de5 2020
000de6 2020
000de7 2020      	.DB  0x20,0x20,0x20,0x20,0x20,0x20,0x20,0x20
000de8 2020
000de9 2020
000dea 2020
000deb 2020      	.DB  0x20,0x20,0x20,0x20,0x20,0x20,0x20,0x20
000dec 2020
000ded 2020
000dee 2020
000def 2020      	.DB  0x20,0x20,0x20,0x20,0x20,0x20,0x20,0x20
000df0 2020
000df1 2020
000df2 2020
000df3 2020      	.DB  0x20,0x20,0x20,0x20,0x20,0x20,0x20,0x20
000df4 2020
000df5 2020
000df6 2020
000df7 2020      	.DB  0x20,0x20,0x20,0x20,0x20,0x20,0x20,0x20
000df8 2020
000df9 2020
000dfa 2020
000dfb 2020      	.DB  0x20,0x20,0x20,0x20,0x20,0x20,0x20,0x20
000dfc 2020
000dfd 2020
000dfe 2020
000dff 2020      	.DB  0x20,0x20,0x20,0x20,0x20,0x20,0x20,0x20
000e00 2020
000e01 2020
000e02 2020
000e03 2020      	.DB  0x20,0x20,0x20,0x20,0x20,0x20,0x20,0x20
000e04 2020
000e05 2020
000e06 2020
000e07 2020      	.DB  0x20,0x20,0x20,0x20,0x20,0x20,0x20,0x20
000e08 2020
000e09 2020
000e0a 2020
000e0b 2020      	.DB  0x20,0x20,0x20,0x20,0x20,0x20,0x20,0x20
000e0c c000
000e0d f2f0
000e0e e8f0
000e0f 2ef2      	.DB  0x0,0xC0,0xF0,0xF2,0xF0,0xE8,0xF2,0x2E
000e10 2020
000e11 2020
000e12 2020
000e13 2020      	.DB  0x20,0x20,0x20,0x20,0x20,0x20,0x20,0x20
000e14 2020
000e15 2020
000e16 2020
000e17 2020      	.DB  0x20,0x20,0x20,0x20,0x20,0x20,0x20,0x20
000e18 2020
000e19 2020
000e1a 2020
000e1b 2020      	.DB  0x20,0x20,0x20,0x20,0x20,0x20,0x20,0x20
000e1c 2020
000e1d 2020
000e1e 2020
000e1f 2020      	.DB  0x20,0x20,0x20,0x20,0x20,0x20,0x20,0x20
000e20 2020
000e21 2020
000e22 2020
000e23 2020      	.DB  0x20,0x20,0x20,0x20,0x20,0x20,0x20,0x20
000e24 2020
000e25 2020
000e26 2020
000e27 2020      	.DB  0x20,0x20,0x20,0x20,0x20,0x20,0x20,0x20
000e28 2020
000e29 2020
000e2a 2020
000e2b 2020      	.DB  0x20,0x20,0x20,0x20,0x20,0x20,0x20,0x20
000e2c 2020
000e2d 2020
000e2e 2020
000e2f 2020      	.DB  0x20,0x20,0x20,0x20,0x20,0x20,0x20,0x20
000e30 2020
000e31 2020
000e32 2020
000e33 2020      	.DB  0x20,0x20,0x20,0x20,0x20,0x20,0x20,0x20
000e34 2020
000e35 2020
000e36 2020
000e37 2020      	.DB  0x20,0x20,0x20,0x20,0x20,0x20,0x20,0x20
000e38 2020
000e39 2020
000e3a 2020
000e3b 2020      	.DB  0x20,0x20,0x20,0x20,0x20,0x20,0x20,0x20
000e3c 2020
000e3d 2020
000e3e 2020
000e3f 0020      	.DB  0x20,0x20,0x20,0x20,0x20,0x20,0x20,0x0
000e40 f2c0
000e41 f0e5
000e42 f1ee
000e43 ebea      	.DB  0xC0,0xF2,0xE5,0xF0,0xEE,0xF1,0xEA,0xEB
000e44 f0e5
000e45 e7ee
000e46 f120
000e47 f1ee      	.DB  0xE5,0xF0,0xEE,0xE7,0x20,0xF1,0xEE,0xF1
000e48 e4f3
000e49 e2ee
000e4a ea20
000e4b edee      	.DB  0xF3,0xE4,0xEE,0xE2,0x20,0xEA,0xEE,0xED
000e4c f7e5
000e4d eeed
000e4e f2f1
000e4f e9e5      	.DB  0xE5,0xF7,0xED,0xEE,0xF1,0xF2,0xE5,0xE9
000e50 202e
000e51 2020
000e52 2020
000e53 2020      	.DB  0x2E,0x20,0x20,0x20,0x20,0x20,0x20,0x20
000e54 2020
000e55 2020
000e56 2020
000e57 2020      	.DB  0x20,0x20,0x20,0x20,0x20,0x20,0x20,0x20
000e58 2020
000e59 2020
000e5a 2020
000e5b 2020      	.DB  0x20,0x20,0x20,0x20,0x20,0x20,0x20,0x20
000e5c 2020
000e5d 2020
000e5e 2020
000e5f 2020      	.DB  0x20,0x20,0x20,0x20,0x20,0x20,0x20,0x20
000e60 2020
000e61 2020
000e62 2020
000e63 2020      	.DB  0x20,0x20,0x20,0x20,0x20,0x20,0x20,0x20
000e64 2020
000e65 2020
000e66 2020
000e67 2020      	.DB  0x20,0x20,0x20,0x20,0x20,0x20,0x20,0x20
000e68 2020
000e69 2020
000e6a 2020
000e6b 2020      	.DB  0x20,0x20,0x20,0x20,0x20,0x20,0x20,0x20
000e6c 2020
000e6d 2020
000e6e 2020
000e6f 2020      	.DB  0x20,0x20,0x20,0x20,0x20,0x20,0x20,0x20
000e70 2020
000e71 2020
000e72 2020
000e73 c300      	.DB  0x20,0x20,0x20,0x20,0x20,0x20,0x0,0xC3
000e74 e9e0
000e75 eeec
000e76 e8f0
000e77 2cf2      	.DB  0xE0,0xE9,0xEC,0xEE,0xF0,0xE8,0xF2,0x2C
000e78 f420
000e79 eef0
000e7a f2ed
000e7b f2e8      	.DB  0x20,0xF4,0xF0,0xEE,0xED,0xF2,0xE8,0xF2
000e7c 202e
000e7d 2020
000e7e 2020
000e7f 2020      	.DB  0x2E,0x20,0x20,0x20,0x20,0x20,0x20,0x20
000e80 2020
000e81 2020
000e82 2020
000e83 2020      	.DB  0x20,0x20,0x20,0x20,0x20,0x20,0x20,0x20
000e84 2020
000e85 2020
000e86 2020
000e87 2020      	.DB  0x20,0x20,0x20,0x20,0x20,0x20,0x20,0x20
000e88 2020
000e89 2020
000e8a 2020
000e8b 2020      	.DB  0x20,0x20,0x20,0x20,0x20,0x20,0x20,0x20
000e8c 2020
000e8d 2020
000e8e 2020
000e8f 2020      	.DB  0x20,0x20,0x20,0x20,0x20,0x20,0x20,0x20
000e90 2020
000e91 2020
000e92 2020
000e93 2020      	.DB  0x20,0x20,0x20,0x20,0x20,0x20,0x20,0x20
000e94 2020
000e95 2020
000e96 2020
000e97 2020      	.DB  0x20,0x20,0x20,0x20,0x20,0x20,0x20,0x20
000e98 2020
000e99 2020
000e9a 2020
000e9b 2020      	.DB  0x20,0x20,0x20,0x20,0x20,0x20,0x20,0x20
000e9c 2020
000e9d 2020
000e9e 2020
000e9f 2020      	.DB  0x20,0x20,0x20,0x20,0x20,0x20,0x20,0x20
000ea0 2020
000ea1 2020
000ea2 2020
000ea3 2020      	.DB  0x20,0x20,0x20,0x20,0x20,0x20,0x20,0x20
000ea4 2020
000ea5 2020
000ea6 0020
000ea7 e5cf      	.DB  0x20,0x20,0x20,0x20,0x20,0x0,0xCF,0xE5
000ea8 e8f0
000ea9 eee4
000eaa f2ed
000eab f2e8      	.DB  0xF0,0xE8,0xE4,0xEE,0xED,0xF2,0xE8,0xF2
000eac 202e
000ead 2020
000eae 2020
000eaf 2020      	.DB  0x2E,0x20,0x20,0x20,0x20,0x20,0x20,0x20
000eb0 2020
000eb1 2020
000eb2 2020
000eb3 2020      	.DB  0x20,0x20,0x20,0x20,0x20,0x20,0x20,0x20
000eb4 2020
000eb5 2020
000eb6 2020
000eb7 2020      	.DB  0x20,0x20,0x20,0x20,0x20,0x20,0x20,0x20
000eb8 2020
000eb9 2020
000eba 2020
000ebb 2020      	.DB  0x20,0x20,0x20,0x20,0x20,0x20,0x20,0x20
000ebc 2020
000ebd 2020
000ebe 2020
000ebf 2020      	.DB  0x20,0x20,0x20,0x20,0x20,0x20,0x20,0x20
000ec0 2020
000ec1 2020
000ec2 2020
000ec3 2020      	.DB  0x20,0x20,0x20,0x20,0x20,0x20,0x20,0x20
000ec4 2020
000ec5 2020
000ec6 2020
000ec7 2020      	.DB  0x20,0x20,0x20,0x20,0x20,0x20,0x20,0x20
000ec8 2020
000ec9 2020
000eca 2020
000ecb 2020      	.DB  0x20,0x20,0x20,0x20,0x20,0x20,0x20,0x20
000ecc 2020
000ecd 2020
000ece 2020
000ecf 2020      	.DB  0x20,0x20,0x20,0x20,0x20,0x20,0x20,0x20
000ed0 2020
000ed1 2020
000ed2 2020
000ed3 2020      	.DB  0x20,0x20,0x20,0x20,0x20,0x20,0x20,0x20
000ed4 2020
000ed5 2020
000ed6 2020
000ed7 2020      	.DB  0x20,0x20,0x20,0x20,0x20,0x20,0x20,0x20
000ed8 2020
000ed9 2020
000eda d100
000edb eae5      	.DB  0x20,0x20,0x20,0x20,0x0,0xD1,0xE5,0xEA
000edc f3f1
000edd ebe0
000ede edfc
000edf e5fb      	.DB  0xF1,0xF3,0xE0,0xEB,0xFC,0xED,0xFB,0xE5
000ee0 f020
000ee1 f1e0
000ee2 f2f1
000ee3 eef0      	.DB  0x20,0xF0,0xE0,0xF1,0xF1,0xF2,0xF0,0xEE
000ee4 f1e9
000ee5 e2f2
000ee6 2ee0
000ee7 2020      	.DB  0xE9,0xF1,0xF2,0xE2,0xE0,0x2E,0x20,0x20
000ee8 2020
000ee9 2020
000eea 2020
000eeb 2020      	.DB  0x20,0x20,0x20,0x20,0x20,0x20,0x20,0x20
000eec 2020
000eed 2020
000eee 2020
000eef 2020      	.DB  0x20,0x20,0x20,0x20,0x20,0x20,0x20,0x20
000ef0 2020
000ef1 2020
000ef2 2020
000ef3 2020      	.DB  0x20,0x20,0x20,0x20,0x20,0x20,0x20,0x20
000ef4 2020
000ef5 2020
000ef6 2020
000ef7 2020      	.DB  0x20,0x20,0x20,0x20,0x20,0x20,0x20,0x20
000ef8 2020
000ef9 2020
000efa 2020
000efb 2020      	.DB  0x20,0x20,0x20,0x20,0x20,0x20,0x20,0x20
000efc 2020
000efd 2020
000efe 2020
000eff 2020      	.DB  0x20,0x20,0x20,0x20,0x20,0x20,0x20,0x20
000f00 2020
000f01 2020
000f02 2020
000f03 2020      	.DB  0x20,0x20,0x20,0x20,0x20,0x20,0x20,0x20
000f04 2020
000f05 2020
000f06 2020
000f07 2020      	.DB  0x20,0x20,0x20,0x20,0x20,0x20,0x20,0x20
000f08 2020
000f09 2020
000f0a 2020
000f0b 2020      	.DB  0x20,0x20,0x20,0x20,0x20,0x20,0x20,0x20
000f0c 2020
000f0d 0020
000f0e e0cd
000f0f f3f0      	.DB  0x20,0x20,0x20,0x0,0xCD,0xE0,0xF0,0xF3
000f10 e5f8
000f11 e8ed
000f12 20ff
000f13 e5f0      	.DB  0xF8,0xE5,0xED,0xE8,0xFF,0x20,0xF0,0xE5
000f14 e5f7
000f15 eee2
000f16 eee3
000f17 f020      	.DB  0xF7,0xE5,0xE2,0xEE,0xE3,0xEE,0x20,0xF0
000f18 e7e0
000f19 e8e2
000f1a e8f2
000f1b 2eff      	.DB  0xE0,0xE7,0xE2,0xE8,0xF2,0xE8,0xFF,0x2E
000f1c 2020
000f1d 2020
000f1e 2020
000f1f 2020      	.DB  0x20,0x20,0x20,0x20,0x20,0x20,0x20,0x20
000f20 2020
000f21 2020
000f22 2020
000f23 2020      	.DB  0x20,0x20,0x20,0x20,0x20,0x20,0x20,0x20
000f24 2020
000f25 2020
000f26 2020
000f27 2020      	.DB  0x20,0x20,0x20,0x20,0x20,0x20,0x20,0x20
000f28 2020
000f29 2020
000f2a 2020
000f2b 2020      	.DB  0x20,0x20,0x20,0x20,0x20,0x20,0x20,0x20
000f2c 2020
000f2d 2020
000f2e 2020
000f2f 2020      	.DB  0x20,0x20,0x20,0x20,0x20,0x20,0x20,0x20
000f30 2020
000f31 2020
000f32 2020
000f33 2020      	.DB  0x20,0x20,0x20,0x20,0x20,0x20,0x20,0x20
000f34 2020
000f35 2020
000f36 2020
000f37 2020      	.DB  0x20,0x20,0x20,0x20,0x20,0x20,0x20,0x20
000f38 2020
000f39 2020
000f3a 2020
000f3b 2020      	.DB  0x20,0x20,0x20,0x20,0x20,0x20,0x20,0x20
000f3c 2020
000f3d 2020
000f3e 2020
000f3f 2020      	.DB  0x20,0x20,0x20,0x20,0x20,0x20,0x20,0x20
000f40 2020
F:\Project\Micro\AVR\MDM_328\Debug\List\mdm328.asm(2106): warning: .cseg .db misalignment - padding zero byte
000f41 0000      	.DB  0x20,0x20,0x0
                 _rezhimi:
000f42 0202
000f43 0502
000f44 0605
000f45 0505      	.DB  0x2,0x2,0x2,0x5,0x5,0x6,0x5,0x5
000f46 0404
000f47 0202
000f48 0502
000f49 0605      	.DB  0x4,0x4,0x2,0x2,0x2,0x5,0x5,0x6
000f4a 0404
000f4b 0404
000f4c 0404
000f4d 0502      	.DB  0x4,0x4,0x4,0x4,0x4,0x4,0x2,0x5
000f4e 0305
000f4f 0405
000f50 0404
000f51 0404      	.DB  0x5,0x3,0x5,0x4,0x4,0x4,0x4,0x4
000f52 0502
000f53 0405
000f54 0404
000f55 0404      	.DB  0x2,0x5,0x5,0x4,0x4,0x4,0x4,0x4
000f56 0202
000f57 0502
000f58 0505
000f59 0205      	.DB  0x2,0x2,0x2,0x5,0x5,0x5,0x5,0x2
000f5a 0202
000f5b 0202
000f5c 0502
000f5d 0505      	.DB  0x2,0x2,0x2,0x2,0x2,0x5,0x5,0x5
000f5e 0205
000f5f 0202
000f60 0404
000f61 0502      	.DB  0x5,0x2,0x2,0x2,0x4,0x4,0x2,0x5
000f62 0605
000f63 0402
000f64 0404
000f65 0404      	.DB  0x5,0x6,0x2,0x4,0x4,0x4,0x4,0x4
000f66 0502
000f67 0605
000f68 0402
000f69 0404      	.DB  0x2,0x5,0x5,0x6,0x2,0x4,0x4,0x4
000f6a 0404
000f6b 0404
000f6c 0404
000f6d 0303      	.DB  0x4,0x4,0x4,0x4,0x4,0x4,0x3,0x3
000f6e 0403
000f6f 0404
000f70 0404
000f71 0404      	.DB  0x3,0x4,0x4,0x4,0x4,0x4,0x4,0x4
000f72 0303
000f73 0403
000f74 0404
000f75 0204      	.DB  0x3,0x3,0x3,0x4,0x4,0x4,0x4,0x2
000f76 0202
000f77 0502
000f78 0405
000f79 0404      	.DB  0x2,0x2,0x2,0x5,0x5,0x4,0x4,0x4
000f7a 0204
000f7b 0202
000f7c 0502
000f7d 0405      	.DB  0x4,0x2,0x2,0x2,0x2,0x5,0x5,0x4
000f7e 0202
000f7f 0202
000f80 0505
000f81 0501      	.DB  0x2,0x2,0x2,0x2,0x5,0x5,0x1,0x5
000f82 0404
000f83 0202
000f84 0202
000f85 0505      	.DB  0x4,0x4,0x2,0x2,0x2,0x2,0x5,0x5
000f86 0501
000f87 0404
000f88 0404
000f89 0404      	.DB  0x1,0x5,0x4,0x4,0x4,0x4,0x4,0x4
000f8a 0303
000f8b 0403
000f8c 0404
000f8d 0404      	.DB  0x3,0x3,0x3,0x4,0x4,0x4,0x4,0x4
000f8e 0404
000f8f 0303
000f90 0403
000f91 0404      	.DB  0x4,0x4,0x3,0x3,0x3,0x4,0x4,0x4
000f92 0404
000f93 0204
000f94 0102
000f95 0205      	.DB  0x4,0x4,0x4,0x2,0x2,0x1,0x5,0x2
000f96 0404
000f97 0404
000f98 0204
000f99 0102      	.DB  0x4,0x4,0x4,0x4,0x4,0x2,0x2,0x1
000f9a 0205
000f9b 0404
000f9c 0202
000f9d 0502      	.DB  0x5,0x2,0x4,0x4,0x2,0x2,0x2,0x5
000f9e 0605
000f9f 0506
000fa0 0202
000fa1 0202      	.DB  0x5,0x6,0x6,0x5,0x2,0x2,0x2,0x2
000fa2 0502
000fa3 0605
000fa4 0506
000fa5 0202      	.DB  0x2,0x5,0x5,0x6,0x6,0x5,0x2,0x2
000fa6 0404
000fa7 0404
000fa8 0502
000fa9 0405      	.DB  0x4,0x4,0x4,0x4,0x2,0x5,0x5,0x4
000faa 0404
000fab 0404
000fac 0404
000fad 0502      	.DB  0x4,0x4,0x4,0x4,0x4,0x4,0x2,0x5
000fae 0405
000faf 0404
000fb0 0404
000fb1 0404      	.DB  0x5,0x4,0x4,0x4,0x4,0x4,0x4,0x4
000fb2 0204
000fb3 0402
000fb4 0404
000fb5 0404      	.DB  0x4,0x2,0x2,0x4,0x4,0x4,0x4,0x4
000fb6 0404
000fb7 0204
000fb8 0402
000fb9 0404      	.DB  0x4,0x4,0x4,0x2,0x2,0x4,0x4,0x4
000fba 0202
000fbb 0505
000fbc 0205
000fbd 0202      	.DB  0x2,0x2,0x5,0x5,0x5,0x2,0x2,0x2
000fbe 0404
000fbf 0202
000fc0 0505
000fc1 0205      	.DB  0x4,0x4,0x2,0x2,0x5,0x5,0x5,0x2
000fc2 0202
000fc3 0404
000fc4 0202
000fc5 0202      	.DB  0x2,0x2,0x4,0x4,0x2,0x2,0x2,0x2
000fc6 0101
000fc7 0501
000fc8 0206
000fc9 0202      	.DB  0x1,0x1,0x1,0x5,0x6,0x2,0x2,0x2
000fca 0202
000fcb 0101
000fcc 0501
000fcd 0206      	.DB  0x2,0x2,0x1,0x1,0x1,0x5,0x6,0x2
000fce 0202
000fcf 0501
000fd0 0305
000fd1 0503      	.DB  0x2,0x2,0x1,0x5,0x5,0x3,0x3,0x5
000fd2 0405
000fd3 0202
000fd4 0501
000fd5 0305      	.DB  0x5,0x4,0x2,0x2,0x1,0x5,0x5,0x3
000fd6 0303
000fd7 0404
000fd8 0202
000fd9 0502      	.DB  0x3,0x3,0x4,0x4,0x2,0x2,0x2,0x5
000fda 0505
000fdb 0205
000fdc 0202
000fdd 0202      	.DB  0x5,0x5,0x5,0x2,0x2,0x2,0x2,0x2
000fde 0502
000fdf 0505
000fe0 0205
000fe1 0202      	.DB  0x2,0x5,0x5,0x5,0x5,0x2,0x2,0x2
000fe2 0202
000fe3 0502
000fe4 0106
000fe5 0205      	.DB  0x2,0x2,0x2,0x5,0x6,0x1,0x5,0x2
000fe6 0404
000fe7 0202
000fe8 0502
000fe9 0106      	.DB  0x4,0x4,0x2,0x2,0x2,0x5,0x6,0x1
000fea 0205
000feb 0404
000fec 0404
000fed 0502      	.DB  0x5,0x2,0x4,0x4,0x4,0x4,0x2,0x5
000fee 0505
000fef 0505
000ff0 0404
000ff1 0404      	.DB  0x5,0x5,0x5,0x5,0x4,0x4,0x4,0x4
000ff2 0502
000ff3 0505
000ff4 0505
000ff5 0404      	.DB  0x2,0x5,0x5,0x5,0x5,0x5,0x4,0x4
000ff6 0202
000ff7 0502
000ff8 0405
000ff9 0504      	.DB  0x2,0x2,0x2,0x5,0x5,0x4,0x4,0x5
000ffa 0202
000ffb 0202
000ffc 0502
000ffd 0405      	.DB  0x2,0x2,0x2,0x2,0x2,0x5,0x5,0x4
000ffe 0504
000fff 0202
001000 0404
001001 0404      	.DB  0x4,0x5,0x2,0x2,0x4,0x4,0x4,0x4
001002 0304
001003 0303
001004 0405
001005 0404      	.DB  0x4,0x3,0x3,0x3,0x5,0x4,0x4,0x4
001006 0404
001007 0304
001008 0403
001009 0404      	.DB  0x4,0x4,0x4,0x3,0x3,0x4,0x4,0x4
00100a 0404
00100b 0404
00100c 0304
00100d 0403      	.DB  0x4,0x4,0x4,0x4,0x4,0x3,0x3,0x4
00100e 0404
00100f 0404
001010 0404
001011 0304      	.DB  0x4,0x4,0x4,0x4,0x4,0x4,0x4,0x3
001012 0403
001013 0404
001014 0404
001015 0303      	.DB  0x3,0x4,0x4,0x4,0x4,0x4,0x3,0x3
001016 0503
001017 0505
001018 0505
001019 0404      	.DB  0x3,0x5,0x5,0x5,0x5,0x5,0x4,0x4
00101a 0404
00101b 0404
00101c 0404
00101d 0505      	.DB  0x4,0x4,0x4,0x4,0x4,0x4,0x5,0x5
00101e 0404
00101f 0303
001020 0303
001021 0405      	.DB  0x4,0x4,0x3,0x3,0x3,0x3,0x5,0x4
001022 0404
001023 0404
001024 0404
001025 0404      	.DB  0x4,0x4,0x4,0x4,0x4,0x4,0x4,0x4
001026 0404
001027 0404
001028 0202
001029 0202      	.DB  0x4,0x4,0x4,0x4,0x2,0x2,0x2,0x2
00102a 0505
00102b 0606
00102c 0505
00102d 0202      	.DB  0x5,0x5,0x6,0x6,0x5,0x5,0x2,0x2
00102e 0202
00102f 0505
001030 0606
001031 0505      	.DB  0x2,0x2,0x5,0x5,0x6,0x6,0x5,0x5
001032 0404
001033 0202
001034 0505
001035 0606      	.DB  0x4,0x4,0x2,0x2,0x5,0x5,0x6,0x6
001036 0202
001037 0404
001038 0202
001039 0505      	.DB  0x2,0x2,0x4,0x4,0x2,0x2,0x5,0x5
00103a 0606
00103b 0202
00103c 0404
00103d 0304      	.DB  0x6,0x6,0x2,0x2,0x4,0x4,0x4,0x3
00103e 0202
00103f 0404
001040 0404
001041 0404      	.DB  0x2,0x2,0x4,0x4,0x4,0x4,0x4,0x4
001042 0304
001043 0202
001044 0404
001045 0404      	.DB  0x4,0x3,0x2,0x2,0x4,0x4,0x4,0x4
001046 0102
001047 0605
001048 0506
001049 0303      	.DB  0x2,0x1,0x5,0x6,0x6,0x5,0x3,0x3
00104a 0404
00104b 0102
00104c 0605
00104d 0506      	.DB  0x4,0x4,0x2,0x1,0x5,0x6,0x6,0x5
00104e 0303
00104f 0404
001050 0502
001051 0505      	.DB  0x3,0x3,0x4,0x4,0x2,0x5,0x5,0x5
001052 0505
001053 0202
001054 0202
001055 0502      	.DB  0x5,0x5,0x2,0x2,0x2,0x2,0x2,0x5
001056 0505
001057 0505
001058 0303
001059 0202      	.DB  0x5,0x5,0x5,0x5,0x3,0x3,0x2,0x2
00105a 0404
00105b 0304
00105c 0103
00105d 0601      	.DB  0x4,0x4,0x4,0x3,0x3,0x1,0x1,0x6
00105e 0505
00105f 0404
001060 0304
001061 0103      	.DB  0x5,0x5,0x4,0x4,0x4,0x3,0x3,0x1
001062 0601
001063 0505
001064 0505
001065 0205      	.DB  0x1,0x6,0x5,0x5,0x5,0x5,0x5,0x2
001066 0302
001067 0404
001068 0505
001069 0505      	.DB  0x2,0x3,0x4,0x4,0x5,0x5,0x5,0x5
00106a 0205
00106b 0302
00106c 0404
00106d 0505      	.DB  0x5,0x2,0x2,0x3,0x4,0x4,0x5,0x5
00106e 0202
00106f 0102
001070 0101
001071 0101      	.DB  0x2,0x2,0x2,0x1,0x1,0x1,0x1,0x1
001072 0202
001073 0202
001074 0102
001075 0101      	.DB  0x2,0x2,0x2,0x2,0x2,0x1,0x1,0x1
001076 0101
001077 0202
001078 0404
001079 0304      	.DB  0x1,0x1,0x2,0x2,0x4,0x4,0x4,0x3
00107a 0601
00107b 0601
00107c 0505
00107d 0404      	.DB  0x1,0x6,0x1,0x6,0x5,0x5,0x4,0x4
00107e 0304
00107f 0601
001080 0601
001081 0505      	.DB  0x4,0x3,0x1,0x6,0x1,0x6,0x5,0x5
001082 0202
001083 0505
001084 0505
001085 0606      	.DB  0x2,0x2,0x5,0x5,0x5,0x5,0x6,0x6
001086 0404
001087 0202
001088 0505
001089 0505      	.DB  0x4,0x4,0x2,0x2,0x5,0x5,0x5,0x5
00108a 0606
00108b 0404
00108c 0404
00108d 0404      	.DB  0x6,0x6,0x4,0x4,0x4,0x4,0x4,0x4
00108e 0303
00108f 0106
001090 0505
001091 0404      	.DB  0x3,0x3,0x6,0x1,0x5,0x5,0x4,0x4
001092 0404
001093 0303
001094 0106
001095 0505      	.DB  0x4,0x4,0x3,0x3,0x6,0x1,0x5,0x5
001096 0502
001097 0201
001098 0505
001099 0205      	.DB  0x2,0x5,0x1,0x2,0x5,0x5,0x5,0x2
00109a 0102
00109b 0502
00109c 0201
00109d 0505      	.DB  0x2,0x1,0x2,0x5,0x1,0x2,0x5,0x5
00109e 0205
00109f 0102
0010a0 0202
0010a1 0202      	.DB  0x5,0x2,0x2,0x1,0x2,0x2,0x2,0x2
0010a2 0304
0010a3 0204
0010a4 0505
0010a5 0202      	.DB  0x4,0x3,0x4,0x2,0x5,0x5,0x2,0x2
0010a6 0202
0010a7 0304
0010a8 0204
0010a9 0505      	.DB  0x2,0x2,0x4,0x3,0x4,0x2,0x5,0x5
0010aa 0202
0010ab 0505
0010ac 0606
0010ad 0206      	.DB  0x2,0x2,0x5,0x5,0x6,0x6,0x6,0x2
0010ae 0404
0010af 0202
0010b0 0505
0010b1 0606      	.DB  0x4,0x4,0x2,0x2,0x5,0x5,0x6,0x6
0010b2 0206
0010b3 0404
0010b4 0505
0010b5 0606      	.DB  0x6,0x2,0x4,0x4,0x5,0x5,0x6,0x6
0010b6 0206
0010b7 0202
0010b8 0202
0010b9 0505      	.DB  0x6,0x2,0x2,0x2,0x2,0x2,0x5,0x5
0010ba 0606
0010bb 0206
0010bc 0202
0010bd 0202      	.DB  0x6,0x6,0x6,0x2,0x2,0x2,0x2,0x2
0010be 0505
0010bf 0606
0010c0 0404
0010c1 0503      	.DB  0x5,0x5,0x6,0x6,0x4,0x4,0x3,0x5
0010c2 0202
0010c3 0505
0010c4 0606
0010c5 0404      	.DB  0x2,0x2,0x5,0x5,0x6,0x6,0x4,0x4
0010c6 0503
0010c7 0202
0010c8 0202
0010c9 0505      	.DB  0x3,0x5,0x2,0x2,0x2,0x2,0x5,0x5
0010ca 0404
0010cb 0403
0010cc 0205
0010cd 0202      	.DB  0x4,0x4,0x3,0x4,0x5,0x2,0x2,0x2
0010ce 0505
0010cf 0404
0010d0 0403
0010d1 0205      	.DB  0x5,0x5,0x4,0x4,0x3,0x4,0x5,0x2
0010d2 0202
0010d3 0202
0010d4 0502
0010d5 0505      	.DB  0x2,0x2,0x2,0x2,0x2,0x5,0x5,0x5
0010d6 0505
0010d7 0202
0010d8 0202
0010d9 0502      	.DB  0x5,0x5,0x2,0x2,0x2,0x2,0x2,0x5
0010da 0505
0010db 0505
0010dc 0202
0010dd 0202      	.DB  0x5,0x5,0x5,0x5,0x2,0x2,0x2,0x2
0010de 0505
0010df 0605
0010e0 0505
0010e1 0202      	.DB  0x5,0x5,0x5,0x6,0x5,0x5,0x2,0x2
0010e2 0303
0010e3 0404
0010e4 0604
0010e5 0505      	.DB  0x3,0x3,0x4,0x4,0x4,0x6,0x5,0x5
0010e6 0202
0010e7 0202
0010e8 0105
0010e9 0501      	.DB  0x2,0x2,0x2,0x2,0x5,0x1,0x1,0x5
0010ea 0505
0010eb 0202
0010ec 0202
0010ed 0105      	.DB  0x5,0x5,0x2,0x2,0x2,0x2,0x5,0x1
0010ee 0501
0010ef 0505
0010f0 0304
0010f1 0506      	.DB  0x1,0x5,0x5,0x5,0x4,0x3,0x6,0x5
0010f2 0405
0010f3 0404
0010f4 0404
0010f5 0404      	.DB  0x5,0x4,0x4,0x4,0x4,0x4,0x4,0x4
0010f6 0403
0010f7 0404
0010f8 0404
0010f9 0404      	.DB  0x3,0x4,0x4,0x4,0x4,0x4,0x4,0x4
0010fa 0404
0010fb 0303
0010fc 0405
0010fd 0404      	.DB  0x4,0x4,0x3,0x3,0x5,0x4,0x4,0x4
0010fe 0404
0010ff 0404
001100 0404
001101 0404      	.DB  0x4,0x4,0x4,0x4,0x4,0x4,0x4,0x4
001102 0404
001103 0404      	.DB  0x4,0x4,0x4,0x4
                 
                 ;REGISTER BIT VARIABLES INITIALIZATION
                 __REG_BIT_VARS:
001104 0000      	.DW  0x0000
                 
                 _0x3:
001105 ae80
001106 d580
001107 8080
001108 a880      	.DB  0x80,0xAE,0x80,0xD5,0x80,0x80,0x80,0xA8
001109 3f80
00110a d380
00110b 0080
00110c 4080      	.DB  0x80,0x3F,0x80,0xD3,0x80,0x0,0x80,0x40
00110d 8d80
00110e 1480
00110f 2080
001110 0080      	.DB  0x80,0x8D,0x80,0x14,0x80,0x20,0x80,0x0
001111 a180
001112 c880
001113 da80
001114 1280      	.DB  0x80,0xA1,0x80,0xC8,0x80,0xDA,0x80,0x12
001115 8180
001116 cf80
001117 d980
001118 f180      	.DB  0x80,0x81,0x80,0xCF,0x80,0xD9,0x80,0xF1
001119 db80
00111a 4080
00111b a480
00111c a680      	.DB  0x80,0xDB,0x80,0x40,0x80,0xA4,0x80,0xA6
00111d af80      	.DB  0x80,0xAF
                 _0x4:
00111e 0000
00111f 0000
001120 0000
001121 0000      	.DB  0x0,0x0,0x0,0x0,0x0,0x0,0x0,0x0
001122 0000
001123 0000
001124 0000
001125 0000      	.DB  0x0,0x0,0x0,0x0,0x0,0x0,0x0,0x0
001126 0000
001127 0000
001128 0000
001129 0000      	.DB  0x0,0x0,0x0,0x0,0x0,0x0,0x0,0x0
00112a 0000
00112b 0000
00112c 0000
00112d 0000      	.DB  0x0,0x0,0x0,0x0,0x0,0x0,0x0,0x0
00112e 0000
00112f 0000
001130 0000
001131 0000      	.DB  0x0,0x0,0x0,0x0,0x0,0x0,0x0,0x0
001132 0000
001133 0000
001134 0000
001135 0000      	.DB  0x0,0x0,0x0,0x0,0x0,0x0,0x0,0x0
001136 0000
001137 0000
001138 0000
001139 0000      	.DB  0x0,0x0,0x0,0x0,0x0,0x0,0x0,0x0
00113a 0000
00113b 0000
00113c 0000
00113d 8000      	.DB  0x0,0x0,0x0,0x0,0x0,0x0,0x0,0x80
00113e 8080
00113f 0000
001140 0000
001141 0000      	.DB  0x80,0x80,0x0,0x0,0x0,0x0,0x0,0x0
001142 0000
001143 0000
001144 0000
001145 0000      	.DB  0x0,0x0,0x0,0x0,0x0,0x0,0x0,0x0
001146 8000
001147 c080
001148 00c0
001149 0000      	.DB  0x0,0x80,0x80,0xC0,0xC0,0x0,0x0,0x0
00114a 0000
00114b 0000
00114c 0000
00114d 0000      	.DB  0x0,0x0,0x0,0x0,0x0,0x0,0x0,0x0
00114e 0000
00114f 0000
001150 0000
001151 0000      	.DB  0x0,0x0,0x0,0x0,0x0,0x0,0x0,0x0
001152 0000
001153 0000
001154 0000
001155 0000      	.DB  0x0,0x0,0x0,0x0,0x0,0x0,0x0,0x0
001156 0000
001157 0000
001158 0000
001159 0000      	.DB  0x0,0x0,0x0,0x0,0x0,0x0,0x0,0x0
00115a 0000
00115b 0000
00115c 0000
00115d 0000      	.DB  0x0,0x0,0x0,0x0,0x0,0x0,0x0,0x0
00115e 0000
00115f 0000
001160 0000
001161 0000      	.DB  0x0,0x0,0x0,0x0,0x0,0x0,0x0,0x0
001162 0000
001163 0000
001164 0000
001165 0000      	.DB  0x0,0x0,0x0,0x0,0x0,0x0,0x0,0x0
001166 0000
001167 0000
001168 c080
001169 f0e0      	.DB  0x0,0x0,0x0,0x0,0x80,0xC0,0xE0,0xF0
00116a fcf8
00116b e0f8
00116c 0000
00116d 0000      	.DB  0xF8,0xFC,0xF8,0xE0,0x0,0x0,0x0,0x0
00116e 0000
00116f 0000
001170 0000
001171 0000      	.DB  0x0,0x0,0x0,0x0,0x0,0x0,0x0,0x0
001172 0000
001173 0000
001174 8000
001175 8080      	.DB  0x0,0x0,0x0,0x0,0x0,0x80,0x80,0x80
001176 8080
001177 8000
001178 0080
001179 0000      	.DB  0x80,0x80,0x0,0x80,0x80,0x0,0x0,0x0
00117a 8000
00117b 8080
00117c 8080
00117d ff00      	.DB  0x0,0x80,0x80,0x80,0x80,0x80,0x0,0xFF
00117e ffff
00117f 0000
001180 0000
001181 8080      	.DB  0xFF,0xFF,0x0,0x0,0x0,0x0,0x80,0x80
001182 8080
001183 0000
001184 8080
001185 0000      	.DB  0x80,0x80,0x0,0x0,0x80,0x80,0x0,0x0
001186 ff80
001187 80ff
001188 0080
001189 8080      	.DB  0x80,0xFF,0xFF,0x80,0x80,0x0,0x80,0x80
00118a 8000
00118b 8080
00118c 0080
00118d 8080      	.DB  0x0,0x80,0x80,0x80,0x80,0x0,0x80,0x80
00118e 0000
00118f 0000
001190 8000
001191 0080      	.DB  0x0,0x0,0x0,0x0,0x0,0x80,0x80,0x0
001192 8c00
001193 848e
001194 0000
001195 f880      	.DB  0x0,0x8C,0x8E,0x84,0x0,0x0,0x80,0xF8
001196 f8f8
001197 0080
001198 0000
001199 0000      	.DB  0xF8,0xF8,0x80,0x0,0x0,0x0,0x0,0x0
00119a 0000
00119b 0000
00119c 0000
00119d 0000      	.DB  0x0,0x0,0x0,0x0,0x0,0x0,0x0,0x0
00119e f0f0
00119f f0f0
0011a0 f0f0
0011a1 f0f0      	.DB  0xF0,0xF0,0xF0,0xF0,0xF0,0xF0,0xF0,0xF0
0011a2 f0f0
0011a3 f0f0
0011a4 e0e0
0011a5 80c0      	.DB  0xF0,0xF0,0xF0,0xF0,0xE0,0xE0,0xC0,0x80
0011a6 e000
0011a7 fefc
0011a8 ffff
0011a9 7fff      	.DB  0x0,0xE0,0xFC,0xFE,0xFF,0xFF,0xFF,0x7F
0011aa ffff
0011ab ffff
0011ac 00ff
0011ad 0000      	.DB  0xFF,0xFF,0xFF,0xFF,0xFF,0x0,0x0,0x0
0011ae 0000
0011af 0000
0011b0 0000
0011b1 0000      	.DB  0x0,0x0,0x0,0x0,0x0,0x0,0x0,0x0
0011b2 0000
0011b3 fe00
0011b4 c7ff
0011b5 0101      	.DB  0x0,0x0,0x0,0xFE,0xFF,0xC7,0x1,0x1
0011b6 0101
0011b7 ff83
0011b8 00ff
0011b9 7c00      	.DB  0x1,0x1,0x83,0xFF,0xFF,0x0,0x0,0x7C
0011ba c7fe
0011bb 0101
0011bc 0101
0011bd ff83      	.DB  0xFE,0xC7,0x1,0x1,0x1,0x1,0x83,0xFF
0011be ffff
0011bf 3800
0011c0 c7fe
0011c1 0183      	.DB  0xFF,0xFF,0x0,0x38,0xFE,0xC7,0x83,0x1
0011c2 0101
0011c3 c783
0011c4 ffff
0011c5 0000      	.DB  0x1,0x1,0x83,0xC7,0xFF,0xFF,0x0,0x0
0011c6 ff01
0011c7 01ff
0011c8 0001
0011c9 ffff      	.DB  0x1,0xFF,0xFF,0x1,0x1,0x0,0xFF,0xFF
0011ca 0107
0011cb 0101
0011cc 0000
0011cd ff7f      	.DB  0x7,0x1,0x1,0x1,0x0,0x0,0x7F,0xFF
0011ce 0080
0011cf 0000
0011d0 ffff
0011d1 007f      	.DB  0x80,0x0,0x0,0x0,0xFF,0xFF,0x7F,0x0
0011d2 ff00
0011d3 ffff
0011d4 0000
0011d5 ff01      	.DB  0x0,0xFF,0xFF,0xFF,0x0,0x0,0x1,0xFF
0011d6 ffff
0011d7 0001
0011d8 0000
0011d9 0000      	.DB  0xFF,0xFF,0x1,0x0,0x0,0x0,0x0,0x0
0011da 0000
0011db 0000
0011dc 0000
0011dd 0000      	.DB  0x0,0x0,0x0,0x0,0x0,0x0,0x0,0x0
0011de 0f03
0011df 7f3f
0011e0 ff7f
0011e1 ffff      	.DB  0x3,0xF,0x3F,0x7F,0x7F,0xFF,0xFF,0xFF
0011e2 ffff
0011e3 ffff
0011e4 c7e7
0011e5 8fc7      	.DB  0xFF,0xFF,0xFF,0xFF,0xE7,0xC7,0xC7,0x8F
0011e6 9f8f
0011e7 ffbf
0011e8 c3ff
0011e9 f0c0      	.DB  0x8F,0x9F,0xBF,0xFF,0xFF,0xC3,0xC0,0xF0
0011ea ffff
0011eb ffff
0011ec fcff
0011ed fcfc      	.DB  0xFF,0xFF,0xFF,0xFF,0xFF,0xFC,0xFC,0xFC
0011ee fcfc
0011ef fcfc
0011f0 f8fc
0011f1 f0f8      	.DB  0xFC,0xFC,0xFC,0xFC,0xFC,0xF8,0xF8,0xF0
0011f2 e0f0
0011f3 00c0
0011f4 0301
0011f5 0303      	.DB  0xF0,0xE0,0xC0,0x0,0x1,0x3,0x3,0x3
0011f6 0303
0011f7 0301
0011f8 0003
0011f9 0000      	.DB  0x3,0x3,0x1,0x3,0x3,0x0,0x0,0x0
0011fa 0100
0011fb 0303
0011fc 0303
0011fd 0101      	.DB  0x0,0x1,0x3,0x3,0x3,0x3,0x1,0x1
0011fe 0103
0011ff 0000
001200 0100
001201 0303      	.DB  0x3,0x1,0x0,0x0,0x0,0x1,0x3,0x3
001202 0303
001203 0101
001204 0303
001205 0000      	.DB  0x3,0x3,0x1,0x1,0x3,0x3,0x0,0x0
001206 0300
001207 0003
001208 0000
001209 0303      	.DB  0x0,0x3,0x3,0x0,0x0,0x0,0x3,0x3
00120a 0000
00120b 0000
00120c 0000
00120d 0100      	.DB  0x0,0x0,0x0,0x0,0x0,0x0,0x0,0x1
00120e 0303
00120f 0303
001210 0103
001211 0000      	.DB  0x3,0x3,0x3,0x3,0x3,0x1,0x0,0x0
001212 0100
001213 0103
001214 0000
001215 0300      	.DB  0x0,0x1,0x3,0x1,0x0,0x0,0x0,0x3
001216 0103
001217 0000
001218 0000
001219 0000      	.DB  0x3,0x1,0x0,0x0,0x0,0x0,0x0,0x0
00121a 0000
00121b 0000
00121c 0000
00121d 0000      	.DB  0x0,0x0,0x0,0x0,0x0,0x0,0x0,0x0
00121e 0000
00121f 8000
001220 e0c0
001221 f9f0      	.DB  0x0,0x0,0x0,0x80,0xC0,0xE0,0xF0,0xF9
001222 ffff
001223 ffff
001224 3fff
001225 0f1f      	.DB  0xFF,0xFF,0xFF,0xFF,0xFF,0x3F,0x1F,0xF
001226 c787
001227 fff7
001228 1fff
001229 3d1f      	.DB  0x87,0xC7,0xF7,0xFF,0xFF,0x1F,0x1F,0x3D
00122a f8fc
00122b f8f8
00122c 7cf8
00122d ff7d      	.DB  0xFC,0xF8,0xF8,0xF8,0xF8,0x7C,0x7D,0xFF
00122e ffff
00122f ffff
001230 ffff
001231 7fff      	.DB  0xFF,0xFF,0xFF,0xFF,0xFF,0xFF,0xFF,0x7F
001232 0f3f
001233 0007
001234 3030
001235 0000      	.DB  0x3F,0xF,0x7,0x0,0x30,0x30,0x0,0x0
001236 0000
001237 0000
001238 0000
001239 0000      	.DB  0x0,0x0,0x0,0x0,0x0,0x0,0x0,0x0
00123a 0000
00123b 0000
00123c 0000
00123d 0000      	.DB  0x0,0x0,0x0,0x0,0x0,0x0,0x0,0x0
00123e 0000
00123f 0000
001240 fefe
001241 00fc      	.DB  0x0,0x0,0x0,0x0,0xFE,0xFE,0xFC,0x0
001242 0000
001243 0000
001244 0000
001245 0000      	.DB  0x0,0x0,0x0,0x0,0x0,0x0,0x0,0x0
001246 0000
001247 0000
001248 0000
001249 0000      	.DB  0x0,0x0,0x0,0x0,0x0,0x0,0x0,0x0
00124a 0000
00124b 0000
00124c e000
00124d 00c0      	.DB  0x0,0x0,0x0,0x0,0x0,0xE0,0xC0,0x0
00124e 0000
00124f 0000
001250 0000
001251 0000      	.DB  0x0,0x0,0x0,0x0,0x0,0x0,0x0,0x0
001252 0000
001253 3030
001254 0000
001255 0000      	.DB  0x0,0x0,0x30,0x30,0x0,0x0,0x0,0x0
001256 0000
001257 0000
001258 0000
001259 0000      	.DB  0x0,0x0,0x0,0x0,0x0,0x0,0x0,0x0
00125a 0000
00125b 0000
00125c 0000
00125d 0000      	.DB  0x0,0x0,0x0,0x0,0x0,0x0,0x0,0x0
00125e c000
00125f fffe
001260 ffff
001261 ffff      	.DB  0x0,0xC0,0xFE,0xFF,0xFF,0xFF,0xFF,0xFF
001262 ffff
001263 ffff
001264 7f7f
001265 1f3f      	.DB  0xFF,0xFF,0xFF,0xFF,0x7F,0x7F,0x3F,0x1F
001266 070f
001267 7f1f
001268 ffff
001269 f8f8      	.DB  0xF,0x7,0x1F,0x7F,0xFF,0xFF,0xF8,0xF8
00126a ffff
00126b ffff
00126c feff
00126d e0f8      	.DB  0xFF,0xFF,0xFF,0xFF,0xFF,0xFE,0xF8,0xE0
00126e 0000
00126f 0100
001270 0000
001271 0000      	.DB  0x0,0x0,0x0,0x1,0x0,0x0,0x0,0x0
001272 0000
001273 0000
001274 fefe
001275 0000      	.DB  0x0,0x0,0x0,0x0,0xFE,0xFE,0x0,0x0
001276 fc00
001277 fcfe
001278 060c
001279 0e06      	.DB  0x0,0xFC,0xFE,0xFC,0xC,0x6,0x6,0xE
00127a f8fc
00127b 0000
00127c f8f0
00127d 0e1c      	.DB  0xFC,0xF8,0x0,0x0,0xF0,0xF8,0x1C,0xE
00127e 0606
00127f 0c06
001280 ffff
001281 00ff      	.DB  0x6,0x6,0x6,0xC,0xFF,0xFF,0xFF,0x0
001282 fe00
001283 00fe
001284 0000
001285 fc00      	.DB  0x0,0xFE,0xFE,0x0,0x0,0x0,0x0,0xFC
001286 fcfe
001287 1800
001288 7e3c
001289 e666      	.DB  0xFE,0xFC,0x0,0x18,0x3C,0x7E,0x66,0xE6
00128a 84ce
00128b 0000
00128c ff06
00128d 06ff      	.DB  0xCE,0x84,0x0,0x0,0x6,0xFF,0xFF,0x6
00128e fc06
00128f fcfe
001290 060c
001291 0606      	.DB  0x6,0xFC,0xFE,0xFC,0xC,0x6,0x6,0x6
001292 0000
001293 fefe
001294 0000
001295 f8c0      	.DB  0x0,0x0,0xFE,0xFE,0x0,0x0,0xC0,0xF8
001296 4efc
001297 4646
001298 4e46
001299 787c      	.DB  0xFC,0x4E,0x46,0x46,0x46,0x4E,0x7C,0x78
00129a 1840
00129b 763c
00129c cee6
00129d 80cc      	.DB  0x40,0x18,0x3C,0x76,0xE6,0xCE,0xCC,0x80
00129e 0000
00129f 0000
0012a0 0000
0012a1 0000      	.DB  0x0,0x0,0x0,0x0,0x0,0x0,0x0,0x0
0012a2 0000
0012a3 0000
0012a4 0000
0012a5 0000      	.DB  0x0,0x0,0x0,0x0,0x0,0x0,0x0,0x0
0012a6 0000
0012a7 0000
0012a8 0701
0012a9 1f0f      	.DB  0x0,0x0,0x0,0x0,0x1,0x7,0xF,0x1F
0012aa 3f1f
0012ab 3f3f
0012ac 1f3f
0012ad 030f      	.DB  0x1F,0x3F,0x3F,0x3F,0x3F,0x1F,0xF,0x3
0012ae 0000
0012af 0000
0012b0 0000
0012b1 0000      	.DB  0x0,0x0,0x0,0x0,0x0,0x0,0x0,0x0
0012b2 0000
0012b3 0000
0012b4 0f0f
0012b5 0000      	.DB  0x0,0x0,0x0,0x0,0xF,0xF,0x0,0x0
0012b6 0f00
0012b7 0f0f
0012b8 0000
0012b9 0000      	.DB  0x0,0xF,0xF,0xF,0x0,0x0,0x0,0x0
0012ba 0f0f
0012bb 0000
0012bc 0703
0012bd 0c0e      	.DB  0xF,0xF,0x0,0x0,0x3,0x7,0xE,0xC
0012be 1818
0012bf 060c
0012c0 0f0f
0012c1 000f      	.DB  0x18,0x18,0xC,0x6,0xF,0xF,0xF,0x0
0012c2 0100
0012c3 0e0f
0012c4 180c
0012c5 0f0c      	.DB  0x0,0x1,0xF,0xE,0xC,0x18,0xC,0xF
0012c6 0107
0012c7 0400
0012c8 0c0e
0012c9 0c18      	.DB  0x7,0x1,0x0,0x4,0xE,0xC,0x18,0xC
0012ca 070f
0012cb 0000
0012cc 0f00
0012cd 000f      	.DB  0xF,0x7,0x0,0x0,0x0,0xF,0xF,0x0
0012ce 0f00
0012cf 0f0f
0012d0 0000
0012d1 0000      	.DB  0x0,0xF,0xF,0xF,0x0,0x0,0x0,0x0
0012d2 0000
0012d3 0f0f
0012d4 0000
0012d5 0700      	.DB  0x0,0x0,0xF,0xF,0x0,0x0,0x0,0x7
0012d6 0c07
0012d7 180c
0012d8 0c1c
0012d9 0606      	.DB  0x7,0xC,0xC,0x18,0x1C,0xC,0x6,0x6
0012da 0400
0012db 0c0e
0012dc 0c18
0012dd 070f      	.DB  0x0,0x4,0xE,0xC,0x18,0xC,0xF,0x7
                 _0x0:
0012de c120
0012df f2e0
0012e0 f0e0
0012e1 ffe5      	.DB  0x20,0xC1,0xE0,0xF2,0xE0,0xF0,0xE5,0xFF
0012e2 003a
0012e3 0076
0012e4 fbc2
0012e5 e5e1      	.DB  0x3A,0x0,0x76,0x0,0xC2,0xFB,0xE1,0xE5
0012e6 e8f0
0012e7 e5f2
0012e8 003a
0012e9 f0d2      	.DB  0xF0,0xE8,0xF2,0xE5,0x3A,0x0,0xD2,0xF0
0012ea ede0
0012eb e0f1
0012ec f0e8
0012ed 2d3a      	.DB  0xE0,0xED,0xF1,0xE0,0xE8,0xF0,0x3A,0x2D
0012ee cc00
0012ef e4e5
0012f0 efe0
0012f1 eef2      	.DB  0x0,0xCC,0xE5,0xE4,0xE0,0xEF,0xF2,0xEE
0012f2 3aed
0012f3 002b
0012f4 fbc2
0012f5 f0e1      	.DB  0xED,0x3A,0x2B,0x0,0xC2,0xFB,0xE1,0xF0
0012f6 ede0
0012f7 2000
0012f8 f0d2
0012f9 ede0      	.DB  0xE0,0xED,0x0,0x20,0xD2,0xF0,0xE0,0xED
0012fa e0f1
0012fb f0e8
0012fc 0020
0012fd cc20      	.DB  0xF1,0xE0,0xE8,0xF0,0x20,0x0,0x20,0xCC
0012fe e4e5
0012ff efe0
001300 eef2
001301 20ed      	.DB  0xE5,0xE4,0xE0,0xEF,0xF2,0xEE,0xED,0x20
001302 c200
001303 e1fb
001304 f0e5
001305 f2e8      	.DB  0x0,0xC2,0xFB,0xE1,0xE5,0xF0,0xE8,0xF2
001306 00e5
001307 e0ef
001308 e8f6
001309 ede5      	.DB  0xE5,0x0,0xEF,0xE0,0xF6,0xE8,0xE5,0xED
00130a e0f2
00130b cf00
00130c f6e0
00130d e5e8      	.DB  0xF2,0xE0,0x0,0xCF,0xE0,0xF6,0xE8,0xE5
00130e f2ed
00130f 0020
001310 e4d3
001311 f0e5      	.DB  0xED,0xF2,0x20,0x0,0xD3,0xE4,0xE5,0xF0
001312 e8e6
001313 2b20
001314 0020
001315 ebe4      	.DB  0xE6,0xE8,0x20,0x2B,0x20,0x0,0xE4,0xEB
001316 20ff
001317 eeed
001318 eee2
001319 00e9      	.DB  0xFF,0x20,0xED,0xEE,0xE2,0xEE,0xE9,0x0
00131a f1f3
00131b e0f2
00131c eeed
00131d eae2      	.DB  0xF3,0xF1,0xF2,0xE0,0xED,0xEE,0xE2,0xEA
00131e 2ee8
00131f 2000
001320 edd1
001321 f7e0      	.DB  0xE8,0x2E,0x0,0x20,0xD1,0xED,0xE0,0xF7
001322 ebe0
001323 3fe0
001324 0020
001325 202d      	.DB  0xE0,0xEB,0xE0,0x3F,0x20,0x0,0x2D,0x20
001326 e5cd
001327 2cf2
001328 202b
001329 e0c4      	.DB  0xCD,0xE5,0xF2,0x2C,0x2B,0x20,0xC4,0xE0
00132a 2000
00132b d3ca
00132c d1d0
00132d 2020      	.DB  0x0,0x20,0xCA,0xD3,0xD0,0xD1,0x20,0x20
00132e d100
00132f c0cd
001330 c0d7
001331 c0cb      	.DB  0x0,0xD1,0xCD,0xC0,0xD7,0xC0,0xCB,0xC0
001332 c700
001333 e1e0
001334 202e
001335 6f4e      	.DB  0x0,0xC7,0xE0,0xE1,0x2E,0x20,0x4E,0x6F
001336 0020
001337 e5f0
001338 e8e6
001339 20ec      	.DB  0x20,0x0,0xF0,0xE5,0xE6,0xE8,0xEC,0x20
00133a 0020
00133b e0ef
00133c e8f6
00133d ede5      	.DB  0x20,0x0,0xEF,0xE0,0xF6,0xE8,0xE5,0xED
00133e 00f2
00133f e5f1
001340 ede0
001341 20f1      	.DB  0xF2,0x0,0xF1,0xE5,0xE0,0xED,0xF1,0x20
001342 0020
001343 f0d2
001344 ede0
001345 2bf1      	.DB  0x20,0x0,0xD2,0xF0,0xE0,0xED,0xF1,0x2B
001346 e8c3
001347 edef
001348 2b00
001349 e8c3      	.DB  0xC3,0xE8,0xEF,0xED,0x0,0x2B,0xC3,0xE8
00134a edef
00134b e7ee
00134c cd00
00134d e6e0      	.DB  0xEF,0xED,0xEE,0xE7,0x0,0xCD,0xE0,0xE6
00134e e8ec
00134f e5f2
001350 2d00
001351 ef28      	.DB  0xEC,0xE8,0xF2,0xE5,0x0,0x2D,0x28,0xEF
001352 f1f3
001353 29ea
001354 5300
001355 6e69      	.DB  0xF3,0xF1,0xEA,0x29,0x0,0x53,0x69,0x6E
001356 2050
001357 3130
001358 6d34
001359 0053      	.DB  0x50,0x20,0x30,0x31,0x34,0x6D,0x53,0x0
00135a f1d3
00135b e0f2
00135c eeed
00135d eae2      	.DB  0xD3,0xF1,0xF2,0xE0,0xED,0xEE,0xE2,0xEA
00135e 00e0
00135f f0e2
001360 ece5
001361 ede5      	.DB  0xE0,0x0,0xE2,0xF0,0xE5,0xEC,0xE5,0xED
001362 00e8
001363 3737
001364 f6c3
001365 3020      	.DB  0xE8,0x0,0x37,0x37,0xC3,0xF6,0x20,0x30
001366 352e
001367 536d
001368 4900
001369 003d      	.DB  0x2E,0x35,0x6D,0x53,0x0,0x49,0x3D,0x0
00136a 416d
00136b c200
00136c eafb
00136d feeb      	.DB  0x6D,0x41,0x0,0xC2,0xFB,0xEA,0xEB,0xFE
00136e e5f7
00136f e8ed
001370 00e5
001371 cf20      	.DB  0xF7,0xE5,0xED,0xE8,0xE5,0x0,0x20,0xCF
001372 eaee
001373 21e0
001374 0020      	.DB  0xEE,0xEA,0xE0,0x21,0x20,0x0
                 _0x2020003:
F:\Project\Micro\AVR\MDM_328\Debug\List\mdm328.asm(2387): warning: .cseg .db misalignment - padding zero byte
001375 0007      	.DB  0x7
                 
                 __GLOBAL_INI_TBL:
001376 0001      	.DW  0x01
001377 0002      	.DW  0x02
001378 2208      	.DW  __REG_BIT_VARS*2
                 
001379 0032      	.DW  0x32
00137a 0301      	.DW  _bufer
00137b 220a      	.DW  _0x3*2
                 
00137c 0380      	.DW  0x380
00137d 0382      	.DW  _buffer
00137e 223c      	.DW  _0x4*2
                 
00137f 0001      	.DW  0x01
001380 0784      	.DW  _twi_result
001381 26ea      	.DW  _0x2020003*2
                 
                 _0xFFFFFFFF:
001382 0000      	.DW  0
                 
                 #define __GLOBAL_INI_TBL_PRESENT 1
                 
                 __RESET:
001383 94f8      	CLI
001384 27ee      	CLR  R30
001385 bbef      	OUT  EECR,R30
                 
                 ;INTERRUPT VECTORS ARE PLACED
                 ;AT THE START OF FLASH
001386 e0f1      	LDI  R31,1
001387 bff5      	OUT  MCUCR,R31
001388 bfe5      	OUT  MCUCR,R30
                 
                 ;CLEAR R2-R14
001389 e08d      	LDI  R24,(14-2)+1
00138a e0a2      	LDI  R26,2
00138b 27bb      	CLR  R27
                 __CLEAR_REG:
00138c 93ed      	ST   X+,R30
00138d 958a      	DEC  R24
00138e f7e9      	BRNE __CLEAR_REG
                 
                 ;CLEAR SRAM
00138f e080      	LDI  R24,LOW(__CLEAR_SRAM_SIZE)
001390 e098      	LDI  R25,HIGH(__CLEAR_SRAM_SIZE)
001391 e0a0      	LDI  R26,LOW(__SRAM_START)
001392 e0b1      	LDI  R27,HIGH(__SRAM_START)
                 __CLEAR_SRAM:
001393 93ed      	ST   X+,R30
001394 9701      	SBIW R24,1
001395 f7e9      	BRNE __CLEAR_SRAM
                 
                 ;GLOBAL VARIABLES INITIALIZATION
001396 eeec      	LDI  R30,LOW(__GLOBAL_INI_TBL*2)
001397 e2f6      	LDI  R31,HIGH(__GLOBAL_INI_TBL*2)
                 __GLOBAL_INI_NEXT:
001398 9185      	LPM  R24,Z+
001399 9195      	LPM  R25,Z+
00139a 9700      	SBIW R24,0
00139b f061      	BREQ __GLOBAL_INI_END
00139c 91a5      	LPM  R26,Z+
00139d 91b5      	LPM  R27,Z+
00139e 9005      	LPM  R0,Z+
00139f 9015      	LPM  R1,Z+
0013a0 01bf      	MOVW R22,R30
0013a1 01f0      	MOVW R30,R0
                 __GLOBAL_INI_LOOP:
0013a2 9005      	LPM  R0,Z+
0013a3 920d      	ST   X+,R0
0013a4 9701      	SBIW R24,1
0013a5 f7e1      	BRNE __GLOBAL_INI_LOOP
0013a6 01fb      	MOVW R30,R22
0013a7 cff0      	RJMP __GLOBAL_INI_NEXT
                 __GLOBAL_INI_END:
                 
                 ;GPIOR0 INITIALIZATION
0013a8 e0e0      	LDI  R30,__GPIOR0_INIT
0013a9 bbee      	OUT  GPIOR0,R30
                 
                 ;HARDWARE STACK POINTER INITIALIZATION
0013aa efef      	LDI  R30,LOW(__SRAM_END-__HEAP_SIZE)
0013ab bfed      	OUT  SPL,R30
0013ac e0e8      	LDI  R30,HIGH(__SRAM_END-__HEAP_SIZE)
0013ad bfee      	OUT  SPH,R30
                 
                 ;DATA STACK POINTER INITIALIZATION
0013ae e0c0      	LDI  R28,LOW(__SRAM_START+__DSTACK_SIZE)
0013af e0d3      	LDI  R29,HIGH(__SRAM_START+__DSTACK_SIZE)
                 
0013b0 940c 1b1a 	JMP  _main
                 
                 	.ESEG
                 	.ORG 0
                 
                 	.DSEG
                 	.ORG 0x300
                 
                 	.CSEG
                 ;/*******************************************************
                 ;This program was created by the
                 ;CodeWizardAVR V3.12 Advanced
                 ;Automatic Program Generator
                 ; Copyright 1998-2014 Pavel Haiduc, HP InfoTech s.r.l.
                 ;http://www.hpinfotech.com
                 ;
                 ;Project :
                 ;Version :
                 ;Date    : 25.02.2015
                 ;Author  :
                 ;Company :
                 ;Comments:
                 ;
                 ;
                 ;Chip type               : ATmega328P
                 ;Program type            : Application
                 ;AVR Core Clock frequency: 16,000000 MHz
                 ;Memory model            : Small
                 ;External RAM size       : 0
                 ;Data Stack size         : 512
                 ;*******************************************************/
                 ;
                 ;#include <mega328p.h>
                 	#ifndef __SLEEP_DEFINED__
                 	#define __SLEEP_DEFINED__
                 	.EQU __se_bit=0x01
                 	.EQU __sm_mask=0x0E
                 	.EQU __sm_adc_noise_red=0x02
                 	.EQU __sm_powerdown=0x04
                 	.EQU __sm_powersave=0x06
                 	.EQU __sm_standby=0x0C
                 	.EQU __sm_ext_standby=0x0E
                 	.SET power_ctrl_reg=smcr
                 	#endif
                 ;#include <sleep.h>
                 ;#include <delay.h>
                 ;#include <ssd1306.c>
                 ;/*
                 ;       SSD1306
                 ;
                 ;*/                                       ;//, tx_data0[50] =
                 ;
                 ;unsigned char rx_data[1],bufer[129] = {0x80, 0xAE, 0x80, 0xD5,0x80, 0x80,0x80, 0xA8,0x80, 0x3F,0x80, 0xD3,
                 ;0x80, 0x0,0x80, 0x40,0x80, 0x8D,0x80, 0x14,0x80, 0x20,0x80, 0x00,0x80,  0xA1, 0x80, 0xC8,0x80,//    0xA1 ...
                 ;0xDA,0x80, 0x12,0x80, 0x81,0x80, 0xCF,0x80, 0xD9,0x80, 0xF1,0x80, 0xDB,0x80, 0x40,0x80, 0xA4,
                 ;0x80, 0xA6, 0x80, 0xAF ,0,0,0,0,0,0,0,0,0,0,0,0,0,0,0,0,0,0,0,0,0,0,0,0,0,0,0,0,0,0,0,0,0,0,0,0,0,0,0,0,0,0,0,0,0,0,0,0, ...
                 
                 	.DSEG
                 ;
                 ;
                 ;
                 ;// TWI functions
                 ;#include "glcdfont.c"
                 ;// Standard ASCII 5x7 font
                 ;flash unsigned char font[] = {
                 ;    0x00, 0x00, 0x00, 0x00, 0x00,
                 ;	0x3E, 0x5B, 0x4F, 0x5B, 0x3E,
                 ;	0x3E, 0x6B, 0x4F, 0x6B, 0x3E,
                 ;	0x1C, 0x3E, 0x7C, 0x3E, 0x1C,
                 ;	0x18, 0x3C, 0x7E, 0x3C, 0x18,
                 ;	0x1C, 0x57, 0x7D, 0x57, 0x1C,
                 ;	0x1C, 0x5E, 0x7F, 0x5E, 0x1C,
                 ;	0x00, 0x18, 0x3C, 0x18, 0x00,
                 ;	0xFF, 0xE7, 0xC3, 0xE7, 0xFF,
                 ;	0x00, 0x18, 0x24, 0x18, 0x00,
                 ;	0xFF, 0xE7, 0xDB, 0xE7, 0xFF,
                 ;	0x30, 0x48, 0x3A, 0x06, 0x0E,
                 ;	0x26, 0x29, 0x79, 0x29, 0x26,
                 ;	0x40, 0x7F, 0x05, 0x05, 0x07,
                 ;	0x40, 0x7F, 0x05, 0x25, 0x3F,
                 ;	0x5A, 0x3C, 0xE7, 0x3C, 0x5A,
                 ;	0x7F, 0x3E, 0x1C, 0x1C, 0x08,
                 ;	0x08, 0x1C, 0x1C, 0x3E, 0x7F,
                 ;	0x14, 0x22, 0x7F, 0x22, 0x14,
                 ;	0x5F, 0x5F, 0x00, 0x5F, 0x5F,
                 ;	0x06, 0x09, 0x7F, 0x01, 0x7F,
                 ;	0x00, 0x66, 0x89, 0x95, 0x6A,
                 ;	0x60, 0x60, 0x60, 0x60, 0x60,
                 ;	0x94, 0xA2, 0xFF, 0xA2, 0x94,
                 ;	0x08, 0x04, 0x7E, 0x04, 0x08,
                 ;	0x10, 0x20, 0x7E, 0x20, 0x10,
                 ;	0x08, 0x08, 0x2A, 0x1C, 0x08,
                 ;	0x08, 0x1C, 0x2A, 0x08, 0x08,
                 ;	0x1E, 0x10, 0x10, 0x10, 0x10,
                 ;	0x0C, 0x1E, 0x0C, 0x1E, 0x0C,
                 ;	0x30, 0x38, 0x3E, 0x38, 0x30,
                 ;	0x06, 0x0E, 0x3E, 0x0E, 0x06,
                 ;	0x00, 0x00, 0x00, 0x00, 0x00,
                 ;	0x00, 0x00, 0x5F, 0x00, 0x00,
                 ;	0x00, 0x07, 0x00, 0x07, 0x00,
                 ;	0x14, 0x7F, 0x14, 0x7F, 0x14,
                 ;	0x24, 0x2A, 0x7F, 0x2A, 0x12,
                 ;	0x23, 0x13, 0x08, 0x64, 0x62,
                 ;	0x36, 0x49, 0x56, 0x20, 0x50,
                 ;	0x00, 0x08, 0x07, 0x03, 0x00,
                 ;	0x00, 0x1C, 0x22, 0x41, 0x00,
                 ;	0x00, 0x41, 0x22, 0x1C, 0x00,
                 ;	0x2A, 0x1C, 0x7F, 0x1C, 0x2A,
                 ;	0x08, 0x08, 0x3E, 0x08, 0x08,
                 ;	0x00, 0x80, 0x70, 0x30, 0x00,
                 ;	0x08, 0x08, 0x08, 0x08, 0x08,
                 ;	0x00, 0x00, 0x60, 0x60, 0x00,
                 ;	0x20, 0x10, 0x08, 0x04, 0x02,
                 ;	0x3E, 0x51, 0x49, 0x45, 0x3E,
                 ;	0x00, 0x42, 0x7F, 0x40, 0x00,
                 ;	0x72, 0x49, 0x49, 0x49, 0x46,
                 ;	0x21, 0x41, 0x49, 0x4D, 0x33,
                 ;	0x18, 0x14, 0x12, 0x7F, 0x10,
                 ;	0x27, 0x45, 0x45, 0x45, 0x39,
                 ;	0x3C, 0x4A, 0x49, 0x49, 0x31,
                 ;	0x41, 0x21, 0x11, 0x09, 0x07,
                 ;	0x36, 0x49, 0x49, 0x49, 0x36,
                 ;	0x46, 0x49, 0x49, 0x29, 0x1E,
                 ;	0x00, 0x00, 0x14, 0x00, 0x00,
                 ;	0x00, 0x40, 0x34, 0x00, 0x00,
                 ;	0x00, 0x08, 0x14, 0x22, 0x41,
                 ;	0x14, 0x14, 0x14, 0x14, 0x14,
                 ;	0x00, 0x41, 0x22, 0x14, 0x08,
                 ;	0x02, 0x01, 0x59, 0x09, 0x06,
                 ;	0x3E, 0x41, 0x5D, 0x59, 0x4E,
                 ;	0x7C, 0x12, 0x11, 0x12, 0x7C,
                 ;	0x7F, 0x49, 0x49, 0x49, 0x36,
                 ;	0x3E, 0x41, 0x41, 0x41, 0x22,
                 ;	0x7F, 0x41, 0x41, 0x41, 0x3E,
                 ;	0x7F, 0x49, 0x49, 0x49, 0x41,
                 ;	0x7F, 0x09, 0x09, 0x09, 0x01,
                 ;	0x3E, 0x41, 0x41, 0x51, 0x73,
                 ;	0x7F, 0x08, 0x08, 0x08, 0x7F,
                 ;	0x00, 0x41, 0x7F, 0x41, 0x00,
                 ;	0x20, 0x40, 0x41, 0x3F, 0x01,
                 ;	0x7F, 0x08, 0x14, 0x22, 0x41,
                 ;	0x7F, 0x40, 0x40, 0x40, 0x40,
                 ;	0x7F, 0x02, 0x1C, 0x02, 0x7F,
                 ;	0x7F, 0x04, 0x08, 0x10, 0x7F,
                 ;	0x3E, 0x41, 0x41, 0x41, 0x3E,
                 ;	0x7F, 0x09, 0x09, 0x09, 0x06,
                 ;	0x3E, 0x41, 0x51, 0x21, 0x5E,
                 ;	0x7F, 0x09, 0x19, 0x29, 0x46,
                 ;	0x26, 0x49, 0x49, 0x49, 0x32,
                 ;	0x03, 0x01, 0x7F, 0x01, 0x03,
                 ;	0x3F, 0x40, 0x40, 0x40, 0x3F,
                 ;	0x1F, 0x20, 0x40, 0x20, 0x1F,
                 ;	0x3F, 0x40, 0x38, 0x40, 0x3F,
                 ;	0x63, 0x14, 0x08, 0x14, 0x63,
                 ;	0x03, 0x04, 0x78, 0x04, 0x03,
                 ;	0x61, 0x59, 0x49, 0x4D, 0x43,
                 ;	0x00, 0x7F, 0x41, 0x41, 0x41,
                 ;	0x02, 0x04, 0x08, 0x10, 0x20,
                 ;	0x00, 0x41, 0x41, 0x41, 0x7F,
                 ;	0x04, 0x02, 0x01, 0x02, 0x04,
                 ;	0x40, 0x40, 0x40, 0x40, 0x40,
                 ;	0x00, 0x03, 0x07, 0x08, 0x00,
                 ;	0x20, 0x54, 0x54, 0x78, 0x40,
                 ;	0x7F, 0x28, 0x44, 0x44, 0x38,
                 ;	0x38, 0x44, 0x44, 0x44, 0x28,
                 ;	0x38, 0x44, 0x44, 0x28, 0x7F,
                 ;	0x38, 0x54, 0x54, 0x54, 0x18,
                 ;	0x00, 0x08, 0x7E, 0x09, 0x02,
                 ;	0x18, 0xA4, 0xA4, 0x9C, 0x78,
                 ;	0x7F, 0x08, 0x04, 0x04, 0x78,
                 ;	0x00, 0x44, 0x7D, 0x40, 0x00,
                 ;	0x20, 0x40, 0x40, 0x3D, 0x00,
                 ;	0x7F, 0x10, 0x28, 0x44, 0x00,
                 ;	0x00, 0x41, 0x7F, 0x40, 0x00,
                 ;	0x7C, 0x04, 0x78, 0x04, 0x78,
                 ;	0x7C, 0x08, 0x04, 0x04, 0x78,
                 ;	0x38, 0x44, 0x44, 0x44, 0x38,
                 ;	0xFC, 0x18, 0x24, 0x24, 0x18,
                 ;	0x18, 0x24, 0x24, 0x18, 0xFC,
                 ;	0x7C, 0x08, 0x04, 0x04, 0x08,
                 ;	0x48, 0x54, 0x54, 0x54, 0x24,
                 ;	0x04, 0x04, 0x3F, 0x44, 0x24,
                 ;	0x3C, 0x40, 0x40, 0x20, 0x7C,
                 ;	0x1C, 0x20, 0x40, 0x20, 0x1C,
                 ;	0x3C, 0x40, 0x30, 0x40, 0x3C,
                 ;	0x44, 0x28, 0x10, 0x28, 0x44,
                 ;	0x4C, 0x90, 0x90, 0x90, 0x7C,
                 ;	0x44, 0x64, 0x54, 0x4C, 0x44,
                 ;	0x00, 0x08, 0x36, 0x41, 0x00,
                 ;	0x00, 0x00, 0x77, 0x00, 0x00,
                 ;	0x00, 0x41, 0x36, 0x08, 0x00,
                 ;	0x02, 0x01, 0x02, 0x04, 0x02,
                 ;	0x3C, 0x26, 0x23, 0x26, 0x3C,
                 ;    0x00, 0x00, 0x00, 0x00, 0x00,
                 ;	0x7F, 0x01, 0x01, 0x01, 0x03 ,  // 
                 ;	0x00, 0x00, 0x00, 0x00, 0x00,
                 ;	0x00, 0x00, 0x00, 0x00, 0x00,
                 ;	0x00, 0x00, 0x00, 0x00, 0x00,
                 ;	0x00, 0x00, 0x00, 0x00, 0x00,
                 ;	0x00, 0x00, 0x00, 0x00, 0x00,
                 ;	0x00, 0x00, 0x00, 0x00, 0x00,
                 ;	0x00, 0x00, 0x00, 0x00, 0x00,
                 ;	0x00, 0x00, 0x00, 0x00, 0x00,
                 ;	0x00, 0x00, 0x00, 0x00, 0x00,
                 ;	0x00, 0x00, 0x00, 0x00, 0x00,
                 ;	0x00, 0x00, 0x00, 0x00, 0x00,
                 ;	0x00, 0x00, 0x00, 0x00, 0x00,
                 ;	0x00, 0x00, 0x00, 0x00, 0x00,
                 ;	0x00, 0x00, 0x00, 0x00, 0x00,
                 ;	0x00, 0x00, 0x00, 0x00, 0x00,
                 ;	0x00, 0x00, 0x00, 0x00, 0x00,
                 ;	0x00, 0x00, 0x00, 0x00, 0x00,
                 ;	0x00, 0x00, 0x00, 0x00, 0x00,
                 ;	0x00, 0x00, 0x00, 0x00, 0x00,
                 ;	0x00, 0x00, 0x00, 0x00, 0x00,
                 ;	0x00, 0x00, 0x00, 0x00, 0x00,
                 ;	0x00, 0x00, 0x00, 0x00, 0x00,
                 ;	0x00, 0x00, 0x00, 0x00, 0x00,
                 ;	0x00, 0x00, 0x00, 0x00, 0x00,
                 ;	0x00, 0x00, 0x00, 0x00, 0x00,
                 ;	0x00, 0x00, 0x00, 0x00, 0x00,
                 ;	0x00, 0x00, 0x00, 0x00, 0x00,
                 ;	0x00, 0x00, 0x00, 0x00, 0x00,
                 ;	0x00, 0x00, 0x00, 0x00, 0x00,
                 ;	0x00, 0x00, 0x00, 0x00, 0x00,
                 ;	0x00, 0x00, 0x00, 0x00, 0x00,
                 ;	0x00, 0x00, 0x00, 0x00, 0x00,
                 ;	0x00, 0x00, 0x00, 0x00, 0x00,
                 ;	0x00, 0x00, 0x00, 0x00, 0x00,
                 ;	0x00, 0x00, 0x00, 0x00, 0x00,
                 ;	   0x7F, 0x01, 0x01, 0x01, 0x03 ,  // 
                 ;	0x00, 0x00, 0x00, 0x00, 0x00,
                 ;	0x00, 0x00, 0x00, 0x00, 0x00,
                 ;	    0x7F, 0x49, 0x49, 0x49, 0x49 ,  // 
                 ;	0x00, 0x00, 0x00, 0x00, 0x00,
                 ;	     0x3E, 0x49, 0x49, 0x41, 0x22 , // 
                 ;	0x00, 0x00, 0x00, 0x00, 0x00,
                 ;	0x00, 0x00, 0x00, 0x00, 0x00,
                 ;	0x00, 0x00, 0x00, 0x00, 0x00,
                 ;	0x00, 0x00, 0x00, 0x00, 0x00,
                 ;	     0x00, 0x43, 0x7E, 0x43, 0x00,   // 
                 ;	0x00, 0x00, 0x00, 0x00, 0x00,
                 ;	0x00, 0x00, 0x00, 0x00, 0x00,
                 ;	     0x00, 0x41, 0x7F, 0x41, 0x00 , // 
                 ;	     0x00, 0x44, 0x7d, 0x40, 0x00 , // 
                 ;	     0x7C, 0x04, 0x04, 0x04, 0x0C ,  // 
                 ;	0x00, 0x00, 0x00, 0x00, 0x00,
                 ;	0x00, 0x00, 0x00, 0x00, 0x00,
                 ;	0x00, 0x00, 0x00, 0x00, 0x00,
                 ;	     0x38, 0x54, 0x54, 0x54, 0x08 ,  // 
                 ;	0x00, 0x00, 0x00, 0x00, 0x00,
                 ;	     0x38, 0x54, 0x54, 0x44, 0x28 , // 
                 ;	0x00, 0x00, 0x00, 0x00, 0x00,
                 ;	0x00, 0x00, 0x00, 0x00, 0x00,
                 ;	0x00, 0x00, 0x00, 0x00, 0x00,
                 ;	0x00, 0x00, 0x00, 0x00, 0x00,
                 ;     0x00, 0x45, 0x7C, 0x41, 0x00 , // 
                 ;	 0x7E, 0x11, 0x11, 0x11, 0x7E ,  // 
                 ;     0x7F, 0x49, 0x49, 0x49, 0x33 ,  // 
                 ;     0x7F, 0x49, 0x49, 0x49, 0x36 ,  // 
                 ;     0x7F, 0x01, 0x01, 0x01, 0x03 ,  // 
                 ;     0xE0, 0x51, 0x4F, 0x41, 0xFF ,  // 
                 ;     0x7F, 0x49, 0x49, 0x49, 0x49 ,  // 
                 ;     0x77, 0x08, 0x7F, 0x08, 0x77 ,  // 
                 ;     0x49, 0x49, 0x49, 0x49, 0x36 ,  // 
                 ;     0x7F, 0x10, 0x08, 0x04, 0x7F ,  // 
                 ;     0x7C, 0x21, 0x12, 0x09, 0x7C ,  // 
                 ;     0x7F, 0x08, 0x14, 0x22, 0x41 ,  // 
                 ;     0x20, 0x41, 0x3F, 0x01, 0x7F ,  // 
                 ;     0x7F, 0x02, 0x0C, 0x02, 0x7F ,  // 
                 ;     0x7F, 0x08, 0x08, 0x08, 0x7F ,  // 
                 ;     0x3E, 0x41, 0x41, 0x41, 0x3E ,  // 
                 ;     0x7F, 0x01, 0x01, 0x01, 0x7F ,  // 
                 ;     0x7F, 0x09, 0x09, 0x09, 0x06 ,  // 
                 ;     0x3E, 0x41, 0x41, 0x41, 0x22 ,  // 
                 ;     0x01, 0x01, 0x7F, 0x01, 0x01 ,  // 
                 ;     0x27, 0x48, 0x48, 0x48, 0x3F ,  // 
                 ;     0x1C, 0x22, 0x7F, 0x22, 0x1C ,  // 
                 ;     0x63, 0x14, 0x08, 0x14, 0x63 ,  // 
                 ;     0x7F, 0x40, 0x40, 0x40, 0xFF ,  // 
                 ;     0x07, 0x08, 0x08, 0x08, 0x7F ,  // 
                 ;     0x7F, 0x40, 0x7F, 0x40, 0x7F ,  // 
                 ;     0x7F, 0x40, 0x7F, 0x40, 0xFF ,  // 
                 ;     0x01, 0x7F, 0x48, 0x48, 0x30 ,  // 
                 ;     0x7F, 0x48, 0x30, 0x00, 0x7F ,  // 
                 ;     0x7F, 0x48, 0x48, 0x30, 0x00 ,  // 
                 ;     0x22, 0x41, 0x49, 0x49, 0x3E ,  // 
                 ;     0x7F, 0x08, 0x3E, 0x41, 0x3E ,  // 
                 ;     0x46, 0x29, 0x19, 0x09, 0x7F ,  // 
                 ;     0x20, 0x54, 0x54, 0x54, 0x78 ,  // 
                 ;     0x3C, 0x4A, 0x4A, 0x49, 0x31 ,  // 
                 ;     0x7C, 0x54, 0x54, 0x28, 0x00 ,  // 
                 ;     0x7C, 0x04, 0x04, 0x04, 0x0C ,  // 
                 ;     0xE0, 0x54, 0x4C, 0x44, 0xFC ,  // 
                 ;     0x38, 0x54, 0x54, 0x54, 0x08 ,  // 
                 ;     0x6C, 0x10, 0x7C, 0x10, 0x6C ,  // 
                 ;     0x44, 0x44, 0x54, 0x54, 0x28 ,  // 
                 ;     0x7C, 0x20, 0x10, 0x08, 0x7C ,  // 
                 ;     0x78, 0x42, 0x24, 0x12, 0x78 ,  // 
                 ;     0x7C, 0x10, 0x28, 0x44, 0x00 ,  // 
                 ;     0x20, 0x44, 0x3C, 0x04, 0x7C ,  // 
                 ;     0x7C, 0x08, 0x10, 0x08, 0x7C ,  // 
                 ;     0x7C, 0x10, 0x10, 0x10, 0x7C ,  // 
                 ;     0x38, 0x44, 0x44, 0x44, 0x38 ,  // 
                 ;     0x7C, 0x04, 0x04, 0x04, 0x7C ,  // 
                 ;     0x7C, 0x14, 0x14, 0x14, 0x08 ,  // 
                 ;     0x38, 0x44, 0x44, 0x44, 0x44 ,  // 
                 ;     0x04, 0x04, 0x7C, 0x04, 0x04 ,  // 
                 ;     0x0C, 0x50, 0x50, 0x50, 0x3C ,  // 
                 ;     0x18, 0x24, 0x7E, 0x24, 0x18 ,  // 
                 ;     0x44, 0x28, 0x10, 0x28, 0x44 ,  // 
                 ;     0x7C, 0x40, 0x40, 0x40, 0xFC ,  // 
                 ;     0x0C, 0x10, 0x10, 0x10, 0x7C ,  // 
                 ;     0x7C, 0x40, 0x7C, 0x40, 0x7C ,  // 
                 ;     0x7C, 0x40, 0x7C, 0x40, 0xFC ,  // 
                 ;     0x04, 0x7C, 0x50, 0x50, 0x20 ,  // 
                 ;     0x7C, 0x50, 0x20, 0x00, 0x7C ,  // 
                 ;     0x7C, 0x50, 0x50, 0x20, 0x00 ,  // 
                 ;     0x28, 0x44, 0x54, 0x54, 0x38 ,  // 
                 ;     0x7C, 0x10, 0x38, 0x44, 0x38 ,  // 
                 ;     0x08, 0x54, 0x34, 0x14, 0x7C   // 
                 ;};
                 ;
                 ;
                 ;
                 ;
                 ;unsigned char buffer[1024] =  {
                 ;0x00, 0x00, 0x00, 0x00, 0x00, 0x00, 0x00, 0x00, 0x00, 0x00, 0x00, 0x00, 0x00, 0x00, 0x00, 0x00,
                 ;0x00, 0x00, 0x00, 0x00, 0x00, 0x00, 0x00, 0x00, 0x00, 0x00, 0x00, 0x00, 0x00, 0x00, 0x00, 0x00,
                 ;0x00, 0x00, 0x00, 0x00, 0x00, 0x00, 0x00, 0x00, 0x00, 0x00, 0x00, 0x00, 0x00, 0x00, 0x00, 0x00,
                 ;0x00, 0x00, 0x00, 0x00, 0x00, 0x00, 0x00, 0x00, 0x00, 0x00, 0x00, 0x00, 0x00, 0x00, 0x00, 0x80,
                 ;0x80, 0x80, 0x00, 0x00, 0x00, 0x00, 0x00, 0x00, 0x00, 0x00, 0x00, 0x00, 0x00, 0x00, 0x00, 0x00,
                 ;0x00, 0x80, 0x80, 0xC0, 0xC0, 0x00, 0x00, 0x00, 0x00, 0x00, 0x00, 0x00, 0x00, 0x00, 0x00, 0x00,
                 ;0x00, 0x00, 0x00, 0x00, 0x00, 0x00, 0x00, 0x00, 0x00, 0x00, 0x00, 0x00, 0x00, 0x00, 0x00, 0x00,
                 ;0x00, 0x00, 0x00, 0x00, 0x00, 0x00, 0x00, 0x00, 0x00, 0x00, 0x00, 0x00, 0x00, 0x00, 0x00, 0x00,
                 ;0x00, 0x00, 0x00, 0x00, 0x00, 0x00, 0x00, 0x00, 0x00, 0x00, 0x00, 0x00, 0x00, 0x00, 0x00, 0x00,
                 ;0x00, 0x00, 0x00, 0x00, 0x80, 0xC0, 0xE0, 0xF0, 0xF8, 0xFC, 0xF8, 0xE0, 0x00, 0x00, 0x00, 0x00,
                 ;0x00, 0x00, 0x00, 0x00, 0x00, 0x00, 0x00, 0x00, 0x00, 0x00, 0x00, 0x00, 0x00, 0x80, 0x80, 0x80,
                 ;0x80, 0x80, 0x00, 0x80, 0x80, 0x00, 0x00, 0x00, 0x00, 0x80, 0x80, 0x80, 0x80, 0x80, 0x00, 0xFF,
                 ;0xFF, 0xFF, 0x00, 0x00, 0x00, 0x00, 0x80, 0x80, 0x80, 0x80, 0x00, 0x00, 0x80, 0x80, 0x00, 0x00,
                 ;0x80, 0xFF, 0xFF, 0x80, 0x80, 0x00, 0x80, 0x80, 0x00, 0x80, 0x80, 0x80, 0x80, 0x00, 0x80, 0x80,
                 ;0x00, 0x00, 0x00, 0x00, 0x00, 0x80, 0x80, 0x00, 0x00, 0x8C, 0x8E, 0x84, 0x00, 0x00, 0x80, 0xF8,
                 ;0xF8, 0xF8, 0x80, 0x00, 0x00, 0x00, 0x00, 0x00, 0x00, 0x00, 0x00, 0x00, 0x00, 0x00, 0x00, 0x00,
                 ;0xF0, 0xF0, 0xF0, 0xF0, 0xF0, 0xF0, 0xF0, 0xF0, 0xF0, 0xF0, 0xF0, 0xF0, 0xE0, 0xE0, 0xC0, 0x80,
                 ;0x00, 0xE0, 0xFC, 0xFE, 0xFF, 0xFF, 0xFF, 0x7F, 0xFF, 0xFF, 0xFF, 0xFF, 0xFF, 0x00, 0x00, 0x00,
                 ;0x00, 0x00, 0x00, 0x00, 0x00, 0x00, 0x00, 0x00, 0x00, 0x00, 0x00, 0xFE, 0xFF, 0xC7, 0x01, 0x01,
                 ;0x01, 0x01, 0x83, 0xFF, 0xFF, 0x00, 0x00, 0x7C, 0xFE, 0xC7, 0x01, 0x01, 0x01, 0x01, 0x83, 0xFF,
                 ;0xFF, 0xFF, 0x00, 0x38, 0xFE, 0xC7, 0x83, 0x01, 0x01, 0x01, 0x83, 0xC7, 0xFF, 0xFF, 0x00, 0x00,
                 ;0x01, 0xFF, 0xFF, 0x01, 0x01, 0x00, 0xFF, 0xFF, 0x07, 0x01, 0x01, 0x01, 0x00, 0x00, 0x7F, 0xFF,
                 ;0x80, 0x00, 0x00, 0x00, 0xFF, 0xFF, 0x7F, 0x00, 0x00, 0xFF, 0xFF, 0xFF, 0x00, 0x00, 0x01, 0xFF,
                 ;0xFF, 0xFF, 0x01, 0x00, 0x00, 0x00, 0x00, 0x00, 0x00, 0x00, 0x00, 0x00, 0x00, 0x00, 0x00, 0x00,
                 ;0x03, 0x0F, 0x3F, 0x7F, 0x7F, 0xFF, 0xFF, 0xFF, 0xFF, 0xFF, 0xFF, 0xFF, 0xE7, 0xC7, 0xC7, 0x8F,
                 ;0x8F, 0x9F, 0xBF, 0xFF, 0xFF, 0xC3, 0xC0, 0xF0, 0xFF, 0xFF, 0xFF, 0xFF, 0xFF, 0xFC, 0xFC, 0xFC,
                 ;0xFC, 0xFC, 0xFC, 0xFC, 0xFC, 0xF8, 0xF8, 0xF0, 0xF0, 0xE0, 0xC0, 0x00, 0x01, 0x03, 0x03, 0x03,
                 ;0x03, 0x03, 0x01, 0x03, 0x03, 0x00, 0x00, 0x00, 0x00, 0x01, 0x03, 0x03, 0x03, 0x03, 0x01, 0x01,
                 ;0x03, 0x01, 0x00, 0x00, 0x00, 0x01, 0x03, 0x03, 0x03, 0x03, 0x01, 0x01, 0x03, 0x03, 0x00, 0x00,
                 ;0x00, 0x03, 0x03, 0x00, 0x00, 0x00, 0x03, 0x03, 0x00, 0x00, 0x00, 0x00, 0x00, 0x00, 0x00, 0x01,
                 ;0x03, 0x03, 0x03, 0x03, 0x03, 0x01, 0x00, 0x00, 0x00, 0x01, 0x03, 0x01, 0x00, 0x00, 0x00, 0x03,
                 ;0x03, 0x01, 0x00, 0x00, 0x00, 0x00, 0x00, 0x00, 0x00, 0x00, 0x00, 0x00, 0x00, 0x00, 0x00, 0x00,
                 ;0x00, 0x00, 0x00, 0x80, 0xC0, 0xE0, 0xF0, 0xF9, 0xFF, 0xFF, 0xFF, 0xFF, 0xFF, 0x3F, 0x1F, 0x0F,
                 ;0x87, 0xC7, 0xF7, 0xFF, 0xFF, 0x1F, 0x1F, 0x3D, 0xFC, 0xF8, 0xF8, 0xF8, 0xF8, 0x7C, 0x7D, 0xFF,
                 ;0xFF, 0xFF, 0xFF, 0xFF, 0xFF, 0xFF, 0xFF, 0x7F, 0x3F, 0x0F, 0x07, 0x00, 0x30, 0x30, 0x00, 0x00,
                 ;0x00, 0x00, 0x00, 0x00, 0x00, 0x00, 0x00, 0x00, 0x00, 0x00, 0x00, 0x00, 0x00, 0x00, 0x00, 0x00,
                 ;0x00, 0x00, 0x00, 0x00, 0xFE, 0xFE, 0xFC, 0x00, 0x00, 0x00, 0x00, 0x00, 0x00, 0x00, 0x00, 0x00,
                 ;0x00, 0x00, 0x00, 0x00, 0x00, 0x00, 0x00, 0x00, 0x00, 0x00, 0x00, 0x00, 0x00, 0xE0, 0xC0, 0x00,
                 ;0x00, 0x00, 0x00, 0x00, 0x00, 0x00, 0x00, 0x00, 0x00, 0x00, 0x30, 0x30, 0x00, 0x00, 0x00, 0x00,
                 ;0x00, 0x00, 0x00, 0x00, 0x00, 0x00, 0x00, 0x00, 0x00, 0x00, 0x00, 0x00, 0x00, 0x00, 0x00, 0x00,
                 ;0x00, 0xC0, 0xFE, 0xFF, 0xFF, 0xFF, 0xFF, 0xFF, 0xFF, 0xFF, 0xFF, 0xFF, 0x7F, 0x7F, 0x3F, 0x1F,
                 ;0x0F, 0x07, 0x1F, 0x7F, 0xFF, 0xFF, 0xF8, 0xF8, 0xFF, 0xFF, 0xFF, 0xFF, 0xFF, 0xFE, 0xF8, 0xE0,
                 ;0x00, 0x00, 0x00, 0x01, 0x00, 0x00, 0x00, 0x00, 0x00, 0x00, 0x00, 0x00, 0xFE, 0xFE, 0x00, 0x00,
                 ;0x00, 0xFC, 0xFE, 0xFC, 0x0C, 0x06, 0x06, 0x0E, 0xFC, 0xF8, 0x00, 0x00, 0xF0, 0xF8, 0x1C, 0x0E,
                 ;0x06, 0x06, 0x06, 0x0C, 0xFF, 0xFF, 0xFF, 0x00, 0x00, 0xFE, 0xFE, 0x00, 0x00, 0x00, 0x00, 0xFC,
                 ;0xFE, 0xFC, 0x00, 0x18, 0x3C, 0x7E, 0x66, 0xE6, 0xCE, 0x84, 0x00, 0x00, 0x06, 0xFF, 0xFF, 0x06,
                 ;0x06, 0xFC, 0xFE, 0xFC, 0x0C, 0x06, 0x06, 0x06, 0x00, 0x00, 0xFE, 0xFE, 0x00, 0x00, 0xC0, 0xF8,
                 ;0xFC, 0x4E, 0x46, 0x46, 0x46, 0x4E, 0x7C, 0x78, 0x40, 0x18, 0x3C, 0x76, 0xE6, 0xCE, 0xCC, 0x80,
                 ;0x00, 0x00, 0x00, 0x00, 0x00, 0x00, 0x00, 0x00, 0x00, 0x00, 0x00, 0x00, 0x00, 0x00, 0x00, 0x00,
                 ;0x00, 0x00, 0x00, 0x00, 0x01, 0x07, 0x0F, 0x1F, 0x1F, 0x3F, 0x3F, 0x3F, 0x3F, 0x1F, 0x0F, 0x03,
                 ;0x00, 0x00, 0x00, 0x00, 0x00, 0x00, 0x00, 0x00, 0x00, 0x00, 0x00, 0x00, 0x0F, 0x0F, 0x00, 0x00,
                 ;0x00, 0x0F, 0x0F, 0x0F, 0x00, 0x00, 0x00, 0x00, 0x0F, 0x0F, 0x00, 0x00, 0x03, 0x07, 0x0E, 0x0C,
                 ;0x18, 0x18, 0x0C, 0x06, 0x0F, 0x0F, 0x0F, 0x00, 0x00, 0x01, 0x0F, 0x0E, 0x0C, 0x18, 0x0C, 0x0F,
                 ;0x07, 0x01, 0x00, 0x04, 0x0E, 0x0C, 0x18, 0x0C, 0x0F, 0x07, 0x00, 0x00, 0x00, 0x0F, 0x0F, 0x00,
                 ;0x00, 0x0F, 0x0F, 0x0F, 0x00, 0x00, 0x00, 0x00, 0x00, 0x00, 0x0F, 0x0F, 0x00, 0x00, 0x00, 0x07,
                 ;0x07, 0x0C, 0x0C, 0x18, 0x1C, 0x0C, 0x06, 0x06, 0x00, 0x04, 0x0E, 0x0C, 0x18, 0x0C, 0x0F, 0x07,
                 ;0x00, 0x00, 0x00, 0x00, 0x00, 0x00, 0x00, 0x00, 0x00, 0x00, 0x00, 0x00, 0x00, 0x00, 0x00, 0x00,
                 ;0x00, 0x00, 0x00, 0x00, 0x00, 0x00, 0x00, 0x00, 0x00, 0x00, 0x00, 0x00, 0x00, 0x00, 0x00, 0x00,
                 ;0x00, 0x00, 0x00, 0x00, 0x00, 0x00, 0x00, 0x00, 0x00, 0x00, 0x00, 0x00, 0x00, 0x00, 0x00, 0x00,
                 ;0x00, 0x00, 0x00, 0x00, 0x00, 0x00, 0x00, 0x00, 0x00, 0x00, 0x00, 0x00, 0x00, 0x00, 0x00, 0x00,
                 ;0x00, 0x00, 0x00, 0x00, 0x00, 0x00, 0x00, 0x00, 0x00, 0x00, 0x00, 0x00, 0x00, 0x00, 0x00, 0x00,
                 ;0x00, 0x00, 0x00, 0x00, 0x00, 0x00, 0x00, 0x00, 0x00, 0x00, 0x00, 0x00, 0x00, 0x00, 0x00, 0x00,
                 ;0x00, 0x00, 0x00, 0x00, 0x00, 0x00, 0x00, 0x00, 0x00, 0x00, 0x00, 0x00, 0x00, 0x00, 0x00, 0x00,
                 ;0x00, 0x00, 0x00, 0x00, 0x00, 0x00, 0x00, 0x00, 0x00, 0x00, 0x00, 0x00, 0x00, 0x00, 0x00, 0x00
                 ;};
                 ;
                 ;
                 ;
                 ;
                 ;
                 ;void clearDisplay(void)
                 ; 0000 001B {
                 
                 	.CSEG
                 _clearDisplay:
                 ; .FSTART _clearDisplay
                 ;int i0;
                 ;    for(i0=0; i0<1024;i0++) buffer[i0] = 0;
0013b2 940e 24d0 	CALL SUBOPT_0x0
                 ;	i0 -> R16,R17
                 _0x6:
                +
0013b4 3000     +CPI R16 , LOW ( 1024 )
0013b5 e0e4     +LDI R30 , HIGH ( 1024 )
0013b6 071e     +CPC R17 , R30
                 	__CPWRN 16,17,1024
0013b7 f44c      	BRGE _0x7
0013b8 e8a2      	LDI  R26,LOW(_buffer)
0013b9 e0b3      	LDI  R27,HIGH(_buffer)
0013ba 0fa0      	ADD  R26,R16
0013bb 1fb1      	ADC  R27,R17
0013bc e0e0      	LDI  R30,LOW(0)
0013bd 93ec      	ST   X,R30
                +
0013be 5f0f     +SUBI R16 , LOW ( - 1 )
0013bf 4f1f     +SBCI R17 , HIGH ( - 1 )
                 	__ADDWRN 16,17,1
0013c0 cff3      	RJMP _0x6
                 _0x7:
0013c1 9109      	LD   R16,Y+
0013c2 9119      	LD   R17,Y+
0013c3 9508      	RET
                 ; .FEND
                 ;
                 ;
                 ;
                 ;
                 ;void drawPixel(int x0, int y0, int color) {
                 _drawPixel:
                 ; .FSTART _drawPixel
                 ;  if ((x0 < 0) || (x0 >= 128) || (y0 < 0) || (y0 >= 64))
0013c4 93ba      	ST   -Y,R27
0013c5 93aa      	ST   -Y,R26
                 ;	x0 -> Y+4
                 ;	y0 -> Y+2
                 ;	color -> Y+0
0013c6 81ad      	LDD  R26,Y+5
0013c7 23aa      	TST  R26
0013c8 f07a      	BRMI _0x9
0013c9 81ac      	LDD  R26,Y+4
0013ca 81bd      	LDD  R27,Y+4+1
0013cb 38a0      	CPI  R26,LOW(0x80)
0013cc e0e0      	LDI  R30,HIGH(0x80)
0013cd 07be      	CPC  R27,R30
0013ce f44c      	BRGE _0x9
0013cf 81ab      	LDD  R26,Y+3
0013d0 23aa      	TST  R26
0013d1 f032      	BRMI _0x9
0013d2 81aa      	LDD  R26,Y+2
0013d3 81bb      	LDD  R27,Y+2+1
0013d4 34a0      	CPI  R26,LOW(0x40)
0013d5 e0e0      	LDI  R30,HIGH(0x40)
0013d6 07be      	CPC  R27,R30
0013d7 f00c      	BRLT _0x8
                 _0x9:
                 ;    return;
0013d8 c01a      	RJMP _0x2060005
                 ;
                 ;//    x0 = 128 - x0 - 1;
                 ;//    y0 = 64 - y0 - 1;
                 ;
                 ;  // x is which column
                 ;    switch (color)
                 _0x8:
0013d9 81e8      	LD   R30,Y
0013da 81f9      	LDD  R31,Y+1
                 ;    {
                 ;      case 1:   buffer[x0+ (y0/8)*128] |=  (1 << (y0&7)); break;
0013db 30e1      	CPI  R30,LOW(0x1)
0013dc e0a0      	LDI  R26,HIGH(0x1)
0013dd 07fa      	CPC  R31,R26
0013de f421      	BRNE _0xE
0013df 940e 24d5 	CALL SUBOPT_0x1
0013e1 29e1      	OR   R30,R1
0013e2 c00e      	RJMP _0x276
                 ;      case 0:   buffer[x0+ (y0/8)*128] &= ~(1 << (y0&7)); break;
                 _0xE:
0013e3 9730      	SBIW R30,0
0013e4 f429      	BRNE _0xF
0013e5 940e 24d5 	CALL SUBOPT_0x1
0013e7 95e0      	COM  R30
0013e8 21e1      	AND  R30,R1
0013e9 c007      	RJMP _0x276
                 ;      case 2:  buffer[x0+ (y0/8)*128] ^=  (1 << (y0&7)); break;
                 _0xF:
0013ea 30e2      	CPI  R30,LOW(0x2)
0013eb e0a0      	LDI  R26,HIGH(0x2)
0013ec 07fa      	CPC  R31,R26
0013ed f429      	BRNE _0xD
0013ee 940e 24d5 	CALL SUBOPT_0x1
0013f0 25e1      	EOR  R30,R1
                 _0x276:
0013f1 01db      	MOVW R26,R22
0013f2 93ec      	ST   X,R30
                 ;    }
                 _0xD:
                 ;
                 ;}
                 _0x2060005:
0013f3 9626      	ADIW R28,6
0013f4 9508      	RET
                 ; .FEND
                 ;
                 ;void drawLine(int x1, int y1, int x2, int y2, int color)
                 ;{
                 _drawLine:
                 ; .FSTART _drawLine
                 ;int kx,ky;
                 ;int znx, zny;
                 ;if (x2 > 127) x2 = 127;
0013f5 93ba      	ST   -Y,R27
0013f6 93aa      	ST   -Y,R26
0013f7 9722      	SBIW R28,2
0013f8 940e 29f9 	CALL __SAVELOCR6
                 ;	x1 -> Y+16
                 ;	y1 -> Y+14
                 ;	x2 -> Y+12
                 ;	y2 -> Y+10
                 ;	color -> Y+8
                 ;	kx -> R16,R17
                 ;	ky -> R18,R19
                 ;	znx -> R20,R21
                 ;	zny -> Y+6
0013fa 85ac      	LDD  R26,Y+12
0013fb 85bd      	LDD  R27,Y+12+1
0013fc 38a0      	CPI  R26,LOW(0x80)
0013fd e0e0      	LDI  R30,HIGH(0x80)
0013fe 07be      	CPC  R27,R30
0013ff f024      	BRLT _0x11
001400 e7ef      	LDI  R30,LOW(127)
001401 e0f0      	LDI  R31,HIGH(127)
001402 87ec      	STD  Y+12,R30
001403 87fd      	STD  Y+12+1,R31
                 ;if (x2 < 0) x2 = 0;
                 _0x11:
001404 85ad      	LDD  R26,Y+13
001405 23aa      	TST  R26
001406 f41a      	BRPL _0x12
001407 e0e0      	LDI  R30,LOW(0)
001408 87ec      	STD  Y+12,R30
001409 87ed      	STD  Y+12+1,R30
                 ;if (x1 > 127) x1 = 127 ;
                 _0x12:
00140a 89a8      	LDD  R26,Y+16
00140b 89b9      	LDD  R27,Y+16+1
00140c 38a0      	CPI  R26,LOW(0x80)
00140d e0e0      	LDI  R30,HIGH(0x80)
00140e 07be      	CPC  R27,R30
00140f f024      	BRLT _0x13
001410 e7ef      	LDI  R30,LOW(127)
001411 e0f0      	LDI  R31,HIGH(127)
001412 8be8      	STD  Y+16,R30
001413 8bf9      	STD  Y+16+1,R31
                 ;if (x1 < 0) x1 = 0 ;
                 _0x13:
001414 89a9      	LDD  R26,Y+17
001415 23aa      	TST  R26
001416 f41a      	BRPL _0x14
001417 e0e0      	LDI  R30,LOW(0)
001418 8be8      	STD  Y+16,R30
001419 8be9      	STD  Y+16+1,R30
                 ;if (y2 > 63) y2 = 63;
                 _0x14:
00141a 85aa      	LDD  R26,Y+10
00141b 85bb      	LDD  R27,Y+10+1
00141c 34a0      	CPI  R26,LOW(0x40)
00141d e0e0      	LDI  R30,HIGH(0x40)
00141e 07be      	CPC  R27,R30
00141f f024      	BRLT _0x15
001420 e3ef      	LDI  R30,LOW(63)
001421 e0f0      	LDI  R31,HIGH(63)
001422 87ea      	STD  Y+10,R30
001423 87fb      	STD  Y+10+1,R31
                 ;if (y2 < 0) y2 = 0;
                 _0x15:
001424 85ab      	LDD  R26,Y+11
001425 23aa      	TST  R26
001426 f41a      	BRPL _0x16
001427 e0e0      	LDI  R30,LOW(0)
001428 87ea      	STD  Y+10,R30
001429 87eb      	STD  Y+10+1,R30
                 ;if (y1 > 63) y1 = 63;
                 _0x16:
00142a 85ae      	LDD  R26,Y+14
00142b 85bf      	LDD  R27,Y+14+1
00142c 34a0      	CPI  R26,LOW(0x40)
00142d e0e0      	LDI  R30,HIGH(0x40)
00142e 07be      	CPC  R27,R30
00142f f024      	BRLT _0x17
001430 e3ef      	LDI  R30,LOW(63)
001431 e0f0      	LDI  R31,HIGH(63)
001432 87ee      	STD  Y+14,R30
001433 87ff      	STD  Y+14+1,R31
                 ;if (y1 < 0) y1 = 0;
                 _0x17:
001434 85af      	LDD  R26,Y+15
001435 23aa      	TST  R26
001436 f41a      	BRPL _0x18
001437 e0e0      	LDI  R30,LOW(0)
001438 87ee      	STD  Y+14,R30
001439 87ef      	STD  Y+14+1,R30
                 ;    if (x1 > x2) znx = -1; else znx = 1;
                 _0x18:
00143a 85ec      	LDD  R30,Y+12
00143b 85fd      	LDD  R31,Y+12+1
00143c 89a8      	LDD  R26,Y+16
00143d 89b9      	LDD  R27,Y+16+1
00143e 17ea      	CP   R30,R26
00143f 07fb      	CPC  R31,R27
001440 f41c      	BRGE _0x19
                +
001441 ef4f     +LDI R20 , LOW ( - 1 )
001442 ef5f     +LDI R21 , HIGH ( - 1 )
                 	__GETWRN 20,21,-1
001443 c002      	RJMP _0x1A
                 _0x19:
                +
001444 e041     +LDI R20 , LOW ( 1 )
001445 e050     +LDI R21 , HIGH ( 1 )
                 	__GETWRN 20,21,1
                 ;    if (y1 > y2) zny = -1; else zny = 1;
                 _0x1A:
001446 85ea      	LDD  R30,Y+10
001447 85fb      	LDD  R31,Y+10+1
001448 85ae      	LDD  R26,Y+14
001449 85bf      	LDD  R27,Y+14+1
00144a 17ea      	CP   R30,R26
00144b 07fb      	CPC  R31,R27
00144c f41c      	BRGE _0x1B
00144d efef      	LDI  R30,LOW(65535)
00144e efff      	LDI  R31,HIGH(65535)
00144f c002      	RJMP _0x277
                 _0x1B:
001450 e0e1      	LDI  R30,LOW(1)
001451 e0f0      	LDI  R31,HIGH(1)
                 _0x277:
001452 83ee      	STD  Y+6,R30
001453 83ff      	STD  Y+6+1,R31
                 ;    kx = ((x2 - x1)*znx);
001454 940e 24ed 	CALL SUBOPT_0x2
                 ;    ky = ((y2 - y1)*zny);
                 ;    drawPixel(x1,y1,color);
                 ;    while ((kx + ky) > 0)
                 _0x1D:
001456 01d9      	MOVW R26,R18
001457 0fa0      	ADD  R26,R16
001458 1fb1      	ADC  R27,R17
001459 940e 29ef 	CALL __CPW02
00145b f524      	BRGE _0x1F
                 ;    {
                 ;        if (kx > 0) if (ky / kx <= 5) x1 = x1 + znx;
00145c 2400      	CLR  R0
00145d 1600      	CP   R0,R16
00145e 0601      	CPC  R0,R17
00145f f46c      	BRGE _0x20
001460 01f8      	MOVW R30,R16
001461 01d9      	MOVW R26,R18
001462 940e 2967 	CALL __DIVW21
001464 9736      	SBIW R30,6
001465 f43c      	BRGE _0x21
001466 01fa      	MOVW R30,R20
001467 89a8      	LDD  R26,Y+16
001468 89b9      	LDD  R27,Y+16+1
001469 0fea      	ADD  R30,R26
00146a 1ffb      	ADC  R31,R27
00146b 8be8      	STD  Y+16,R30
00146c 8bf9      	STD  Y+16+1,R31
                 ;        if (ky > 0) if (kx / ky <= 5) y1 = y1 + zny;
                 _0x21:
                 _0x20:
00146d 2400      	CLR  R0
00146e 1602      	CP   R0,R18
00146f 0603      	CPC  R0,R19
001470 f464      	BRGE _0x22
001471 01f9      	MOVW R30,R18
001472 01d8      	MOVW R26,R16
001473 940e 2967 	CALL __DIVW21
001475 9736      	SBIW R30,6
001476 f434      	BRGE _0x23
001477 81ee      	LDD  R30,Y+6
001478 81ff      	LDD  R31,Y+6+1
001479 940e 250f 	CALL SUBOPT_0x3
00147b 87ee      	STD  Y+14,R30
00147c 87ff      	STD  Y+14+1,R31
                 ;        kx = ((x2 - x1)*znx);
                 _0x23:
                 _0x22:
00147d 940e 24ed 	CALL SUBOPT_0x2
                 ;        ky = ((y2 - y1)*zny);
                 ;        drawPixel(x1,y1,color);
                 ;    }
00147f cfd6      	RJMP _0x1D
                 _0x1F:
                 ;
                 ;}
001480 940e 2a00 	CALL __LOADLOCR6
001482 9662      	ADIW R28,18
001483 9508      	RET
                 ; .FEND
                 ;
                 ;
                 ;void fillRect(int x, int y, int w, int h,
                 ;			    unsigned int color) {
                 _fillRect:
                 ; .FSTART _fillRect
                 ; int i;
                 ;  // Update in subclasses if desired!
                 ;  for (i=x; i<x+w; i++) {
001484 93ba      	ST   -Y,R27
001485 93aa      	ST   -Y,R26
001486 931a      	ST   -Y,R17
001487 930a      	ST   -Y,R16
                 ;	x -> Y+10
                 ;	y -> Y+8
                 ;	w -> Y+6
                 ;	h -> Y+4
                 ;	color -> Y+2
                 ;	i -> R16,R17
                +
001488 850a     +LDD R16 , Y + 10
001489 851b     +LDD R17 , Y + 10 + 1
                 	__GETWRS 16,17,10
                 _0x25:
00148a 81ee      	LDD  R30,Y+6
00148b 81ff      	LDD  R31,Y+6+1
00148c 940e 2514 	CALL SUBOPT_0x4
00148e 170e      	CP   R16,R30
00148f 071f      	CPC  R17,R31
001490 f494      	BRGE _0x26
                 ;    drawLine(i, y, i, y+h-1, color);
001491 931a      	ST   -Y,R17
001492 930a      	ST   -Y,R16
001493 940e 2519 	CALL SUBOPT_0x5
001495 931a      	ST   -Y,R17
001496 930a      	ST   -Y,R16
001497 85ea      	LDD  R30,Y+10
001498 85fb      	LDD  R31,Y+10+1
001499 940e 251e 	CALL SUBOPT_0x6
00149b 93ba      	ST   -Y,R27
00149c 93aa      	ST   -Y,R26
00149d 85aa      	LDD  R26,Y+10
00149e 85bb      	LDD  R27,Y+10+1
00149f df55      	RCALL _drawLine
                 ;  }
                +
0014a0 5f0f     +SUBI R16 , LOW ( - 1 )
0014a1 4f1f     +SBCI R17 , HIGH ( - 1 )
                 	__ADDWRN 16,17,1
0014a2 cfe7      	RJMP _0x25
                 _0x26:
                 ;}
0014a3 8119      	LDD  R17,Y+1
0014a4 8108      	LDD  R16,Y+0
0014a5 962c      	ADIW R28,12
0014a6 9508      	RET
                 ; .FEND
                 ;
                 ;void drawChar(int x0, int y0, char c)
                 ;{
                 _drawChar:
                 ; .FSTART _drawChar
                 ;int i0;
                 ;for(i0 = 0 ;i0< 5;i0++) buffer[x0+y0*128+i0] = font[c*5+i0];
0014a7 93aa      	ST   -Y,R26
0014a8 940e 24d0 	CALL SUBOPT_0x0
                 ;	x0 -> Y+5
                 ;	y0 -> Y+3
                 ;	c -> Y+2
                 ;	i0 -> R16,R17
                 _0x28:
                +
0014aa 3005     +CPI R16 , LOW ( 5 )
0014ab e0e0     +LDI R30 , HIGH ( 5 )
0014ac 071e     +CPC R17 , R30
                 	__CPWRN 16,17,5
0014ad f4ac      	BRGE _0x29
0014ae 940e 2524 	CALL SUBOPT_0x7
0014b0 0fe0      	ADD  R30,R16
0014b1 1ff1      	ADC  R31,R17
0014b2 57ee      	SUBI R30,LOW(-_buffer)
0014b3 4ffc      	SBCI R31,HIGH(-_buffer)
0014b4 01bf      	MOVW R22,R30
0014b5 81aa      	LDD  R26,Y+2
0014b6 e0e5      	LDI  R30,LOW(5)
0014b7 9fea      	MUL  R30,R26
0014b8 01f0      	MOVW R30,R0
0014b9 0fe0      	ADD  R30,R16
0014ba 1ff1      	ADC  R31,R17
0014bb 59e8      	SUBI R30,LOW(-_font*2)
0014bc 4fff      	SBCI R31,HIGH(-_font*2)
0014bd 91e4      	LPM  R30,Z
0014be 01db      	MOVW R26,R22
0014bf 93ec      	ST   X,R30
                +
0014c0 5f0f     +SUBI R16 , LOW ( - 1 )
0014c1 4f1f     +SBCI R17 , HIGH ( - 1 )
                 	__ADDWRN 16,17,1
0014c2 cfe7      	RJMP _0x28
                 _0x29:
0014c3 940e 2524 	CALL SUBOPT_0x7
                +
0014c5 57e9     +SUBI R30 , LOW ( - _buffer - ( 5 ) )
0014c6 4ffc     +SBCI R31 , HIGH ( - _buffer - ( 5 ) )
                 	__ADDW1MN _buffer,5
0014c7 e0a0      	LDI  R26,LOW(0)
0014c8 83a0      	STD  Z+0,R26
                 ;}
0014c9 8119      	LDD  R17,Y+1
0014ca 8108      	LDD  R16,Y+0
0014cb 9627      	ADIW R28,7
0014cc 9508      	RET
                 ; .FEND
                 ;
                 ;// Draw a character
                 ;void drawCharZ(int x, int y, unsigned char c, int color, int size) {
                 _drawCharZ:
                 ; .FSTART _drawCharZ
                 ;int j,i0;
                 ;unsigned char line,i, j0;
                 ;    if((x >= 128)            || // Clip right
0014cd 940e 252f 	CALL SUBOPT_0x8
                 ;	x -> Y+14
                 ;	y -> Y+12
                 ;	c -> Y+11
                 ;	color -> Y+9
                 ;	size -> Y+7
                 ;	j -> R16,R17
                 ;	i0 -> R18,R19
                 ;	line -> R21
                 ;	i -> R20
                 ;	j0 -> Y+6
                 ;     (y >= 64)           || // Clip bottom
                 ;     ((x + 6 * size - 1) < 0) || // Clip left
                 ;     ((y + 8 * size - 1) < 0))   // Clip top
0014cf f46c      	BRGE _0x2B
0014d0 85ac      	LDD  R26,Y+12
0014d1 85bd      	LDD  R27,Y+12+1
0014d2 34a0      	CPI  R26,LOW(0x40)
0014d3 e0e0      	LDI  R30,HIGH(0x40)
0014d4 07be      	CPC  R27,R30
0014d5 f43c      	BRGE _0x2B
0014d6 940e 253a 	CALL SUBOPT_0x9
0014d8 23bb      	TST  R27
0014d9 f01a      	BRMI _0x2B
0014da 940e 2541 	CALL SUBOPT_0xA
0014dc f40a      	BRPL _0x2A
                 _0x2B:
                 ;    return;
0014dd c0b3      	RJMP _0x2060004
                 ;
                 ;  for (i0=0; i0<6; i0++ ) {
                 _0x2A:
                +
0014de e020     +LDI R18 , LOW ( 0 )
0014df e030     +LDI R19 , HIGH ( 0 )
                 	__GETWRN 18,19,0
                 _0x2E:
                +
0014e0 3026     +CPI R18 , LOW ( 6 )
0014e1 e0e0     +LDI R30 , HIGH ( 6 )
0014e2 073e     +CPC R19 , R30
                 	__CPWRN 18,19,6
0014e3 f5c4      	BRGE _0x2F
                 ;
                 ;    if (i0 == 5) line = 0x0;
0014e4 e0e5      	LDI  R30,LOW(5)
0014e5 e0f0      	LDI  R31,HIGH(5)
0014e6 17e2      	CP   R30,R18
0014e7 07f3      	CPC  R31,R19
0014e8 f411      	BRNE _0x30
0014e9 e050      	LDI  R21,LOW(0)
                 ;    else
0014ea c002      	RJMP _0x31
                 _0x30:
                 ;      line = font[c*5+i0];
0014eb 940e 254c 	CALL SUBOPT_0xB
                 ;    for (j = 0; j<8; j++) {
                 _0x31:
                +
0014ed e000     +LDI R16 , LOW ( 0 )
0014ee e010     +LDI R17 , HIGH ( 0 )
                 	__GETWRN 16,17,0
                 _0x33:
                +
0014ef 3008     +CPI R16 , LOW ( 8 )
0014f0 e0e0     +LDI R30 , HIGH ( 8 )
0014f1 071e     +CPC R17 , R30
                 	__CPWRN 16,17,8
0014f2 f534      	BRGE _0x34
                 ;      if (line & 0x1) {
0014f3 ff50      	SBRS R21,0
0014f4 c020      	RJMP _0x35
                 ;        if (size == 1) // default size
0014f5 81af      	LDD  R26,Y+7
0014f6 85b8      	LDD  R27,Y+7+1
0014f7 9711      	SBIW R26,1
0014f8 f459      	BRNE _0x36
                 ;          drawPixel(x+i0, y+j, color);
0014f9 01f9      	MOVW R30,R18
0014fa 940e 250f 	CALL SUBOPT_0x3
0014fc 93fa      	ST   -Y,R31
0014fd 93ea      	ST   -Y,R30
0014fe 01f8      	MOVW R30,R16
0014ff 940e 250f 	CALL SUBOPT_0x3
001501 940e 2556 	CALL SUBOPT_0xC
                 ;        else {  // big size
001503 c011      	RJMP _0x37
                 _0x36:
                 ;          for (i = 0; i < size; i++) for (j0 = 0; j0 < size; j0++) drawPixel(x+i0*size+i,y+j*size+j0,color);
001504 e040      	LDI  R20,LOW(0)
                 _0x39:
001505 940e 255c 	CALL SUBOPT_0xD
001507 f46c      	BRGE _0x3A
001508 e0e0      	LDI  R30,LOW(0)
001509 83ee      	STD  Y+6,R30
                 _0x3C:
00150a 940e 2563 	CALL SUBOPT_0xE
00150c f434      	BRGE _0x3D
00150d 940e 256a 	CALL SUBOPT_0xF
00150f 81ee      	LDD  R30,Y+6
001510 5fef      	SUBI R30,-LOW(1)
001511 83ee      	STD  Y+6,R30
001512 cff7      	RJMP _0x3C
                 _0x3D:
001513 5f4f      	SUBI R20,-1
001514 cff0      	RJMP _0x39
                 _0x3A:
                 _0x37:
                 ;      }
                 ;      line >>= 1;
                 _0x35:
001515 9556      	LSR  R21
                 ;    }
                +
001516 5f0f     +SUBI R16 , LOW ( - 1 )
001517 4f1f     +SBCI R17 , HIGH ( - 1 )
                 	__ADDWRN 16,17,1
001518 cfd6      	RJMP _0x33
                 _0x34:
                 ;  }
                +
001519 5f2f     +SUBI R18 , LOW ( - 1 )
00151a 4f3f     +SBCI R19 , HIGH ( - 1 )
                 	__ADDWRN 18,19,1
00151b cfc4      	RJMP _0x2E
                 _0x2F:
                 ;}
00151c c074      	RJMP _0x2060004
                 ; .FEND
                 ;
                 ;void drawCharZo(int x, int y, unsigned char c, int color, int size) {
                 _drawCharZo:
                 ; .FSTART _drawCharZo
                 ;int j,i0;
                 ;unsigned char line,i,j0;
                 ;    if((x >= 128)            || // Clip right
00151d 940e 252f 	CALL SUBOPT_0x8
                 ;	x -> Y+14
                 ;	y -> Y+12
                 ;	c -> Y+11
                 ;	color -> Y+9
                 ;	size -> Y+7
                 ;	j -> R16,R17
                 ;	i0 -> R18,R19
                 ;	line -> R21
                 ;	i -> R20
                 ;	j0 -> Y+6
                 ;     (y >= 64)           || // Clip bottom
                 ;     ((x + 6 * size - 1) < 0) || // Clip left
                 ;     ((y + 8 * size - 1) < 0))   // Clip top
00151f f46c      	BRGE _0x3F
001520 85ac      	LDD  R26,Y+12
001521 85bd      	LDD  R27,Y+12+1
001522 34a0      	CPI  R26,LOW(0x40)
001523 e0e0      	LDI  R30,HIGH(0x40)
001524 07be      	CPC  R27,R30
001525 f43c      	BRGE _0x3F
001526 940e 253a 	CALL SUBOPT_0x9
001528 23bb      	TST  R27
001529 f01a      	BRMI _0x3F
00152a 940e 2541 	CALL SUBOPT_0xA
00152c f40a      	BRPL _0x3E
                 _0x3F:
                 ;    return;
00152d c063      	RJMP _0x2060004
                 ;
                 ;
                 ;  for(j = 0; j<size; j++)  for(i0=x+y*16; i0<(x+y*16+6*size);i0++) buffer[i0+j*128] = 0;
                 _0x3E:
                +
00152e e000     +LDI R16 , LOW ( 0 )
00152f e010     +LDI R17 , HIGH ( 0 )
                 	__GETWRN 16,17,0
                 _0x42:
001530 81ef      	LDD  R30,Y+7
001531 85f8      	LDD  R31,Y+7+1
001532 170e      	CP   R16,R30
001533 071f      	CPC  R17,R31
001534 f4f4      	BRGE _0x43
001535 940e 2587 	CALL SUBOPT_0x10
001537 019f      	MOVW R18,R30
                 _0x45:
001538 940e 2587 	CALL SUBOPT_0x10
00153a 01bf      	MOVW R22,R30
00153b 81ef      	LDD  R30,Y+7
00153c 85f8      	LDD  R31,Y+7+1
00153d 940e 258c 	CALL SUBOPT_0x11
00153f 0fe6      	ADD  R30,R22
001540 1ff7      	ADC  R31,R23
001541 172e      	CP   R18,R30
001542 073f      	CPC  R19,R31
001543 f464      	BRGE _0x46
001544 01f8      	MOVW R30,R16
001545 940e 2591 	CALL SUBOPT_0x12
001547 0fe2      	ADD  R30,R18
001548 1ff3      	ADC  R31,R19
001549 57ee      	SUBI R30,LOW(-_buffer)
00154a 4ffc      	SBCI R31,HIGH(-_buffer)
00154b e0a0      	LDI  R26,LOW(0)
00154c 83a0      	STD  Z+0,R26
                +
00154d 5f2f     +SUBI R18 , LOW ( - 1 )
00154e 4f3f     +SBCI R19 , HIGH ( - 1 )
                 	__ADDWRN 18,19,1
00154f cfe8      	RJMP _0x45
                 _0x46:
                +
001550 5f0f     +SUBI R16 , LOW ( - 1 )
001551 4f1f     +SBCI R17 , HIGH ( - 1 )
                 	__ADDWRN 16,17,1
001552 cfdd      	RJMP _0x42
                 _0x43:
                +
001553 e020     +LDI R18 , LOW ( 0 )
001554 e030     +LDI R19 , HIGH ( 0 )
                 	__GETWRN 18,19,0
                 _0x48:
                +
001555 3026     +CPI R18 , LOW ( 6 )
001556 e0e0     +LDI R30 , HIGH ( 6 )
001557 073e     +CPC R19 , R30
                 	__CPWRN 18,19,6
001558 f5c4      	BRGE _0x49
                 ;
                 ;    if (i0 == 5) line = 0x0;
001559 e0e5      	LDI  R30,LOW(5)
00155a e0f0      	LDI  R31,HIGH(5)
00155b 17e2      	CP   R30,R18
00155c 07f3      	CPC  R31,R19
00155d f411      	BRNE _0x4A
00155e e050      	LDI  R21,LOW(0)
                 ;    else
00155f c002      	RJMP _0x4B
                 _0x4A:
                 ;      line = font[c*5+i0];
001560 940e 254c 	CALL SUBOPT_0xB
                 ;    for (j = 0; j<8; j++) {
                 _0x4B:
                +
001562 e000     +LDI R16 , LOW ( 0 )
001563 e010     +LDI R17 , HIGH ( 0 )
                 	__GETWRN 16,17,0
                 _0x4D:
                +
001564 3008     +CPI R16 , LOW ( 8 )
001565 e0e0     +LDI R30 , HIGH ( 8 )
001566 071e     +CPC R17 , R30
                 	__CPWRN 16,17,8
001567 f534      	BRGE _0x4E
                 ;      if (line & 0x1) {
001568 ff50      	SBRS R21,0
001569 c020      	RJMP _0x4F
                 ;        if (size == 1) // default size
00156a 81af      	LDD  R26,Y+7
00156b 85b8      	LDD  R27,Y+7+1
00156c 9711      	SBIW R26,1
00156d f459      	BRNE _0x50
                 ;          drawPixel(x+i0, y+j, color);
00156e 01f9      	MOVW R30,R18
00156f 940e 250f 	CALL SUBOPT_0x3
001571 93fa      	ST   -Y,R31
001572 93ea      	ST   -Y,R30
001573 01f8      	MOVW R30,R16
001574 940e 250f 	CALL SUBOPT_0x3
001576 940e 2556 	CALL SUBOPT_0xC
                 ;        else {  // big size
001578 c011      	RJMP _0x51
                 _0x50:
                 ;          for (i = 0; i < size; i++) for (j0 = 0; j0 < size; j0++) drawPixel(x+i0*size+i,y+j*size+j0,color);
001579 e040      	LDI  R20,LOW(0)
                 _0x53:
00157a 940e 255c 	CALL SUBOPT_0xD
00157c f46c      	BRGE _0x54
00157d e0e0      	LDI  R30,LOW(0)
00157e 83ee      	STD  Y+6,R30
                 _0x56:
00157f 940e 2563 	CALL SUBOPT_0xE
001581 f434      	BRGE _0x57
001582 940e 256a 	CALL SUBOPT_0xF
001584 81ee      	LDD  R30,Y+6
001585 5fef      	SUBI R30,-LOW(1)
001586 83ee      	STD  Y+6,R30
001587 cff7      	RJMP _0x56
                 _0x57:
001588 5f4f      	SUBI R20,-1
001589 cff0      	RJMP _0x53
                 _0x54:
                 _0x51:
                 ;      }
                 ;      line >>= 1;
                 _0x4F:
00158a 9556      	LSR  R21
                 ;    }
                +
00158b 5f0f     +SUBI R16 , LOW ( - 1 )
00158c 4f1f     +SBCI R17 , HIGH ( - 1 )
                 	__ADDWRN 16,17,1
00158d cfd6      	RJMP _0x4D
                 _0x4E:
                 ;  }
                +
00158e 5f2f     +SUBI R18 , LOW ( - 1 )
00158f 4f3f     +SBCI R19 , HIGH ( - 1 )
                 	__ADDWRN 18,19,1
001590 cfc4      	RJMP _0x48
                 _0x49:
                 ;}
                 _0x2060004:
001591 940e 2a00 	CALL __LOADLOCR6
001593 9660      	ADIW R28,16
001594 9508      	RET
                 ; .FEND
                 ;
                 ;
                 ;
                 ;void drawString(int x0, int y0,flash char * str, int len)
                 ;{
                 ;int i0;
                 ;    for (i0 = 0; i0<len; i0++) drawChar(x0+i0,y0, str[i0]) ;
                 ;	x0 -> Y+8
                 ;	y0 -> Y+6
                 ;	*str -> Y+4
                 ;	len -> Y+2
                 ;	i0 -> R16,R17
                 ;
                 ;
                 ;void drawStringZ(int x0, int y0,flash char * str, int len, int color, int size)
                 ;{
                 _drawStringZ:
                 ; .FSTART _drawStringZ
                 ;int i0;
                 ;    for (i0 = 0; i0<len; i0++) drawCharZ(x0+i0*6*size,y0, str[i0], color, size) ;
001595 93ba      	ST   -Y,R27
001596 93aa      	ST   -Y,R26
001597 940e 24d0 	CALL SUBOPT_0x0
                 ;	x0 -> Y+12
                 ;	y0 -> Y+10
                 ;	*str -> Y+8
                 ;	len -> Y+6
                 ;	color -> Y+4
                 ;	size -> Y+2
                 ;	i0 -> R16,R17
                 _0x5C:
001599 81ee      	LDD  R30,Y+6
00159a 81ff      	LDD  R31,Y+6+1
00159b 170e      	CP   R16,R30
00159c 071f      	CPC  R17,R31
00159d f514      	BRGE _0x5D
00159e 01f8      	MOVW R30,R16
00159f 940e 258c 	CALL SUBOPT_0x11
0015a1 81aa      	LDD  R26,Y+2
0015a2 81bb      	LDD  R27,Y+2+1
0015a3 940e 294f 	CALL __MULW12
0015a5 85ac      	LDD  R26,Y+12
0015a6 85bd      	LDD  R27,Y+12+1
0015a7 0fea      	ADD  R30,R26
0015a8 1ffb      	ADC  R31,R27
0015a9 93fa      	ST   -Y,R31
0015aa 93ea      	ST   -Y,R30
0015ab 85ec      	LDD  R30,Y+12
0015ac 85fd      	LDD  R31,Y+12+1
0015ad 93fa      	ST   -Y,R31
0015ae 93ea      	ST   -Y,R30
0015af 01f8      	MOVW R30,R16
0015b0 85ac      	LDD  R26,Y+12
0015b1 85bd      	LDD  R27,Y+12+1
0015b2 0fea      	ADD  R30,R26
0015b3 1ffb      	ADC  R31,R27
0015b4 91e4      	LPM  R30,Z
0015b5 93ea      	ST   -Y,R30
0015b6 85e9      	LDD  R30,Y+9
0015b7 85fa      	LDD  R31,Y+9+1
0015b8 93fa      	ST   -Y,R31
0015b9 93ea      	ST   -Y,R30
0015ba 85a9      	LDD  R26,Y+9
0015bb 85ba      	LDD  R27,Y+9+1
0015bc df10      	RCALL _drawCharZ
                +
0015bd 5f0f     +SUBI R16 , LOW ( - 1 )
0015be 4f1f     +SBCI R17 , HIGH ( - 1 )
                 	__ADDWRN 16,17,1
0015bf cfd9      	RJMP _0x5C
                 _0x5D:
0015c0 8119      	LDD  R17,Y+1
0015c1 8108      	LDD  R16,Y+0
0015c2 962e      	ADIW R28,14
0015c3 9508      	RET
                 ; .FEND
                 ;
                 ;#include <twi.h>
                 ;
                 ;void initDisplay(void)
                 ;{
                 _initDisplay:
                 ; .FSTART _initDisplay
                 ;
                 ;    twi_master_init(400);
0015c4 e9a0      	LDI  R26,LOW(400)
0015c5 e0b1      	LDI  R27,HIGH(400)
0015c6 940e 22b1 	CALL _twi_master_init
                 ;    #asm("sei")
0015c8 9478      	sei
                 ;    twi_master_trans(0x3C, bufer, 50, rx_data, 0);    //      0x3C  
0015c9 940e 2596 	CALL SUBOPT_0x13
0015cb e3e2      	LDI  R30,LOW(50)
0015cc 940e 259d 	CALL SUBOPT_0x14
                 ;}
0015ce 9508      	RET
                 ; .FEND
                 ;
                 ;
                 ;void display(int x, int y, int x2, int y2)
                 ;{
                 _display:
                 ; .FSTART _display
                 ; int i,n;
                 ;    bufer[0] = 0x80;
0015cf 940e 25a5 	CALL SUBOPT_0x15
                 ;	x -> Y+10
                 ;	y -> Y+8
                 ;	x2 -> Y+6
                 ;	y2 -> Y+4
                 ;	i -> R16,R17
                 ;	n -> R18,R19
0015d1 e8e0      	LDI  R30,LOW(128)
0015d2 93e0 0301 	STS  _bufer,R30
                 ;    bufer[1] = 0x21;
0015d4 e2e1      	LDI  R30,LOW(33)
                +
0015d5 93e0 0302+STS _bufer + ( 1 ) , R30
                 	__PUTB1MN _bufer,1
                 ;    bufer[2] = 0x80;
0015d7 e8e0      	LDI  R30,LOW(128)
                +
0015d8 93e0 0303+STS _bufer + ( 2 ) , R30
                 	__PUTB1MN _bufer,2
                 ;    bufer[3] = x;//0;
0015da 85ea      	LDD  R30,Y+10
                +
0015db 93e0 0304+STS _bufer + ( 3 ) , R30
                 	__PUTB1MN _bufer,3
                 ;    bufer[4] = 0x80;
0015dd e8e0      	LDI  R30,LOW(128)
                +
0015de 93e0 0305+STS _bufer + ( 4 ) , R30
                 	__PUTB1MN _bufer,4
                 ;    bufer[5] = x2;//127;
0015e0 81ee      	LDD  R30,Y+6
                +
0015e1 93e0 0306+STS _bufer + ( 5 ) , R30
                 	__PUTB1MN _bufer,5
                 ;    bufer[6] = 0x80;
0015e3 e8e0      	LDI  R30,LOW(128)
                +
0015e4 93e0 0307+STS _bufer + ( 6 ) , R30
                 	__PUTB1MN _bufer,6
                 ;    bufer[7] = 0x22;
0015e6 e2e2      	LDI  R30,LOW(34)
                +
0015e7 93e0 0308+STS _bufer + ( 7 ) , R30
                 	__PUTB1MN _bufer,7
                 ;    bufer[8] = 0x80;
0015e9 e8e0      	LDI  R30,LOW(128)
                +
0015ea 93e0 0309+STS _bufer + ( 8 ) , R30
                 	__PUTB1MN _bufer,8
                 ;    bufer[9] = y;//0;
0015ec 85e8      	LDD  R30,Y+8
                +
0015ed 93e0 030a+STS _bufer + ( 9 ) , R30
                 	__PUTB1MN _bufer,9
                 ;    bufer[10] = 0x80;
0015ef e8e0      	LDI  R30,LOW(128)
                +
0015f0 93e0 030b+STS _bufer + ( 10 ) , R30
                 	__PUTB1MN _bufer,10
                 ;    bufer[11] = y2;//7  ;
0015f2 81ec      	LDD  R30,Y+4
                +
0015f3 93e0 030c+STS _bufer + ( 11 ) , R30
                 	__PUTB1MN _bufer,11
                 ;    twi_master_trans(0x3C, bufer, 12, rx_data, 0) ;
0015f5 940e 2596 	CALL SUBOPT_0x13
0015f7 e0ec      	LDI  R30,LOW(12)
0015f8 940e 259d 	CALL SUBOPT_0x14
                 ;
                 ;       for (i=0+y*128; i<128+y2*128; ) {
0015fa 85e8      	LDD  R30,Y+8
0015fb 85f9      	LDD  R31,Y+8+1
0015fc 940e 2591 	CALL SUBOPT_0x12
0015fe 9630      	ADIW R30,0
0015ff 018f      	MOVW R16,R30
                 _0x5F:
001600 81ec      	LDD  R30,Y+4
001601 81fd      	LDD  R31,Y+4+1
001602 940e 2591 	CALL SUBOPT_0x12
001604 58e0      	SUBI R30,LOW(-128)
001605 4fff      	SBCI R31,HIGH(-128)
001606 170e      	CP   R16,R30
001607 071f      	CPC  R17,R31
001608 f5c4      	BRGE _0x60
                 ;      // send a bunch of data in one xmission
                 ;        bufer[0] = 0x40;
001609 e4e0      	LDI  R30,LOW(64)
00160a 93e0 0301 	STS  _bufer,R30
                 ;        i+=x;
00160c 85ea      	LDD  R30,Y+10
00160d 85fb      	LDD  R31,Y+10+1
                +
00160e 0f0e     +ADD R16 , R30
00160f 1f1f     +ADC R17 , R31
                 	__ADDWRR 16,17,30,31
                 ;        for (n=0; n<x2-x+1; n++) {
                +
001610 e020     +LDI R18 , LOW ( 0 )
001611 e030     +LDI R19 , HIGH ( 0 )
                 	__GETWRN 18,19,0
                 _0x62:
001612 85aa      	LDD  R26,Y+10
001613 85bb      	LDD  R27,Y+10+1
001614 81ee      	LDD  R30,Y+6
001615 81ff      	LDD  R31,Y+6+1
001616 1bea      	SUB  R30,R26
001617 0bfb      	SBC  R31,R27
001618 9631      	ADIW R30,1
001619 172e      	CP   R18,R30
00161a 073f      	CPC  R19,R31
00161b f474      	BRGE _0x63
                 ;        bufer[n+1] = buffer[i++];
00161c 01f9      	MOVW R30,R18
                +
00161d 5fee     +SUBI R30 , LOW ( - _bufer - ( 1 ) )
00161e 4ffc     +SBCI R31 , HIGH ( - _bufer - ( 1 ) )
                 	__ADDW1MN _bufer,1
00161f 01df      	MOVW R26,R30
001620 01f8      	MOVW R30,R16
                +
001621 5f0f     +SUBI R16 , LOW ( - 1 )
001622 4f1f     +SBCI R17 , HIGH ( - 1 )
                 	__ADDWRN 16,17,1
001623 57ee      	SUBI R30,LOW(-_buffer)
001624 4ffc      	SBCI R31,HIGH(-_buffer)
001625 81e0      	LD   R30,Z
001626 93ec      	ST   X,R30
                 ;        }
                +
001627 5f2f     +SUBI R18 , LOW ( - 1 )
001628 4f3f     +SBCI R19 , HIGH ( - 1 )
                 	__ADDWRN 18,19,1
001629 cfe8      	RJMP _0x62
                 _0x63:
                 ;        i+=(127-x2);
00162a 81ae      	LDD  R26,Y+6
00162b 81bf      	LDD  R27,Y+6+1
00162c e7ef      	LDI  R30,LOW(127)
00162d e0f0      	LDI  R31,HIGH(127)
00162e 1bea      	SUB  R30,R26
00162f 0bfb      	SBC  R31,R27
                +
001630 0f0e     +ADD R16 , R30
001631 1f1f     +ADC R17 , R31
                 	__ADDWRR 16,17,30,31
                 ;        twi_master_trans(0x3C, bufer, x2+2-x, rx_data, 0) ;
001632 940e 2596 	CALL SUBOPT_0x13
001634 85a9      	LDD  R26,Y+9
001635 5fae      	SUBI R26,-LOW(2)
001636 85ed      	LDD  R30,Y+13
001637 1bae      	SUB  R26,R30
001638 93aa      	ST   -Y,R26
001639 e0e0      	LDI  R30,LOW(_rx_data)
00163a e0f3      	LDI  R31,HIGH(_rx_data)
00163b 93fa      	ST   -Y,R31
00163c 93ea      	ST   -Y,R30
00163d e0a0      	LDI  R26,LOW(0)
00163e 940e 22e0 	CALL _twi_master_trans
                 ;    }
001640 cfbf      	RJMP _0x5F
                 _0x60:
                 ;}
001641 c358      	RJMP _0x2060003
                 ; .FEND
                 ;// Declare your global variables here
                 ;
                 ;#define dob PIND.1
                 ;#define ubr PIND.2
                 ;#define zvuk PORTB.1
                 ;
                 ;
                 ;flash unsigned char signal[7][256] = {
                 ;{0,3,6,9,13,16,19,22,25,28,31,34,37,41,44,47,50,53,56,59,62,65,68,71,
                 ;74,77,80,83,86,89,92,95,98,100,103,106,109,112,115,117,120,123,126,128,131,134,136,139,142,144,147,
                 ;149,152,154,157,159,162,164,167,169,171,174,176,178,180,183,185,187,189,191,193,195,197,199,201,203,
                 ;205,207,208,210,212,214,215,217,219,220,222,223,225,226,228,229,231,232,233,234,236,237,238,239,240,
                 ;241,242,243,244,245,246,247,247,248,249,249,250,251,251,252,252,253,253,253,254,254,254,255,255,255,
                 ;255,255,255,255,255,255,255,255,254,254,254,253,253,253,252,252,251,251,250,249,249,248,247,247,246,
                 ;245,244,243,242,241,240,239,238,237,236,234,233,232,231,229,228,226,225,223,222,220,219,217,215,214,
                 ;212,210,208,207,205,203,201,199,197,195,193,191,189,187,185,183,180,178,176,174,171,169,167,164,162,
                 ;159,157,154,152,149,147,144,142,139,136,134,131,128,126,123,120,117,115,112,109,106,103,100,98,95,92,
                 ;89,86,83,80,77,74,71,68,65,62,59,56,53,50,47,44,41,37,34,31,28,25,22,19,16,13,9,6,3},
                 ;{255,255,255,255,255,255,255,255,255,255,255,255,255,255,255,255,255,255,255,255,255,255,255,255,255,255,255,255,255,
                 ;    255,255,255,255,255,255,255,255,255,255,255,255,255,255,255,255,255,255,255,255,255,255,255,255,255,255,255,255,
                 ;    255,255,255,255,255,255,255,255,255,255,255,255,255,255,255,255,255,255,255,255,255,255,255,255,255,255,255,255,
                 ;    255,255,255,255,255,255,255,255,255,255,255,255,255,255,255,255,255,255,255,255,255,255,255,255,255,255,255,255,
                 ;    255,255,255,255,255,255,255,255,255,255,255,255,255,255,0,0,0,0,0,0,0,0,0,0,0,0,0,0,0,0,0,0,0,0,0,0,0,0,0,0,0,0,
                 ;    0,0,0,0,0,0,0,0,0,0,0,0,0,0,0,0,0,0,0,0,0,0,0,0,0,0,0,0,0,0,0,0,0,0,0,0,0,0,0,0,0,0,0,0,0,0,0,0,0,0,0,0,0,0,0,0,
                 ;    0,0,0,0,0,0,0,0,0,0,0,0,0,0,0,0,0,0,0,0,0,0,0,0,0,0,0,0,0,0,0,0,0,0,0,0,0,0,0,0,0,0,0,127,127},
                 ;{255,255,255,255,255,255,255,255,255,255,255,255,255,255,255,255,255,255,255,255,255,255,255,255,255,255,255,255,255,
                 ;    255,255,255,255,255,255,255,255,255,255,255,255,255,255,255,255,255,255,255,255,255,255,255,255,255,255,255,255,
                 ;    255,255,255,255,255,255,255,255,255,255,255,255,255,255,255,255,255,255,255,255,255,255,255,255,255,255,255,255,
                 ;    255,255,255,255,255,255,255,255,255,255,255,255,255,255,255,255,255,255,255,255,255,255,255,255,255,255,255,255,
                 ;    255,255,255,255,255,255,255,255,255,255,255,255,255,255,85,85,85,85,85,85,85,85,85,85,85,85,85,85,
                 ;    85,85,85,85,85,85,85,85,85,85,85,85,85,85,85,85,85,85,85,85,85,85,85,85,85,85,85,85,
                 ;    85,85,85,85,85,85,85,85,85,85,85,85,85,85,85,85,85,85,85,85,85,85,85,85,85,85,85,85,
                 ;    85,85,85,85,85,85,85,85,85,85,85,85,85,85,85,85,85,85,85,85,85,85,85,85,85,85,85,85,
                 ;    85,85,85,85,85,85,85,85,85,85,85,85,85,85,85,85,85,85,85,85,85,85,85,85,85,85,85,85,85,85,85},
                 ;{255,254,253,252,251,250,249,248,247,246,245,244,243,242,241,240,239,238,237,236,235,234,233,232,231,230,229,228,227,
                 ;    226,225,224,223,222,221,220,219,218,217,216,215,214,213,212,211,210,209,208,207,206,205,204,203,202,201,200,199,
                 ;    198,197,196,195,194,193,192,191,190,189,188,187,186,185,184,183,182,181,180,179,178,177,176,175,174,173,172,171,
                 ;    170,169,168,167,166,165,164,163,162,161,160,159,158,157,156,155,154,153,152,151,150,149,148,147,146,145,144,143,
                 ;    142,141,140,139,138,137,136,135,134,133,132,131,130,129,0,1,2,3,4,5,6,7,8,9,10,11,12,13,14,15,16,17,18,19,20,21,
                 ;    22,23,24,25,26,27,28,29,30,31,32,33,34,35,36,37,38,39,40,41,42,43,44,45,46,47,48,49,50,51,52,53,54,55,56,57,58,
                 ;    59,60,61,62,63,64,65,66,67,68,69,70,71,72,73,74,75,76,77,78,79,80,81,82,83,84,85,86,87,88,89,90,91,92,93,94,95,
                 ;    96,97,98,99,100,101,102,103,104,105,106,107,108,109,110,111,112,113,114,115,116,117,118,119,120,121,122,123,124,125, ...
                 ;{255,254,252,251,250,248,247,246,244,243,242,240,239,238,236,235,234,232,231,230,228,227,226,224,223,222,220,219,218,216 ...
                 ;211,209,208,207,205,204,203,201,200,199,197,196,195,193,192,191,189,188,187,185,184,183,181,180,179,177,176,175,173,172, ...
                 ;167,165,164,163,161,160,159,157,156,155,153,152,151,149,148,147,145,144,143,141,140,139,137,136,135,133,132,131,129,128, ...
                 ;122,121,120,118,117,116,114,113,112,110,109,108,106,105,104,102,101,100,98,97,96,94,93,92,90,89,88,86,
                 ;    85,85,85,85,85,85,85,85,85,85,85,85,85,85,85,
                 ;    85,85,85,85,85,85,85,85,85,85,85,85,85,85,85,85,85,85,85,85,85,85,85,85,85,85,85,85,
                 ;    85,85,85,85,85,85,85,85,85,85,85,85,85,85,85,85,85,85,85,85,85,85,85,85,85,85,85,85,
                 ;    85,85,85,85,85,85,85,85,85,85,85,85,85,85,85,85,85,85,85,85,85,85,85,85,85,85,85,85,
                 ;    85,85,85,85,85,85,85,85,85,85,85,85,85,85,85,85,85,85,85,85,85,85,85,85,85,85,85,85,85,85},
                 ;{255,255,85,85,255,255,85,85,255,255,85,85,255,255,85,85,255,255,85,85,255,255,85,85,255,255,85,85,255,
                 ;	255,85,85,255,255,85,85,255,255,85,85,255,255,85,85,255,255,85,85,255,255,85,85,255,255,85,85,255,
                 ;	255,85,85,255,255,85,85,255,255,85,85,255,255,85,85,255,255,85,85,255,255,85,85,255,255,85,85,255,
                 ;	255,85,85,255,255,85,85,255,255,85,85,255,255,85,85,255,255,85,85,255,255,85,85,255,255,85,85,255,
                 ;	255,85,85,255,255,85,85,255,255,85,85,255,255,85,85,85,85,85,85,85,85,85,85,85,85,85,85,85,
                 ;	85,85,85,85,85,85,85,85,85,85,85,85,85,85,85,85,85,85,85,85,85,85,85,85,85,85,85,85,
                 ;	85,85,85,85,85,85,85,85,85,85,85,85,85,85,85,85,85,85,85,85,85,85,85,85,85,85,85,85,
                 ;	85,85,85,85,85,85,85,85,85,85,85,85,85,85,85,85,85,85,85,85,85,85,85,85,85,85,85,85,
                 ;	85,85,85,85,85,85,85,85,85,85,85,85,85,85,85,85,85,85,85,85,85,85,85,85,85,85,85,85,85,85,85},
                 ;{255,255,127,127,255,255,127,127,255,255,127,127,255,255,127,127,255,255,127,127,255,255,127,127,255,255,127,127,255,
                 ;	255,127,127,255,255,127,127,255,255,127,127,255,255,127,127,255,255,127,127,255,255,127,127,255,255,127,127,255,
                 ;	255,127,127,255,255,127,127,255,255,127,127,255,255,127,127,255,255,127,127,255,255,127,127,255,255,127,127,255,
                 ;	255,127,127,255,255,127,127,255,255,127,127,255,255,127,127,255,255,127,127,255,255,127,127,255,255,127,127,255,
                 ;	255,127,127,255,255,127,127,255,255,127,127,255,255,127,0,0,127,127,0,0,127,127,0,0,127,127,0,0,127,127,0,0,127,
                 ;	127,0,0,127,127,0,0,127,127,0,0,127,127,0,0,127,127,0,0,127,127,0,0,127,127,0,0,127,127,0,0,127,127,0,0,127,127,
                 ;	0,0,127,127,0,0,127,127,0,0,127,127,0,0,127,127,0,0,127,127,0,0,127,127,0,0,127,127,0,0,127,127,0,0,127,127,0,0,
                 ;	127,127,0,0,127,127,0,0,127,127,0,0,127,127,0,0,127,127,0,0,127,127,0,0,127,127,0,0,127,127,0,0,127,127,127}
                 ;} ;
                 ;
                 ;
                 ;
                 ;int i,j,n,m,k,o, dn_reg, up_reg;
                 ;char seans0,chel,vrem, bol0, l;
                 ;//  
                 ;flash char bolezni[45][103] = {
                 ;":.                                                                                      ",
                 ;":   .                                                           ",
                 ;":  .                                                                          ",
                 ;":,  .                                                        ",
                 ;":,     .                      ",
                 ;":, ,   .              ",
                 ;"    .                                            ",
                 ;"    .                                            ",
                 ;"   .                                                                              ",
                 ;".                                                                                            ",
                 ;"  (, )   .                           ",
                 ;"  (, ),    .               ",
                 ;" .                                                                                   ",
                 ;" ().                                                                                     ",
                 ;" (,  ).                                                           ",
                 ;"    12-  .                                                      ",
                 ;".                                                                                              ",
                 ;"-.                                                                                 ",
                 ;".                                                                                                ",
                 ;"  (   ).                                ",
                 ;"- .                                                              ",
                 ;"- .                                                                         ",
                 ;"    .                                                   ",
                 ;", .                                                                                   ",
                 ;" .                                                                            ",
                 ;".                                                                                              ",
                 ;" .                                                                                      ",
                 ;".                                                                                            ",
                 ;" .                                                                                     ",
                 ;".                                                                                          ",
                 ;" , .                                                              ",
                 ;"  .                                                                       ",
                 ;", .                                                                                  ",
                 ;".                                                                                              ",
                 ;", .                                                                                          ",
                 ;".                                                                                            ",
                 ;" .                                                                              ",
                 ;",      .                                                       ",
                 ;"  .                                                                                  ",
                 ;".                                                                                               ",
                 ;"  .                                                                     ",
                 ;", .                                                                                    ",
                 ;".                                                                                           ",
                 ;" .                                                                             ",
                 ;"  .                                                                          "
                 ;};
                 ;
                 ;// 
                 ;flash unsigned char rezhimi[45][20] = {
                 ;{2,2,2,5,5,6,5,5,4,4,2,2,2,5,5,6,4,4,4,4},
                 ;{4,4,2,5,5,3,5,4,4,4,4,4,2,5,5,4,4,4,4,4},
                 ;{2,2,2,5,5,5,5,2,2,2,2,2,2,5,5,5,5,2,2,2},
                 ;{4,4,2,5,5,6,2,4,4,4,4,4,2,5,5,6,2,4,4,4},
                 ;{4,4,4,4,4,4,3,3,3,4,4,4,4,4,4,4,3,3,3,4},
                 ;{4,4,4,2,2,2,2,5,5,4,4,4,4,2,2,2,2,5,5,4},
                 ;{2,2,2,2,5,5,1,5,4,4,2,2,2,2,5,5,1,5,4,4},
                 ;{4,4,4,4,3,3,3,4,4,4,4,4,4,4,3,3,3,4,4,4},
                 ;{4,4,4,2,2,1,5,2,4,4,4,4,4,2,2,1,5,2,4,4},
                 ;{2,2,2,5,5,6,6,5,2,2,2,2,2,5,5,6,6,5,2,2},
                 ;{4,4,4,4,2,5,5,4,4,4,4,4,4,4,2,5,5,4,4,4},
                 ;{4,4,4,4,4,2,2,4,4,4,4,4,4,4,4,2,2,4,4,4},
                 ;{2,2,5,5,5,2,2,2,4,4,2,2,5,5,5,2,2,2,4,4},
                 ;{2,2,2,2,1,1,1,5,6,2,2,2,2,2,1,1,1,5,6,2},
                 ;{2,2,1,5,5,3,3,5,5,4,2,2,1,5,5,3,3,3,4,4},
                 ;{2,2,2,5,5,5,5,2,2,2,2,2,2,5,5,5,5,2,2,2},
                 ;{2,2,2,5,6,1,5,2,4,4,2,2,2,5,6,1,5,2,4,4},
                 ;{4,4,2,5,5,5,5,5,4,4,4,4,2,5,5,5,5,5,4,4},
                 ;{2,2,2,5,5,4,4,5,2,2,2,2,2,5,5,4,4,5,2,2},
                 ;{4,4,4,4,4,3,3,3,5,4,4,4,4,4,4,3,3,4,4,4},
                 ;{4,4,4,4,4,3,3,4,4,4,4,4,4,4,4,3,3,4,4,4},
                 ;{4,4,3,3,3,5,5,5,5,5,4,4,4,4,4,4,4,4,5,5},
                 ;{4,4,3,3,3,3,5,4,4,4,4,4,4,4,4,4,4,4,4,4},
                 ;{2,2,2,2,5,5,6,6,5,5,2,2,2,2,5,5,6,6,5,5},
                 ;{4,4,2,2,5,5,6,6,2,2,4,4,2,2,5,5,6,6,2,2},
                 ;{4,4,4,3,2,2,4,4,4,4,4,4,4,3,2,2,4,4,4,4},
                 ;{2,1,5,6,6,5,3,3,4,4,2,1,5,6,6,5,3,3,4,4},
                 ;{2,5,5,5,5,5,2,2,2,2,2,5,5,5,5,5,3,3,2,2},
                 ;{4,4,4,3,3,1,1,6,5,5,4,4,4,3,3,1,1,6,5,5},
                 ;{5,5,5,2,2,3,4,4,5,5,5,5,5,2,2,3,4,4,5,5},
                 ;{2,2,2,1,1,1,1,1,2,2,2,2,2,1,1,1,1,1,2,2},
                 ;{4,4,4,3,1,6,1,6,5,5,4,4,4,3,1,6,1,6,5,5},
                 ;{2,2,5,5,5,5,6,6,4,4,2,2,5,5,5,5,6,6,4,4},
                 ;{4,4,4,4,3,3,6,1,5,5,4,4,4,4,3,3,6,1,5,5},
                 ;{2,5,1,2,5,5,5,2,2,1,2,5,1,2,5,5,5,2,2,1},
                 ;{2,2,2,2,4,3,4,2,5,5,2,2,2,2,4,3,4,2,5,5},
                 ;{2,2,5,5,6,6,6,2,4,4,2,2,5,5,6,6,6,2,4,4},
                 ;{5,5,6,6,6,2,2,2,2,2,5,5,6,6,6,2,2,2,2,2},
                 ;{5,5,6,6,4,4,3,5,2,2,5,5,6,6,4,4,3,5,2,2},
                 ;{2,2,5,5,4,4,3,4,5,2,2,2,5,5,4,4,3,4,5,2},
                 ;{2,2,2,2,2,5,5,5,5,5,2,2,2,2,2,5,5,5,5,5},
                 ;{2,2,2,2,5,5,5,6,5,5,2,2,3,3,4,4,4,6,5,5},
                 ;{2,2,2,2,5,1,1,5,5,5,2,2,2,2,5,1,1,5,5,5},
                 ;{4,3,6,5,5,4,4,4,4,4,4,4,3,4,4,4,4,4,4,4},
                 ;{4,4,3,3,5,4,4,4,4,4,4,4,4,4,4,4,4,4,4,4}
                 ;};
                 ;
                 ;
                 ;
                 ;eeprom char seans[10], bol[10];
                 ;
                 ;
                 ;
                 ;unsigned int tok,tok0, period, a, mod, paus, time;
                 ;unsigned char a1,a2,a3, rezh0,tok1;
                 ;long timer;
                 ;bit fl1, fl2, fl3, fl4, fl5, reg1, reg2, flag0, fubr;
                 ;
                 ;// Voltage Reference: Int., cap. on AREF
                 ;#define ADC_VREF_TYPE ((1<<REFS1) | (1<<REFS0) | (0<<ADLAR))
                 ;
                 ;// Read the AD conversion result
                 ;unsigned int read_adc(unsigned char adc_input)
                 ; 0000 00D8 {
                 _read_adc:
                 ; .FSTART _read_adc
                 ; 0000 00D9 ADMUX=adc_input | ADC_VREF_TYPE;
001642 93aa      	ST   -Y,R26
                 ;	adc_input -> Y+0
001643 81e8      	LD   R30,Y
001644 6ce0      	ORI  R30,LOW(0xC0)
001645 93e0 007c 	STS  124,R30
                 ; 0000 00DA // Delay needed for the stabilization of the ADC input voltage
                 ; 0000 00DB delay_us(10);
                +
001647 e385     +LDI R24 , LOW ( 53 )
                +__DELAY_USB_LOOP :
001648 958a     +DEC R24
001649 f7f1     +BRNE __DELAY_USB_LOOP
                 	__DELAY_USB 53
                 ; 0000 00DC // Start the AD conversion
                 ; 0000 00DD ADCSRA|=(1<<ADSC);
00164a 91e0 007a 	LDS  R30,122
00164c 64e0      	ORI  R30,0x40
00164d 93e0 007a 	STS  122,R30
                 ; 0000 00DE // Wait for the AD conversion to complete
                 ; 0000 00DF while ((ADCSRA & (1<<ADIF))==0);
                 _0x64:
00164f 91e0 007a 	LDS  R30,122
001651 71e0      	ANDI R30,LOW(0x10)
001652 f3e1      	BREQ _0x64
                 ; 0000 00E0 ADCSRA|=(1<<ADIF);
001653 940e 25aa 	CALL SUBOPT_0x16
                 ; 0000 00E1 return ADCW;
001655 9621      	ADIW R28,1
001656 9508      	RET
                 ; 0000 00E2 }
                 ; .FEND
                 ;
                 ;// External Interrupt 0 service routine
                 ;interrupt [EXT_INT0] void ext_int0_isr(void)
                 ; 0000 00E6 {
                 _ext_int0_isr:
                 ; .FSTART _ext_int0_isr
001657 93ea      	ST   -Y,R30
001658 b7ef      	IN   R30,SREG
                 ; 0000 00E7 // Place your code here
                 ; 0000 00E8     fubr = 1;
001659 9468      	SET
00165a f820      	BLD  R2,0
                 ; 0000 00E9 }
00165b bfef      	OUT  SREG,R30
00165c 91e9      	LD   R30,Y+
00165d 9518      	RETI
                 ; .FEND
                 ;
                 ;
                 ;// Timer1 overflow interrupt service routine
                 ;interrupt [TIM1_OVF] void timer1_ovf_isr(void)
                 ; 0000 00EE {
                 _timer1_ovf_isr:
                 ; .FSTART _timer1_ovf_isr
00165e 920a      	ST   -Y,R0
00165f 921a      	ST   -Y,R1
001660 92fa      	ST   -Y,R15
001661 936a      	ST   -Y,R22
001662 937a      	ST   -Y,R23
001663 938a      	ST   -Y,R24
001664 939a      	ST   -Y,R25
001665 93aa      	ST   -Y,R26
001666 93ba      	ST   -Y,R27
001667 93ea      	ST   -Y,R30
001668 93fa      	ST   -Y,R31
001669 b7ef      	IN   R30,SREG
00166a 93ea      	ST   -Y,R30
                 ; 0000 00EF     if(reg1)
00166b 9bf5      	SBIS 0x1E,5
00166c c13d      	RJMP _0x67
                 ; 0000 00F0     {
                 ; 0000 00F1       if(reg2)
00166d 9bf6      	SBIS 0x1E,6
00166e c0bd      	RJMP _0x68
                 ; 0000 00F2       {
                 ; 0000 00F3             TCNT1H=period >> 8;
00166f 940e 25b4 	CALL SUBOPT_0x17
                 ; 0000 00F4             TCNT1L=period & 0xff;
                 ; 0000 00F5             if(a1 < 254)
001671 91a0 079c 	LDS  R26,_a1
001673 3fae      	CPI  R26,LOW(0xFE)
001674 f448      	BRSH _0x69
                 ; 0000 00F6             {
                 ; 0000 00F7                  OCR2A = signal[0][a1++];
001675 940e 25bd 	CALL SUBOPT_0x18
001677 e0f0      	LDI  R31,0
001678 59e8      	SUBI R30,LOW(-_signal*2)
001679 4ffa      	SBCI R31,HIGH(-_signal*2)
00167a 91e4      	LPM  R30,Z
00167b 93e0 00b3 	STS  179,R30
                 ; 0000 00F8             }
                 ; 0000 00F9             else
00167d c0a7      	RJMP _0x6A
                 _0x69:
                 ; 0000 00FA             {
                 ; 0000 00FB                 a1 = 0;
00167e e0e0      	LDI  R30,LOW(0)
00167f 93e0 079c 	STS  _a1,R30
                 ; 0000 00FC                 if(timer > 9000000) period = 2048 + (timer - 9000000)/143;  // 15584  64736
001681 940e 25c4 	CALL SUBOPT_0x19
                +
001683 34a1     +CPI R26 , LOW ( 0x895441 )
001684 e5e4     +LDI R30 , HIGH ( 0x895441 )
001685 07be     +CPC R27 , R30
001686 e8e9     +LDI R30 , BYTE3 ( 0x895441 )
001687 078e     +CPC R24 , R30
001688 e0e0     +LDI R30 , BYTE4 ( 0x895441 )
001689 079e     +CPC R25 , R30
                 	__CPD2N 0x895441
00168a f09c      	BRLT _0x6B
00168b 940e 25cd 	CALL SUBOPT_0x1A
                +
00168d 54e0     +SUBI R30 , LOW ( 9000000 )
00168e 45f4     +SBCI R31 , HIGH ( 9000000 )
00168f 4869     +SBCI R22 , BYTE3 ( 9000000 )
001690 4070     +SBCI R23 , BYTE4 ( 9000000 )
                 	__SUBD1N 9000000
001691 01df      	MOVW R26,R30
001692 01cb      	MOVW R24,R22
                +
001693 e8ef     +LDI R30 , LOW ( 0x8F )
001694 e0f0     +LDI R31 , HIGH ( 0x8F )
001695 e060     +LDI R22 , BYTE3 ( 0x8F )
001696 e070     +LDI R23 , BYTE4 ( 0x8F )
                 	__GETD1N 0x8F
001697 940e 2991 	CALL __DIVD21
001699 50e0      	SUBI R30,LOW(-2048)
00169a 4ff8      	SBCI R31,HIGH(-2048)
00169b 940e 25d6 	CALL SUBOPT_0x1B
                 ; 0000 00FD                 else
00169d c03c      	RJMP _0x6C
                 _0x6B:
                 ; 0000 00FE                 if (timer > 6000000) period = 58592 - (timer - 6000000)/53;
00169e 940e 25c4 	CALL SUBOPT_0x19
                +
0016a0 38a1     +CPI R26 , LOW ( 0x5B8D81 )
0016a1 e8ed     +LDI R30 , HIGH ( 0x5B8D81 )
0016a2 07be     +CPC R27 , R30
0016a3 e5eb     +LDI R30 , BYTE3 ( 0x5B8D81 )
0016a4 078e     +CPC R24 , R30
0016a5 e0e0     +LDI R30 , BYTE4 ( 0x5B8D81 )
0016a6 079e     +CPC R25 , R30
                 	__CPD2N 0x5B8D81
0016a7 f0bc      	BRLT _0x6D
0016a8 940e 25cd 	CALL SUBOPT_0x1A
                +
0016aa 58e0     +SUBI R30 , LOW ( 6000000 )
0016ab 48fd     +SBCI R31 , HIGH ( 6000000 )
0016ac 456b     +SBCI R22 , BYTE3 ( 6000000 )
0016ad 4070     +SBCI R23 , BYTE4 ( 6000000 )
                 	__SUBD1N 6000000
0016ae 01df      	MOVW R26,R30
0016af 01cb      	MOVW R24,R22
                +
0016b0 e3e5     +LDI R30 , LOW ( 0x35 )
0016b1 e0f0     +LDI R31 , HIGH ( 0x35 )
0016b2 e060     +LDI R22 , BYTE3 ( 0x35 )
0016b3 e070     +LDI R23 , BYTE4 ( 0x35 )
                 	__GETD1N 0x35
0016b4 940e 2991 	CALL __DIVD21
0016b6 eea0      	LDI  R26,LOW(58592)
0016b7 eeb4      	LDI  R27,HIGH(58592)
0016b8 1bae      	SUB  R26,R30
0016b9 0bbf      	SBC  R27,R31
0016ba 93a0 0792 	STS  _period,R26
0016bc 93b0 0793 	STS  _period+1,R27
                 ; 0000 00FF                 else
0016be c01b      	RJMP _0x6E
                 _0x6D:
                 ; 0000 0100                 {
                 ; 0000 0101                     if(fl2) period-=4; else period+=4;
0016bf 9bf1      	SBIS 0x1E,1
0016c0 c004      	RJMP _0x6F
0016c1 940e 25db 	CALL SUBOPT_0x1C
0016c3 9734      	SBIW R30,4
0016c4 c003      	RJMP _0x278
                 _0x6F:
0016c5 940e 25db 	CALL SUBOPT_0x1C
0016c7 9634      	ADIW R30,4
                 _0x278:
0016c8 93e0 0792 	STS  _period,R30
0016ca 93f0 0793 	STS  _period+1,R31
                 ; 0000 0102                     if (period > 0xED40) fl2 = 1;
0016cc 940e 25e0 	CALL SUBOPT_0x1D
0016ce 34a1      	CPI  R26,LOW(0xED41)
0016cf eeed      	LDI  R30,HIGH(0xED41)
0016d0 07be      	CPC  R27,R30
0016d1 f008      	BRLO _0x71
0016d2 9af1      	SBI  0x1E,1
                 ; 0000 0103                     if (period < 0xE4E0) fl2 = 0;
                 _0x71:
0016d3 940e 25e0 	CALL SUBOPT_0x1D
0016d5 3ea0      	CPI  R26,LOW(0xE4E0)
0016d6 eee4      	LDI  R30,HIGH(0xE4E0)
0016d7 07be      	CPC  R27,R30
0016d8 f408      	BRSH _0x74
0016d9 98f1      	CBI  0x1E,1
                 ; 0000 0104                 }
                 _0x74:
                 _0x6E:
                 _0x6C:
                 ; 0000 0105                 if (tok >= tok0)
0016da 940e 25e5 	CALL SUBOPT_0x1E
0016dc f138      	BRLO _0x77
                 ; 0000 0106                 {
                 ; 0000 0107                     if(fl1) { if(a3<128) a3 += 1;} else a3 = 1;
0016dd 9bf0      	SBIS 0x1E,0
0016de c007      	RJMP _0x78
0016df 91a0 079e 	LDS  R26,_a3
0016e1 38a0      	CPI  R26,LOW(0x80)
0016e2 f410      	BRSH _0x79
0016e3 940e 25f0 	CALL SUBOPT_0x1F
                 _0x79:
0016e5 c003      	RJMP _0x7A
                 _0x78:
0016e6 e0e1      	LDI  R30,LOW(1)
0016e7 93e0 079e 	STS  _a3,R30
                 ; 0000 0108                     fl1 = 1;
                 _0x7A:
0016e9 9af0      	SBI  0x1E,0
                 ; 0000 0109                     if (OCR0B == 0)
0016ea b5e8      	IN   R30,0x28
0016eb 30e0      	CPI  R30,0
0016ec f471      	BRNE _0x7D
                 ; 0000 010A                     {
                 ; 0000 010B                         if(OCR0A > 64) OCR0A = 64;
0016ed b5e7      	IN   R30,0x27
0016ee 34e1      	CPI  R30,LOW(0x41)
0016ef f010      	BRLO _0x7E
0016f0 e4e0      	LDI  R30,LOW(64)
0016f1 bde7      	OUT  0x27,R30
                 ; 0000 010C                         if((unsigned char)OCR0A > a3) OCR0A = OCR0A - a3; else OCR0A=0x00;
                 _0x7E:
0016f2 940e 25f6 	CALL SUBOPT_0x20
0016f4 f418      	BRSH _0x7F
0016f5 940e 25fc 	CALL SUBOPT_0x21
0016f7 c001      	RJMP _0x279
                 _0x7F:
0016f8 e0e0      	LDI  R30,LOW(0)
                 _0x279:
0016f9 bde7      	OUT  0x27,R30
                 ; 0000 010D                     }
                 ; 0000 010E                     else
0016fa c008      	RJMP _0x81
                 _0x7D:
                 ; 0000 010F                     {  if((unsigned char)OCR0B > a3) OCR0B = OCR0B - a3;
0016fb 940e 2601 	CALL SUBOPT_0x22
0016fd f418      	BRSH _0x82
0016fe 940e 2607 	CALL SUBOPT_0x23
                 ; 0000 0110                         else
001700 c002      	RJMP _0x83
                 _0x82:
                 ; 0000 0111                         {
                 ; 0000 0112                             OCR0B=0x00;
001701 940e 260d 	CALL SUBOPT_0x24
                 ; 0000 0113                             a3 = 1;
                 ; 0000 0114                         }
                 _0x83:
                 ; 0000 0115                     }
                 _0x81:
                 ; 0000 0116                 }
                 ; 0000 0117                 else
001703 c021      	RJMP _0x84
                 _0x77:
                 ; 0000 0118                 {
                 ; 0000 0119                     if(fl1==0)  { if(a3<16) a3 *= 1;} else a3 = 1;
001704 99f0      	SBIC 0x1E,0
001705 c007      	RJMP _0x85
001706 91a0 079e 	LDS  R26,_a3
001708 31a0      	CPI  R26,LOW(0x10)
001709 f410      	BRSH _0x86
00170a 940e 2613 	CALL SUBOPT_0x25
                 _0x86:
00170c c003      	RJMP _0x87
                 _0x85:
00170d e0e1      	LDI  R30,LOW(1)
00170e 93e0 079e 	STS  _a3,R30
                 ; 0000 011A                     fl1 = 0;
                 _0x87:
001710 98f0      	CBI  0x1E,0
                 ; 0000 011B                     if (OCR0A == 0xFF)
001711 b5e7      	IN   R30,0x27
001712 3fef      	CPI  R30,LOW(0xFF)
001713 f449      	BRNE _0x8A
                 ; 0000 011C                     { if((unsigned char)OCR0B < (0x98 - a3)) OCR0B = OCR0B + a3; else OCR0B=0x98; }
001714 940e 2618 	CALL SUBOPT_0x26
001716 f41c      	BRGE _0x8B
001717 940e 2627 	CALL SUBOPT_0x27
001719 c001      	RJMP _0x27A
                 _0x8B:
00171a e9e8      	LDI  R30,LOW(152)
                 _0x27A:
00171b bde8      	OUT  0x28,R30
                 ; 0000 011D                     else
00171c c008      	RJMP _0x8D
                 _0x8A:
                 ; 0000 011E                     {   if(OCR0A < (0xFF - a3) & OCR0A < 64) OCR0A = OCR0A + a3;
00171d 940e 262c 	CALL SUBOPT_0x28
00171f f019      	BREQ _0x8E
001720 940e 2642 	CALL SUBOPT_0x29
                 ; 0000 011F                         else
001722 c002      	RJMP _0x8F
                 _0x8E:
                 ; 0000 0120                         {
                 ; 0000 0121                             OCR0A=0xFF;
001723 940e 2648 	CALL SUBOPT_0x2A
                 ; 0000 0122                             a3 = 1;
                 ; 0000 0123                         }
                 _0x8F:
                 ; 0000 0124                     }
                 _0x8D:
                 ; 0000 0125                 }
                 _0x84:
                 ; 0000 0126 
                 ; 0000 0127 
                 ; 0000 0128             }
                 _0x6A:
                 ; 0000 0129             if (a1 == 128) tok = read_adc(0);
001725 91a0 079c 	LDS  R26,_a1
001727 38a0      	CPI  R26,LOW(0x80)
001728 f411      	BRNE _0x90
001729 940e 264e 	CALL SUBOPT_0x2B
                 ; 0000 012A 
                 ; 0000 012B       }
                 _0x90:
                 ; 0000 012C       else
00172b c07d      	RJMP _0x91
                 _0x68:
                 ; 0000 012D       {
                 ; 0000 012E         // Reinitialize Timer1 value
                 ; 0000 012F         TCNT1H=0xE0;//80 >> 8;
00172c eee0      	LDI  R30,LOW(224)
00172d 93e0 0085 	STS  133,R30
                 ; 0000 0130         TCNT1L=0xC0;//0xFE80 & 0xff;      // 0.5 ms
00172f ece0      	LDI  R30,LOW(192)
001730 93e0 0084 	STS  132,R30
                 ; 0000 0131         if (a1++ == 0)
001732 940e 25bd 	CALL SUBOPT_0x18
001734 f421      	BRNE _0x92
                 ; 0000 0132         {
                 ; 0000 0133             OCR2A = 0xFF;
001735 efef      	LDI  R30,LOW(255)
001736 93e0 00b3 	STS  179,R30
                 ; 0000 0134         }
                 ; 0000 0135         else
001738 c070      	RJMP _0x93
                 _0x92:
                 ; 0000 0136         {
                 ; 0000 0137             TCNT1H=0x06;
001739 e0e6      	LDI  R30,LOW(6)
00173a 93e0 0085 	STS  133,R30
                 ; 0000 0138             TCNT1L=0x00;
00173c e0e0      	LDI  R30,LOW(0)
00173d 93e0 0084 	STS  132,R30
                 ; 0000 0139             if(a1 == 2)
00173f 91a0 079c 	LDS  R26,_a1
001741 30a2      	CPI  R26,LOW(0x2)
001742 f009      	BREQ PC+2
001743 c058      	RJMP _0x94
                 ; 0000 013A             {
                 ; 0000 013B                 tok = read_adc(0);
001744 940e 264e 	CALL SUBOPT_0x2B
                 ; 0000 013C                 OCR2A = 0x00;
001746 e0e0      	LDI  R30,LOW(0)
001747 93e0 00b3 	STS  179,R30
                 ; 0000 013D                 if (tok >= tok0)
001749 940e 25e5 	CALL SUBOPT_0x1E
00174b f138      	BRLO _0x95
                 ; 0000 013E                 {
                 ; 0000 013F                     if(fl1) { if(a3<128) a3 += 1;} else a3 = 1;
00174c 9bf0      	SBIS 0x1E,0
00174d c007      	RJMP _0x96
00174e 91a0 079e 	LDS  R26,_a3
001750 38a0      	CPI  R26,LOW(0x80)
001751 f410      	BRSH _0x97
001752 940e 25f0 	CALL SUBOPT_0x1F
                 _0x97:
001754 c003      	RJMP _0x98
                 _0x96:
001755 e0e1      	LDI  R30,LOW(1)
001756 93e0 079e 	STS  _a3,R30
                 ; 0000 0140                     fl1 = 1;
                 _0x98:
001758 9af0      	SBI  0x1E,0
                 ; 0000 0141                     if (OCR0B == 0)
001759 b5e8      	IN   R30,0x28
00175a 30e0      	CPI  R30,0
00175b f471      	BRNE _0x9B
                 ; 0000 0142                     {
                 ; 0000 0143                         if(OCR0A > 64) OCR0A = 64;
00175c b5e7      	IN   R30,0x27
00175d 34e1      	CPI  R30,LOW(0x41)
00175e f010      	BRLO _0x9C
00175f e4e0      	LDI  R30,LOW(64)
001760 bde7      	OUT  0x27,R30
                 ; 0000 0144                         if((unsigned char)OCR0A > a3) OCR0A = OCR0A - a3; else OCR0A=0x00;
                 _0x9C:
001761 940e 25f6 	CALL SUBOPT_0x20
001763 f418      	BRSH _0x9D
001764 940e 25fc 	CALL SUBOPT_0x21
001766 c001      	RJMP _0x27B
                 _0x9D:
001767 e0e0      	LDI  R30,LOW(0)
                 _0x27B:
001768 bde7      	OUT  0x27,R30
                 ; 0000 0145                     }
                 ; 0000 0146                     else
001769 c008      	RJMP _0x9F
                 _0x9B:
                 ; 0000 0147                     {  if((unsigned char)OCR0B > a3) OCR0B = OCR0B - a3;
00176a 940e 2601 	CALL SUBOPT_0x22
00176c f418      	BRSH _0xA0
00176d 940e 2607 	CALL SUBOPT_0x23
                 ; 0000 0148                         else
00176f c002      	RJMP _0xA1
                 _0xA0:
                 ; 0000 0149                         {
                 ; 0000 014A                             OCR0B=0x00;
001770 940e 260d 	CALL SUBOPT_0x24
                 ; 0000 014B                             a3 = 1;
                 ; 0000 014C                         }
                 _0xA1:
                 ; 0000 014D                     }
                 _0x9F:
                 ; 0000 014E                 }
                 ; 0000 014F                 else
001772 c021      	RJMP _0xA2
                 _0x95:
                 ; 0000 0150                 {
                 ; 0000 0151                     if(fl1==0)  { if(a3<16) a3 *= 1;} else a3 = 1;
001773 99f0      	SBIC 0x1E,0
001774 c007      	RJMP _0xA3
001775 91a0 079e 	LDS  R26,_a3
001777 31a0      	CPI  R26,LOW(0x10)
001778 f410      	BRSH _0xA4
001779 940e 2613 	CALL SUBOPT_0x25
                 _0xA4:
00177b c003      	RJMP _0xA5
                 _0xA3:
00177c e0e1      	LDI  R30,LOW(1)
00177d 93e0 079e 	STS  _a3,R30
                 ; 0000 0152                     fl1 = 0;
                 _0xA5:
00177f 98f0      	CBI  0x1E,0
                 ; 0000 0153                     if (OCR0A == 0xFF)
001780 b5e7      	IN   R30,0x27
001781 3fef      	CPI  R30,LOW(0xFF)
001782 f449      	BRNE _0xA8
                 ; 0000 0154                     { if((unsigned char)OCR0B < (0x98 - a3)) OCR0B = OCR0B + a3; else OCR0B=0x98; }
001783 940e 2618 	CALL SUBOPT_0x26
001785 f41c      	BRGE _0xA9
001786 940e 2627 	CALL SUBOPT_0x27
001788 c001      	RJMP _0x27C
                 _0xA9:
001789 e9e8      	LDI  R30,LOW(152)
                 _0x27C:
00178a bde8      	OUT  0x28,R30
                 ; 0000 0155                     else
00178b c008      	RJMP _0xAB
                 _0xA8:
                 ; 0000 0156                     {   if(OCR0A < (0xFF - a3) & OCR0A < 64) OCR0A = OCR0A + a3;
00178c 940e 262c 	CALL SUBOPT_0x28
00178e f019      	BREQ _0xAC
00178f 940e 2642 	CALL SUBOPT_0x29
                 ; 0000 0157                         else
001791 c002      	RJMP _0xAD
                 _0xAC:
                 ; 0000 0158                         {
                 ; 0000 0159                             OCR0A=0xFF;
001792 940e 2648 	CALL SUBOPT_0x2A
                 ; 0000 015A                             a3 = 1;
                 ; 0000 015B                         }
                 _0xAD:
                 ; 0000 015C                     }
                 _0xAB:
                 ; 0000 015D                 }
                 _0xA2:
                 ; 0000 015E 
                 ; 0000 015F                 timer = timer - 130;
001794 940e 25cd 	CALL SUBOPT_0x1A
                +
001796 58e2     +SUBI R30 , LOW ( 130 )
001797 40f0     +SBCI R31 , HIGH ( 130 )
001798 4060     +SBCI R22 , BYTE3 ( 130 )
001799 4070     +SBCI R23 , BYTE4 ( 130 )
                 	__SUBD1N 130
00179a 940e 2656 	CALL SUBOPT_0x2C
                 ; 0000 0160             }
                 ; 0000 0161             if(a1 > 4)
                 _0x94:
00179c 91a0 079c 	LDS  R26,_a1
00179e 30a5      	CPI  R26,LOW(0x5)
00179f f048      	BRLO _0xAE
                 ; 0000 0162             {
                 ; 0000 0163             TCNT1H=0xE2;
0017a0 eee2      	LDI  R30,LOW(226)
0017a1 93e0 0085 	STS  133,R30
                 ; 0000 0164             TCNT1L=0xC4 ;
0017a3 ece4      	LDI  R30,LOW(196)
0017a4 93e0 0084 	STS  132,R30
                 ; 0000 0165             a1 = 0;
0017a6 e0e0      	LDI  R30,LOW(0)
0017a7 93e0 079c 	STS  _a1,R30
                 ; 0000 0166             }
                 ; 0000 0167         }
                 _0xAE:
                 _0x93:
                 ; 0000 0168       }
                 _0x91:
                 ; 0000 0169     }
                 ; 0000 016A     else
0017a9 c0e4      	RJMP _0xAF
                 _0x67:
                 ; 0000 016B     {
                 ; 0000 016C         // Reinitialize Timer1 value
                 ; 0000 016D         TCNT1H=0xFE;//80 >> 8;
0017aa efee      	LDI  R30,LOW(254)
0017ab 93e0 0085 	STS  133,R30
                 ; 0000 016E         TCNT1L=0x40;//0xFE80 & 0xff;
0017ad e4e0      	LDI  R30,LOW(64)
0017ae 93e0 0084 	STS  132,R30
                 ; 0000 016F             if(a1 < 254)
0017b0 91a0 079c 	LDS  R26,_a1
0017b2 3fae      	CPI  R26,LOW(0xFE)
0017b3 f530      	BRSH _0xB0
                 ; 0000 0170             {
                 ; 0000 0171                 if(a1 == 2)
0017b4 30a2      	CPI  R26,LOW(0x2)
0017b5 f4a9      	BRNE _0xB1
                 ; 0000 0172                 {
                 ; 0000 0173                     ADMUX = ADC_VREF_TYPE;
0017b6 ece0      	LDI  R30,LOW(192)
0017b7 93e0 007c 	STS  124,R30
                 ; 0000 0174                     // Delay needed for the stabilization of the ADC input voltage
                 ; 0000 0175                     delay_us(5);
                +
0017b9 e18b     +LDI R24 , LOW ( 27 )
                +__DELAY_USB_LOOP :
0017ba 958a     +DEC R24
0017bb f7f1     +BRNE __DELAY_USB_LOOP
                 	__DELAY_USB 27
                 ; 0000 0176                     // Start the AD conversion
                 ; 0000 0177                     ADCSRA|=(1<<ADSC);
0017bc 91e0 007a 	LDS  R30,122
0017be 64e0      	ORI  R30,0x40
0017bf 93e0 007a 	STS  122,R30
                 ; 0000 0178                     // Wait for the AD conversion to complete
                 ; 0000 0179                     while ((ADCSRA & (1<<ADIF))==0);
                 _0xB2:
0017c1 91e0 007a 	LDS  R30,122
0017c3 71e0      	ANDI R30,LOW(0x10)
0017c4 f3e1      	BREQ _0xB2
                 ; 0000 017A                     ADCSRA|=(1<<ADIF);
0017c5 940e 25aa 	CALL SUBOPT_0x16
                 ; 0000 017B                     tok = ADCW;
0017c7 93e0 078e 	STS  _tok,R30
0017c9 93f0 078f 	STS  _tok+1,R31
                 ; 0000 017C                 }
                 ; 0000 017D                 OCR2A = signal[rezh0][a1++];       //8 ms
                 _0xB1:
0017cb 91f0 079f 	LDS  R31,_rezh0
0017cd e0e0      	LDI  R30,LOW(0)
0017ce 59e8      	SUBI R30,LOW(-_signal*2)
0017cf 4ffa      	SBCI R31,HIGH(-_signal*2)
0017d0 01df      	MOVW R26,R30
0017d1 940e 25bd 	CALL SUBOPT_0x18
0017d3 e0f0      	LDI  R31,0
0017d4 0fea      	ADD  R30,R26
0017d5 1ffb      	ADC  R31,R27
0017d6 91e4      	LPM  R30,Z
0017d7 93e0 00b3 	STS  179,R30
                 ; 0000 017E             }
                 ; 0000 017F             else
0017d9 c0b4      	RJMP _0xB5
                 _0xB0:
                 ; 0000 0180             {
                 ; 0000 0181                 if(a1 == 254)
0017da 91a0 079c 	LDS  R26,_a1
0017dc 3fae      	CPI  R26,LOW(0xFE)
0017dd f4a1      	BRNE _0xB6
                 ; 0000 0182                 {
                 ; 0000 0183                     TCNT1H=0x4B;
0017de e4eb      	LDI  R30,LOW(75)
0017df 93e0 0085 	STS  133,R30
                 ; 0000 0184                     TCNT1L=0x80;
0017e1 e8e0      	LDI  R30,LOW(128)
0017e2 93e0 0084 	STS  132,R30
                 ; 0000 0185                     OCR2A = signal[rezh0][254];
0017e4 91f0 079f 	LDS  R31,_rezh0
0017e6 e0e0      	LDI  R30,LOW(0)
0017e7 59e8      	SUBI R30,LOW(-_signal*2)
0017e8 4ffa      	SBCI R31,HIGH(-_signal*2)
0017e9 50e2      	SUBI R30,LOW(-254)
0017ea 4fff      	SBCI R31,HIGH(-254)
0017eb 91e4      	LPM  R30,Z
0017ec 93e0 00b3 	STS  179,R30
                 ; 0000 0186                     a1++;
0017ee 91e0 079c 	LDS  R30,_a1
0017f0 5fef      	SUBI R30,-LOW(1)
0017f1 c09a      	RJMP _0x27D
                 ; 0000 0187                 }
                 ; 0000 0188                 else
                 _0xB6:
                 ; 0000 0189                 {
                 ; 0000 018A 
                 ; 0000 018B                     if(fl2) period -=  mod; else period +=  mod;
0017f2 9bf1      	SBIS 0x1E,1
0017f3 c009      	RJMP _0xB8
0017f4 91a0 0796 	LDS  R26,_mod
0017f6 91b0 0797 	LDS  R27,_mod+1
0017f8 940e 25db 	CALL SUBOPT_0x1C
0017fa 1bea      	SUB  R30,R26
0017fb 0bfb      	SBC  R31,R27
0017fc c008      	RJMP _0x27E
                 _0xB8:
0017fd 91e0 0796 	LDS  R30,_mod
0017ff 91f0 0797 	LDS  R31,_mod+1
001801 940e 25e0 	CALL SUBOPT_0x1D
001803 0fea      	ADD  R30,R26
001804 1ffb      	ADC  R31,R27
                 _0x27E:
001805 93e0 0792 	STS  _period,R30
001807 93f0 0793 	STS  _period+1,R31
                 ; 0000 018C                     if (period > 60000) fl2 = 1;
001809 940e 25e0 	CALL SUBOPT_0x1D
00180b 36a1      	CPI  R26,LOW(0xEA61)
00180c eeea      	LDI  R30,HIGH(0xEA61)
00180d 07be      	CPC  R27,R30
00180e f008      	BRLO _0xBA
00180f 9af1      	SBI  0x1E,1
                 ; 0000 018D                     if (period < 5000) fl2 = 0;
                 _0xBA:
001810 940e 25e0 	CALL SUBOPT_0x1D
001812 38a8      	CPI  R26,LOW(0x1388)
001813 e1e3      	LDI  R30,HIGH(0x1388)
001814 07be      	CPC  R27,R30
001815 f408      	BRSH _0xBD
001816 98f1      	CBI  0x1E,1
                 ; 0000 018E                     TCNT1H=period >> 8;
                 _0xBD:
001817 940e 25b4 	CALL SUBOPT_0x17
                 ; 0000 018F                     TCNT1L=period & 0xff;
                 ; 0000 0190                     timer = timer - 111 - (60000-period)/1618;
001819 940e 25cd 	CALL SUBOPT_0x1A
                +
00181b 56ef     +SUBI R30 , LOW ( 111 )
00181c 40f0     +SBCI R31 , HIGH ( 111 )
00181d 4060     +SBCI R22 , BYTE3 ( 111 )
00181e 4070     +SBCI R23 , BYTE4 ( 111 )
                 	__SUBD1N 111
00181f 937f      	PUSH R23
001820 936f      	PUSH R22
001821 93ff      	PUSH R31
001822 93ef      	PUSH R30
001823 940e 25e0 	CALL SUBOPT_0x1D
001825 e6e0      	LDI  R30,LOW(60000)
001826 eefa      	LDI  R31,HIGH(60000)
001827 1bea      	SUB  R30,R26
001828 0bfb      	SBC  R31,R27
001829 01df      	MOVW R26,R30
00182a e5e2      	LDI  R30,LOW(1618)
00182b e0f6      	LDI  R31,HIGH(1618)
00182c 940e 2954 	CALL __DIVW21U
00182e 91af      	POP  R26
00182f 91bf      	POP  R27
001830 918f      	POP  R24
001831 919f      	POP  R25
001832 2766      	CLR  R22
001833 2777      	CLR  R23
001834 940e 28f0 	CALL __SUBD21
001836 93a0 07a1 	STS  _timer,R26
001838 93b0 07a2 	STS  _timer+1,R27
00183a 9380 07a3 	STS  _timer+2,R24
00183c 9390 07a4 	STS  _timer+3,R25
                 ; 0000 0191                     if (tok >= tok0)
00183e 940e 25e5 	CALL SUBOPT_0x1E
001840 f138      	BRLO _0xC0
                 ; 0000 0192                     {
                 ; 0000 0193                         if(fl1) { if(a3<128) a3 += 1;} else a3 = 1;
001841 9bf0      	SBIS 0x1E,0
001842 c007      	RJMP _0xC1
001843 91a0 079e 	LDS  R26,_a3
001845 38a0      	CPI  R26,LOW(0x80)
001846 f410      	BRSH _0xC2
001847 940e 25f0 	CALL SUBOPT_0x1F
                 _0xC2:
001849 c003      	RJMP _0xC3
                 _0xC1:
00184a e0e1      	LDI  R30,LOW(1)
00184b 93e0 079e 	STS  _a3,R30
                 ; 0000 0194                         fl1 = 1;
                 _0xC3:
00184d 9af0      	SBI  0x1E,0
                 ; 0000 0195                         if (OCR0B == 0)
00184e b5e8      	IN   R30,0x28
00184f 30e0      	CPI  R30,0
001850 f471      	BRNE _0xC6
                 ; 0000 0196                         {
                 ; 0000 0197                             if(OCR0A > 64) OCR0A = 64;
001851 b5e7      	IN   R30,0x27
001852 34e1      	CPI  R30,LOW(0x41)
001853 f010      	BRLO _0xC7
001854 e4e0      	LDI  R30,LOW(64)
001855 bde7      	OUT  0x27,R30
                 ; 0000 0198                             if((unsigned char)OCR0A > a3) OCR0A = OCR0A - a3; else OCR0A=0x00;
                 _0xC7:
001856 940e 25f6 	CALL SUBOPT_0x20
001858 f418      	BRSH _0xC8
001859 940e 25fc 	CALL SUBOPT_0x21
00185b c001      	RJMP _0x27F
                 _0xC8:
00185c e0e0      	LDI  R30,LOW(0)
                 _0x27F:
00185d bde7      	OUT  0x27,R30
                 ; 0000 0199                         }
                 ; 0000 019A                         else
00185e c008      	RJMP _0xCA
                 _0xC6:
                 ; 0000 019B                         {  if((unsigned char)OCR0B > a3) OCR0B = OCR0B - a3;
00185f 940e 2601 	CALL SUBOPT_0x22
001861 f418      	BRSH _0xCB
001862 940e 2607 	CALL SUBOPT_0x23
                 ; 0000 019C                             else
001864 c002      	RJMP _0xCC
                 _0xCB:
                 ; 0000 019D                             {
                 ; 0000 019E                                 OCR0B=0x00;
001865 940e 260d 	CALL SUBOPT_0x24
                 ; 0000 019F                                 a3 = 1;
                 ; 0000 01A0                             }
                 _0xCC:
                 ; 0000 01A1                         }
                 _0xCA:
                 ; 0000 01A2                     }
                 ; 0000 01A3                     else
001867 c021      	RJMP _0xCD
                 _0xC0:
                 ; 0000 01A4                     {
                 ; 0000 01A5                         if(fl1==0)  { if(a3<16) a3 *= 1;} else a3 = 1;
001868 99f0      	SBIC 0x1E,0
001869 c007      	RJMP _0xCE
00186a 91a0 079e 	LDS  R26,_a3
00186c 31a0      	CPI  R26,LOW(0x10)
00186d f410      	BRSH _0xCF
00186e 940e 2613 	CALL SUBOPT_0x25
                 _0xCF:
001870 c003      	RJMP _0xD0
                 _0xCE:
001871 e0e1      	LDI  R30,LOW(1)
001872 93e0 079e 	STS  _a3,R30
                 ; 0000 01A6                         fl1 = 0;
                 _0xD0:
001874 98f0      	CBI  0x1E,0
                 ; 0000 01A7                         if (OCR0A == 0xFF)
001875 b5e7      	IN   R30,0x27
001876 3fef      	CPI  R30,LOW(0xFF)
001877 f449      	BRNE _0xD3
                 ; 0000 01A8                         { if((unsigned char)OCR0B < (0x98 - a3)) OCR0B = OCR0B + a3; else OCR0B=0x98; }
001878 940e 2618 	CALL SUBOPT_0x26
00187a f41c      	BRGE _0xD4
00187b 940e 2627 	CALL SUBOPT_0x27
00187d c001      	RJMP _0x280
                 _0xD4:
00187e e9e8      	LDI  R30,LOW(152)
                 _0x280:
00187f bde8      	OUT  0x28,R30
                 ; 0000 01A9                         else
001880 c008      	RJMP _0xD6
                 _0xD3:
                 ; 0000 01AA                         {   if(OCR0A < (0xFF - a3) & OCR0A < 64) OCR0A = OCR0A + a3;
001881 940e 262c 	CALL SUBOPT_0x28
001883 f019      	BREQ _0xD7
001884 940e 2642 	CALL SUBOPT_0x29
                 ; 0000 01AB                             else
001886 c002      	RJMP _0xD8
                 _0xD7:
                 ; 0000 01AC                             {
                 ; 0000 01AD                                 OCR0A=0xFF;
001887 940e 2648 	CALL SUBOPT_0x2A
                 ; 0000 01AE                                 a3 = 1;
                 ; 0000 01AF                             }
                 _0xD8:
                 ; 0000 01B0                         }
                 _0xD6:
                 ; 0000 01B1                     }
                 _0xCD:
                 ; 0000 01B2 
                 ; 0000 01B3                     a2 = 0;
001889 e0e0      	LDI  R30,LOW(0)
00188a 93e0 079d 	STS  _a2,R30
                 ; 0000 01B4                     a1 = 0;
                 _0x27D:
00188c 93e0 079c 	STS  _a1,R30
                 ; 0000 01B5 
                 ; 0000 01B6                 }
                 ; 0000 01B7             }
                 _0xB5:
                 ; 0000 01B8 
                 ; 0000 01B9     }
                 _0xAF:
                 ; 0000 01BA }
00188e 91e9      	LD   R30,Y+
00188f bfef      	OUT  SREG,R30
001890 91f9      	LD   R31,Y+
001891 91e9      	LD   R30,Y+
001892 91b9      	LD   R27,Y+
001893 91a9      	LD   R26,Y+
001894 9199      	LD   R25,Y+
001895 9189      	LD   R24,Y+
001896 9179      	LD   R23,Y+
001897 9169      	LD   R22,Y+
001898 90f9      	LD   R15,Y+
001899 9019      	LD   R1,Y+
00189a 9009      	LD   R0,Y+
00189b 9518      	RETI
                 ; .FEND
                 ;
                 ;
                 ;// Timer2 overflow interrupt service routine
                 ;interrupt [TIM2_OVF] void timer2_ovf_isr(void)
                 ; 0000 01BF {
                 _timer2_ovf_isr:
                 ; .FSTART _timer2_ovf_isr
00189c 93ea      	ST   -Y,R30
00189d b7ef      	IN   R30,SREG
00189e 93ea      	ST   -Y,R30
                 ; 0000 01C0 // Place your code here
                 ; 0000 01C1 if (fl5) OCR2B = ++l; else OCR2B = --l;
00189f 9bf4      	SBIS 0x1E,4
0018a0 c004      	RJMP _0xD9
0018a1 91e0 078d 	LDS  R30,_l
0018a3 5fef      	SUBI R30,-LOW(1)
0018a4 c003      	RJMP _0x281
                 _0xD9:
0018a5 91e0 078d 	LDS  R30,_l
0018a7 50e1      	SUBI R30,LOW(1)
                 _0x281:
0018a8 93e0 078d 	STS  _l,R30
0018aa 93e0 00b4 	STS  180,R30
                 ; 0000 01C2 if (l == 0) fl5 = !fl5;
0018ac 91e0 078d 	LDS  R30,_l
0018ae 30e0      	CPI  R30,0
0018af f429      	BRNE _0xDB
0018b0 9bf4      	SBIS 0x1E,4
0018b1 c002      	RJMP _0xDC
0018b2 98f4      	CBI  0x1E,4
0018b3 c001      	RJMP _0xDD
                 _0xDC:
0018b4 9af4      	SBI  0x1E,4
                 _0xDD:
                 ; 0000 01C3 }
                 _0xDB:
0018b5 91e9      	LD   R30,Y+
0018b6 bfef      	OUT  SREG,R30
0018b7 91e9      	LD   R30,Y+
0018b8 9518      	RETI
                 ; .FEND
                 ;
                 ;
                 ;void ZnachZ(int x, int y, int zn, int zoom)
                 ; 0000 01C7 {
                 _ZnachZ:
                 ; .FSTART _ZnachZ
                 ; 0000 01C8   int a,b;
                 ; 0000 01C9 
                 ; 0000 01CA     if(zn<10)
0018b9 940e 25a5 	CALL SUBOPT_0x15
                 ;	x -> Y+10
                 ;	y -> Y+8
                 ;	zn -> Y+6
                 ;	zoom -> Y+4
                 ;	a -> R16,R17
                 ;	b -> R18,R19
0018bb 81ae      	LDD  R26,Y+6
0018bc 81bf      	LDD  R27,Y+6+1
0018bd 971a      	SBIW R26,10
0018be f464      	BRGE _0xDE
                 ; 0000 01CB     {
                 ; 0000 01CC         drawCharZo(x,y,'0',1, zoom);
0018bf 940e 2519 	CALL SUBOPT_0x5
0018c1 940e 2519 	CALL SUBOPT_0x5
0018c3 940e 265f 	CALL SUBOPT_0x2D
                 ; 0000 01CD         drawCharZo(x+12*zoom,y,'0',1, zoom);
0018c5 940e 266c 	CALL SUBOPT_0x2E
0018c7 940e 2671 	CALL SUBOPT_0x2F
0018c9 e3e0      	LDI  R30,LOW(48)
0018ca c01b      	RJMP _0x282
                 ; 0000 01CE         drawCharZo(x+18*zoom,y,0x30+zn,1, zoom);
                 ; 0000 01CF     }
                 ; 0000 01D0     else
                 _0xDE:
                 ; 0000 01D1     if(zn<100)
0018cb 81ae      	LDD  R26,Y+6
0018cc 81bf      	LDD  R27,Y+6+1
0018cd 36a4      	CPI  R26,LOW(0x64)
0018ce e0e0      	LDI  R30,HIGH(0x64)
0018cf 07be      	CPC  R27,R30
0018d0 f434      	BRGE _0xE0
                 ; 0000 01D2     {
                 ; 0000 01D3         a = zn/10;
0018d1 940e 2674 	CALL SUBOPT_0x30
                 ; 0000 01D4         zn = zn - a*10;
                 ; 0000 01D5         drawCharZo(x,y,'0',1, zoom);
0018d3 940e 2519 	CALL SUBOPT_0x5
0018d5 e3e0      	LDI  R30,LOW(48)
0018d6 c006      	RJMP _0x283
                 ; 0000 01D6         drawCharZo(x+12*zoom,y,0x30+a,1, zoom);
                 ; 0000 01D7         drawCharZo(x+18*zoom,y,0x30+zn,1, zoom);
                 ; 0000 01D8     }
                 ; 0000 01D9     else
                 _0xE0:
                 ; 0000 01DA     {   b = zn/100;
0018d7 940e 2686 	CALL SUBOPT_0x31
                 ; 0000 01DB         a = (zn - b*100)/10;
                 ; 0000 01DC         zn = zn - b*100 - a*10;
                 ; 0000 01DD         drawCharZo(x,y,0x30+b,1, zoom);
0018d9 940e 2519 	CALL SUBOPT_0x5
0018db 2fe2      	MOV  R30,R18
0018dc 5de0      	SUBI R30,-LOW(48)
                 _0x283:
0018dd 93ea      	ST   -Y,R30
0018de 940e 26af 	CALL SUBOPT_0x32
                 ; 0000 01DE         drawCharZo(x+12*zoom,y,0x30+a,1, zoom);
0018e0 940e 266c 	CALL SUBOPT_0x2E
0018e2 940e 2671 	CALL SUBOPT_0x2F
0018e4 2fe0      	MOV  R30,R16
0018e5 5de0      	SUBI R30,-LOW(48)
                 _0x282:
0018e6 93ea      	ST   -Y,R30
0018e7 940e 26af 	CALL SUBOPT_0x32
                 ; 0000 01DF         drawCharZo(x+18*zoom,y,0x30+zn,1, zoom);
0018e9 940e 26ba 	CALL SUBOPT_0x33
0018eb 940e 2671 	CALL SUBOPT_0x2F
0018ed 940e 26bf 	CALL SUBOPT_0x34
                 ; 0000 01E0 
                 ; 0000 01E1     }
                 ; 0000 01E2     drawCharZo(x+6*zoom,y,'.',1, zoom);
0018ef 81ec      	LDD  R30,Y+4
0018f0 81fd      	LDD  R31,Y+4+1
0018f1 940e 258c 	CALL SUBOPT_0x11
0018f3 940e 2514 	CALL SUBOPT_0x4
0018f5 940e 2671 	CALL SUBOPT_0x2F
0018f7 e2ee      	LDI  R30,LOW(46)
0018f8 940e 26ca 	CALL SUBOPT_0x35
                 ; 0000 01E3 }
0018fa c09f      	RJMP _0x2060003
                 ; .FEND
                 ;
                 ;void ZnachZo(int x, int y, int zn, int zoom)
                 ; 0000 01E6 {
                 _ZnachZo:
                 ; .FSTART _ZnachZo
                 ; 0000 01E7    int a,b;
                 ; 0000 01E8     if(zn<10)
0018fb 940e 25a5 	CALL SUBOPT_0x15
                 ;	x -> Y+10
                 ;	y -> Y+8
                 ;	zn -> Y+6
                 ;	zoom -> Y+4
                 ;	a -> R16,R17
                 ;	b -> R18,R19
0018fd 81ae      	LDD  R26,Y+6
0018fe 81bf      	LDD  R27,Y+6+1
0018ff 971a      	SBIW R26,10
001900 f474      	BRGE _0xE2
                 ; 0000 01E9     {
                 ; 0000 01EA         drawCharZo(x,y,'0',1, zoom);
001901 940e 2519 	CALL SUBOPT_0x5
001903 940e 2519 	CALL SUBOPT_0x5
001905 940e 265f 	CALL SUBOPT_0x2D
                 ; 0000 01EB         drawCharZo(x+6*zoom,y,'0',1, zoom);
001907 940e 258c 	CALL SUBOPT_0x11
001909 940e 2514 	CALL SUBOPT_0x4
00190b 940e 2671 	CALL SUBOPT_0x2F
00190d e3e0      	LDI  R30,LOW(48)
00190e c01d      	RJMP _0x284
                 ; 0000 01EC         drawCharZo(x+12*zoom,y,0x30+zn,1, zoom);
                 ; 0000 01ED     }
                 ; 0000 01EE     else
                 _0xE2:
                 ; 0000 01EF     if(zn<100)
00190f 81ae      	LDD  R26,Y+6
001910 81bf      	LDD  R27,Y+6+1
001911 36a4      	CPI  R26,LOW(0x64)
001912 e0e0      	LDI  R30,HIGH(0x64)
001913 07be      	CPC  R27,R30
001914 f434      	BRGE _0xE4
                 ; 0000 01F0     {
                 ; 0000 01F1         a = zn/10;
001915 940e 2674 	CALL SUBOPT_0x30
                 ; 0000 01F2         zn = zn - a*10;
                 ; 0000 01F3         drawCharZo(x,y,'0',1, zoom);
001917 940e 2519 	CALL SUBOPT_0x5
001919 e3e0      	LDI  R30,LOW(48)
00191a c006      	RJMP _0x285
                 ; 0000 01F4         drawCharZo(x+6*zoom,y,0x30+a,1, zoom);
                 ; 0000 01F5         drawCharZo(x+12*zoom,y,0x30+zn,1, zoom);
                 ; 0000 01F6     }
                 ; 0000 01F7     else
                 _0xE4:
                 ; 0000 01F8     {   b = zn/100;
00191b 940e 2686 	CALL SUBOPT_0x31
                 ; 0000 01F9         a = (zn - b*100)/10;
                 ; 0000 01FA         zn = zn - b*100 - a*10;
                 ; 0000 01FB         drawCharZo(x,y,0x30+b,1, zoom);
00191d 940e 2519 	CALL SUBOPT_0x5
00191f 2fe2      	MOV  R30,R18
001920 5de0      	SUBI R30,-LOW(48)
                 _0x285:
001921 93ea      	ST   -Y,R30
001922 940e 26af 	CALL SUBOPT_0x32
                 ; 0000 01FC         drawCharZo(x+6*zoom,y,0x30+a,1, zoom);
001924 940e 258c 	CALL SUBOPT_0x11
001926 940e 2514 	CALL SUBOPT_0x4
001928 940e 2671 	CALL SUBOPT_0x2F
00192a 2fe0      	MOV  R30,R16
00192b 5de0      	SUBI R30,-LOW(48)
                 _0x284:
00192c 93ea      	ST   -Y,R30
00192d 940e 26af 	CALL SUBOPT_0x32
                 ; 0000 01FD         drawCharZo(x+12*zoom,y,0x30+zn,1, zoom);
00192f 940e 266c 	CALL SUBOPT_0x2E
001931 940e 2671 	CALL SUBOPT_0x2F
001933 940e 26bf 	CALL SUBOPT_0x34
                 ; 0000 01FE 
                 ; 0000 01FF     }
                 ; 0000 0200 }
001935 c064      	RJMP _0x2060003
                 ; .FEND
                 ;
                 ;
                 ;void timeZ(int x, int y, int sec, int zoom)
                 ; 0000 0204 {
                 _timeZ:
                 ; .FSTART _timeZ
                 ; 0000 0205 int min,a;
                 ; 0000 0206     min = sec / 60;
001936 940e 25a5 	CALL SUBOPT_0x15
                 ;	x -> Y+10
                 ;	y -> Y+8
                 ;	sec -> Y+6
                 ;	zoom -> Y+4
                 ;	min -> R16,R17
                 ;	a -> R18,R19
001938 81ae      	LDD  R26,Y+6
001939 81bf      	LDD  R27,Y+6+1
00193a e3ec      	LDI  R30,LOW(60)
00193b e0f0      	LDI  R31,HIGH(60)
00193c 940e 2967 	CALL __DIVW21
00193e 018f      	MOVW R16,R30
                 ; 0000 0207     sec -=  min * 60;
00193f e3ac      	LDI  R26,LOW(60)
001940 e0b0      	LDI  R27,HIGH(60)
001941 940e 26d3 	CALL SUBOPT_0x36
                 ; 0000 0208     if(min<10)
                +
001943 300a     +CPI R16 , LOW ( 10 )
001944 e0e0     +LDI R30 , HIGH ( 10 )
001945 071e     +CPC R17 , R30
                 	__CPWRN 16,17,10
001946 f434      	BRGE _0xE6
                 ; 0000 0209     {
                 ; 0000 020A         drawCharZo(x,y,'0',1, zoom);
001947 940e 2519 	CALL SUBOPT_0x5
001949 940e 2519 	CALL SUBOPT_0x5
00194b e3e0      	LDI  R30,LOW(48)
00194c c00d      	RJMP _0x286
                 ; 0000 020B         drawCharZo(x+6*zoom,y,0x30+min,1, zoom);
                 ; 0000 020C     }
                 ; 0000 020D     else
                 _0xE6:
                 ; 0000 020E     {
                 ; 0000 020F         a = min/10;
00194d 01d8      	MOVW R26,R16
00194e 940e 26dc 	CALL SUBOPT_0x37
                 ; 0000 0210         min -= a*10;
001950 940e 294f 	CALL __MULW12
                +
001952 1b0e     +SUB R16 , R30
001953 0b1f     +SBC R17 , R31
                 	__SUBWRR 16,17,30,31
                 ; 0000 0211         drawCharZo(x,y,0x30+a,1, zoom);
001954 940e 2519 	CALL SUBOPT_0x5
001956 940e 2519 	CALL SUBOPT_0x5
001958 2fe2      	MOV  R30,R18
001959 5de0      	SUBI R30,-LOW(48)
                 _0x286:
00195a 93ea      	ST   -Y,R30
00195b 940e 26af 	CALL SUBOPT_0x32
                 ; 0000 0212         drawCharZo(x+6*zoom,y,0x30+min,1, zoom);
00195d 940e 258c 	CALL SUBOPT_0x11
00195f 940e 2514 	CALL SUBOPT_0x4
001961 940e 2671 	CALL SUBOPT_0x2F
001963 2fe0      	MOV  R30,R16
001964 5de0      	SUBI R30,-LOW(48)
001965 940e 26ca 	CALL SUBOPT_0x35
                 ; 0000 0213     }
                 ; 0000 0214     drawCharZ(x+12*zoom,y,':',1, zoom);
001967 81ec      	LDD  R30,Y+4
001968 81fd      	LDD  R31,Y+4+1
001969 940e 266c 	CALL SUBOPT_0x2E
00196b 940e 2671 	CALL SUBOPT_0x2F
00196d e3ea      	LDI  R30,LOW(58)
00196e 940e 26e4 	CALL SUBOPT_0x38
001970 85ab      	LDD  R26,Y+11
001971 85bc      	LDD  R27,Y+11+1
001972 db5a      	RCALL _drawCharZ
                 ; 0000 0215     if(sec<10)
001973 81ae      	LDD  R26,Y+6
001974 81bf      	LDD  R27,Y+6+1
001975 971a      	SBIW R26,10
001976 f444      	BRGE _0xE8
                 ; 0000 0216     {
                 ; 0000 0217         drawCharZo(x+18*zoom,y,'0',1, zoom);
001977 81ec      	LDD  R30,Y+4
001978 81fd      	LDD  R31,Y+4+1
001979 940e 26ba 	CALL SUBOPT_0x33
00197b 940e 2671 	CALL SUBOPT_0x2F
00197d e3e0      	LDI  R30,LOW(48)
00197e c00e      	RJMP _0x287
                 ; 0000 0218         drawCharZo(x+24*zoom,y,0x30+sec,1, zoom);
                 ; 0000 0219     }
                 ; 0000 021A     else
                 _0xE8:
                 ; 0000 021B     {
                 ; 0000 021C         a = sec/10;
00197f 81ae      	LDD  R26,Y+6
001980 81bf      	LDD  R27,Y+6+1
001981 940e 26dc 	CALL SUBOPT_0x37
                 ; 0000 021D         sec -= a*10;
001983 940e 26d3 	CALL SUBOPT_0x36
                 ; 0000 021E         drawCharZo(x+18*zoom,y,0x30+a,1, zoom);
001985 81ec      	LDD  R30,Y+4
001986 81fd      	LDD  R31,Y+4+1
001987 940e 26ba 	CALL SUBOPT_0x33
001989 940e 2671 	CALL SUBOPT_0x2F
00198b 2fe2      	MOV  R30,R18
00198c 5de0      	SUBI R30,-LOW(48)
                 _0x287:
00198d 93ea      	ST   -Y,R30
00198e 940e 26af 	CALL SUBOPT_0x32
                 ; 0000 021F         drawCharZo(x+24*zoom,y,0x30+sec,1, zoom);
001990 e1a8      	LDI  R26,LOW(24)
001991 e0b0      	LDI  R27,HIGH(24)
001992 940e 294f 	CALL __MULW12
001994 940e 2514 	CALL SUBOPT_0x4
001996 940e 2671 	CALL SUBOPT_0x2F
001998 940e 26bf 	CALL SUBOPT_0x34
                 ; 0000 0220     }
                 ; 0000 0221 
                 ; 0000 0222 }
                 _0x2060003:
00199a 940e 2a02 	CALL __LOADLOCR4
00199c 962c      	ADIW R28,12
00199d 9508      	RET
                 ; .FEND
                 ;
                 ;
                 ;
                 ;int vibor(void)
                 ; 0000 0227 {
                 _vibor:
                 ; .FSTART _vibor
                 ; 0000 0228 flag0 = 1;
00199e 9af7      	SBI  0x1E,7
                 ; 0000 0229 j=-2;
00199f efee      	LDI  R30,LOW(65534)
0019a0 efff      	LDI  R31,HIGH(65534)
                +
0019a1 2e5e     +MOV R5 , R30
0019a2 2e6f     +MOV R6 , R31
                 	__PUTW1R 5,6
                 ; 0000 022A   while (flag0)
                 _0xEC:
0019a3 9bf7      	SBIS 0x1E,7
0019a4 c171      	RJMP _0xEE
                 ; 0000 022B   {
                 ; 0000 022C     timer=0;
0019a5 940e 26ea 	CALL SUBOPT_0x39
                 ; 0000 022D     if(!dob)
0019a7 9949      	SBIC 0x9,1
0019a8 c015      	RJMP _0xEF
                 ; 0000 022E     {
                 ; 0000 022F         delay_ms(200);
0019a9 940e 26f4 	CALL SUBOPT_0x3A
                 ; 0000 0230         while(!dob& timer++<100000);
                 _0xF0:
0019ab 940e 26f8 	CALL SUBOPT_0x3B
0019ad 940e 26fd 	CALL SUBOPT_0x3C
0019af f7d9      	BRNE _0xF0
                 ; 0000 0231          for(o=0;o<32;o++) { zvuk = 1 ; delay_us(200); zvuk = 0; delay_us(200); }
0019b0 24dd      	CLR  R13
0019b1 24ee      	CLR  R14
                 _0xF4:
0019b2 940e 2714 	CALL SUBOPT_0x3D
0019b4 f42c      	BRGE _0xF5
0019b5 940e 2719 	CALL SUBOPT_0x3E
0019b7 940e 2724 	CALL SUBOPT_0x3F
0019b9 cff8      	RJMP _0xF4
                 _0xF5:
                 ; 0000 0232         j++;
0019ba e0e1      	LDI  R30,LOW(1)
0019bb e0f0      	LDI  R31,HIGH(1)
                +
0019bc 0e5e     +ADD R5 , R30
0019bd 1e6f     +ADC R6 , R31
                 	__ADDWRR 5,6,30,31
                 ; 0000 0233     }
                 ; 0000 0234     if(!ubr)
                 _0xEF:
0019be 994a      	SBIC 0x9,2
0019bf c022      	RJMP _0xFA
                 ; 0000 0235     {
                 ; 0000 0236         delay_ms(200);
0019c0 940e 26f4 	CALL SUBOPT_0x3A
                 ; 0000 0237         while(!ubr & timer++<100000) ;
                 _0xFB:
0019c2 940e 2729 	CALL SUBOPT_0x40
0019c4 940e 26fd 	CALL SUBOPT_0x3C
0019c6 f7d9      	BRNE _0xFB
                 ; 0000 0238          for(o=0;o<32;o++) { zvuk = 1 ; delay_us(200); zvuk = 0; delay_us(200); }
0019c7 24dd      	CLR  R13
0019c8 24ee      	CLR  R14
                 _0xFF:
0019c9 940e 2714 	CALL SUBOPT_0x3D
0019cb f42c      	BRGE _0x100
0019cc 940e 2719 	CALL SUBOPT_0x3E
0019ce 940e 2724 	CALL SUBOPT_0x3F
0019d0 cff8      	RJMP _0xFF
                 _0x100:
                 ; 0000 0239         if (timer>=100000) flag0 = 0;
0019d1 940e 25c4 	CALL SUBOPT_0x19
                +
0019d3 3aa0     +CPI R26 , LOW ( 0x186A0 )
0019d4 e8e6     +LDI R30 , HIGH ( 0x186A0 )
0019d5 07be     +CPC R27 , R30
0019d6 e0e1     +LDI R30 , BYTE3 ( 0x186A0 )
0019d7 078e     +CPC R24 , R30
0019d8 e0e0     +LDI R30 , BYTE4 ( 0x186A0 )
0019d9 079e     +CPC R25 , R30
                 	__CPD2N 0x186A0
0019da f014      	BRLT _0x105
0019db 98f7      	CBI  0x1E,7
                 ; 0000 023A         else j--;
0019dc c005      	RJMP _0x108
                 _0x105:
                +
0019dd 2de5     +MOV R30 , R5
0019de 2df6     +MOV R31 , R6
                 	__GETW1R 5,6
0019df 9731      	SBIW R30,1
                +
0019e0 2e5e     +MOV R5 , R30
0019e1 2e6f     +MOV R6 , R31
                 	__PUTW1R 5,6
                 ; 0000 023B     }
                 _0x108:
                 ; 0000 023C     if(j > 42) j = -2;
                 _0xFA:
0019e2 e2ea      	LDI  R30,LOW(42)
0019e3 e0f0      	LDI  R31,HIGH(42)
0019e4 15e5      	CP   R30,R5
0019e5 05f6      	CPC  R31,R6
0019e6 f424      	BRGE _0x109
0019e7 efee      	LDI  R30,LOW(65534)
0019e8 efff      	LDI  R31,HIGH(65534)
                +
0019e9 2e5e     +MOV R5 , R30
0019ea 2e6f     +MOV R6 , R31
                 	__PUTW1R 5,6
                 ; 0000 023D     if(j<-2) j = 42;
                 _0x109:
0019eb efee      	LDI  R30,LOW(65534)
0019ec efff      	LDI  R31,HIGH(65534)
0019ed 165e      	CP   R5,R30
0019ee 066f      	CPC  R6,R31
0019ef f424      	BRGE _0x10A
0019f0 e2ea      	LDI  R30,LOW(42)
0019f1 e0f0      	LDI  R31,HIGH(42)
                +
0019f2 2e5e     +MOV R5 , R30
0019f3 2e6f     +MOV R6 , R31
                 	__PUTW1R 5,6
                 ; 0000 023E     clearDisplay();
                 _0x10A:
0019f4 d9bd      	RCALL _clearDisplay
                 ; 0000 023F     for(i = 0 ; i < 2 ; i++)
0019f5 2433      	CLR  R3
0019f6 2444      	CLR  R4
                 _0x10C:
0019f7 e0e2      	LDI  R30,LOW(2)
0019f8 e0f0      	LDI  R31,HIGH(2)
0019f9 163e      	CP   R3,R30
0019fa 064f      	CPC  R4,R31
0019fb f51c      	BRGE _0x10D
                 ; 0000 0240     {
                 ; 0000 0241         for (n = 0; n < 21; n++)
0019fc 2477      	CLR  R7
0019fd 2488      	CLR  R8
                 _0x10F:
0019fe e1e5      	LDI  R30,LOW(21)
0019ff e0f0      	LDI  R31,HIGH(21)
001a00 167e      	CP   R7,R30
001a01 068f      	CPC  R8,R31
001a02 f4cc      	BRGE _0x110
                 ; 0000 0242         {
                 ; 0000 0243            if((j+i) < 45 & (j+i) >= 0) drawChar(6*n,i,bolezni[j+i+ubr-dob][n]);
001a03 940e 272e 	CALL SUBOPT_0x41
001a05 940e 2733 	CALL SUBOPT_0x42
001a07 e0e0      	LDI  R30,LOW(0)
001a08 e0f0      	LDI  R31,HIGH(0)
001a09 940e 2921 	CALL __GEW12
001a0b 21e0      	AND  R30,R0
001a0c f061      	BREQ _0x111
001a0d 940e 2739 	CALL SUBOPT_0x43
001a0f 93fa      	ST   -Y,R31
001a10 93ea      	ST   -Y,R30
001a11 924a      	ST   -Y,R4
001a12 923a      	ST   -Y,R3
001a13 940e 272e 	CALL SUBOPT_0x41
001a15 940e 273c 	CALL SUBOPT_0x44
001a17 940e 2741 	CALL SUBOPT_0x45
                 ; 0000 0244         }
                 _0x111:
001a19 940e 2756 	CALL SUBOPT_0x46
001a1b cfe2      	RJMP _0x10F
                 _0x110:
                 ; 0000 0245     }
001a1c 940e 275b 	CALL SUBOPT_0x47
001a1e cfd8      	RJMP _0x10C
                 _0x10D:
                 ; 0000 0246     if(!dob | !ubr)   for (n = 0; n < 11; n++) if((j+i) < 45 & (j+i) >= 0) drawCharZ(12*n,16,bolezni[j+2+ ubr][n],1,2);
001a1f 940e 2760 	CALL SUBOPT_0x48
001a21 f141      	BREQ _0x112
001a22 2477      	CLR  R7
001a23 2488      	CLR  R8
                 _0x114:
001a24 e0eb      	LDI  R30,LOW(11)
001a25 e0f0      	LDI  R31,HIGH(11)
001a26 167e      	CP   R7,R30
001a27 068f      	CPC  R8,R31
001a28 f50c      	BRGE _0x115
001a29 940e 272e 	CALL SUBOPT_0x41
001a2b 940e 2733 	CALL SUBOPT_0x42
001a2d e0e0      	LDI  R30,LOW(0)
001a2e e0f0      	LDI  R31,HIGH(0)
001a2f 940e 2921 	CALL __GEW12
001a31 21e0      	AND  R30,R0
001a32 f0a1      	BREQ _0x116
001a33 940e 2768 	CALL SUBOPT_0x49
001a35 940e 276f 	CALL SUBOPT_0x4A
                +
001a37 2da5     +MOV R26 , R5
001a38 2db6     +MOV R27 , R6
                 	__GETW2R 5,6
001a39 9612      	ADIW R26,2
001a3a 940e 273c 	CALL SUBOPT_0x44
001a3c 0fea      	ADD  R30,R26
001a3d 1ffb      	ADC  R31,R27
001a3e 940e 2776 	CALL SUBOPT_0x4B
001a40 0de7      	ADD  R30,R7
001a41 1df8      	ADC  R31,R8
001a42 91e4      	LPM  R30,Z
001a43 940e 26e4 	CALL SUBOPT_0x38
001a45 940e 277d 	CALL SUBOPT_0x4C
                 ; 0000 0247     for(i = 4 ; i < 7 ; i++)
                 _0x116:
001a47 940e 2756 	CALL SUBOPT_0x46
001a49 cfda      	RJMP _0x114
                 _0x115:
                 _0x112:
001a4a e0e4      	LDI  R30,LOW(4)
001a4b e0f0      	LDI  R31,HIGH(4)
                +
001a4c 2e3e     +MOV R3 , R30
001a4d 2e4f     +MOV R4 , R31
                 	__PUTW1R 3,4
                 _0x118:
001a4e e0e7      	LDI  R30,LOW(7)
001a4f e0f0      	LDI  R31,HIGH(7)
001a50 163e      	CP   R3,R30
001a51 064f      	CPC  R4,R31
001a52 f50c      	BRGE _0x119
                 ; 0000 0248     {
                 ; 0000 0249         for (n = 0; n < 21; n++)
001a53 2477      	CLR  R7
001a54 2488      	CLR  R8
                 _0x11B:
001a55 e1e5      	LDI  R30,LOW(21)
001a56 e0f0      	LDI  R31,HIGH(21)
001a57 167e      	CP   R7,R30
001a58 068f      	CPC  R8,R31
001a59 f4bc      	BRGE _0x11C
                 ; 0000 024A         {
                 ; 0000 024B            if((j+i) < 45) drawChar(6*n,i,bolezni[j+i-1+ubr-dob][n]);
001a5a 940e 272e 	CALL SUBOPT_0x41
001a5c 979d      	SBIW R26,45
001a5d f484      	BRGE _0x11D
001a5e 940e 2739 	CALL SUBOPT_0x43
001a60 93fa      	ST   -Y,R31
001a61 93ea      	ST   -Y,R30
001a62 924a      	ST   -Y,R4
001a63 923a      	ST   -Y,R3
                +
001a64 2de3     +MOV R30 , R3
001a65 2df4     +MOV R31 , R4
                 	__GETW1R 3,4
001a66 0de5      	ADD  R30,R5
001a67 1df6      	ADC  R31,R6
001a68 9731      	SBIW R30,1
001a69 01df      	MOVW R26,R30
001a6a 940e 273c 	CALL SUBOPT_0x44
001a6c 940e 2741 	CALL SUBOPT_0x45
                 ; 0000 024C         }
                 _0x11D:
001a6e 940e 2756 	CALL SUBOPT_0x46
001a70 cfe4      	RJMP _0x11B
                 _0x11C:
                 ; 0000 024D     }
001a71 940e 275b 	CALL SUBOPT_0x47
001a73 cfda      	RJMP _0x118
                 _0x119:
                 ; 0000 024E     display(0,0,127,7);
001a74 940e 2781 	CALL SUBOPT_0x4D
001a76 940e 2781 	CALL SUBOPT_0x4D
001a78 940e 2786 	CALL SUBOPT_0x4E
001a7a 940e 278b 	CALL SUBOPT_0x4F
                 ; 0000 024F     for (i = 0 ; i < 102 ; i++)
001a7c 2433      	CLR  R3
001a7d 2444      	CLR  R4
                 _0x11F:
001a7e e6e6      	LDI  R30,LOW(102)
001a7f e0f0      	LDI  R31,HIGH(102)
001a80 163e      	CP   R3,R30
001a81 064f      	CPC  R4,R31
001a82 f00c      	BRLT PC+2
001a83 c091      	RJMP _0x120
                 ; 0000 0250     {
                 ; 0000 0251     //
                 ; 0000 0252         for(m = 12; m >= 0; m-=2)
001a84 e0ec      	LDI  R30,LOW(12)
001a85 e0f0      	LDI  R31,HIGH(12)
                +
001a86 2e9e     +MOV R9 , R30
001a87 2eaf     +MOV R10 , R31
                 	__PUTW1R 9,10
                 _0x122:
001a88 2400      	CLR  R0
001a89 1490      	CP   R9,R0
001a8a 04a0      	CPC  R10,R0
001a8b f40c      	BRGE PC+2
001a8c c085      	RJMP _0x123
                 ; 0000 0253         {
                 ; 0000 0254 //      //      delay_ms(10);
                 ; 0000 0255             for (n = 0; n < 10; n++)
001a8d 2477      	CLR  R7
001a8e 2488      	CLR  R8
                 _0x125:
001a8f e0ea      	LDI  R30,LOW(10)
001a90 e0f0      	LDI  R31,HIGH(10)
001a91 167e      	CP   R7,R30
001a92 068f      	CPC  R8,R31
001a93 f00c      	BRLT PC+2
001a94 c068      	RJMP _0x126
                 ; 0000 0256             {
                 ; 0000 0257         //               clearDisplay();
                 ; 0000 0258 //
                 ; 0000 0259                     if ((n+i)>9)  drawCharZo(m+12*n,16,bolezni[j+2][n+i-10],1,2);
                +
001a95 2da3     +MOV R26 , R3
001a96 2db4     +MOV R27 , R4
                 	__GETW2R 3,4
001a97 0da7      	ADD  R26,R7
001a98 1db8      	ADC  R27,R8
001a99 971a      	SBIW R26,10
001a9a f0d4      	BRLT _0x127
001a9b 940e 2768 	CALL SUBOPT_0x49
001a9d 0de9      	ADD  R30,R9
001a9e 1dfa      	ADC  R31,R10
001a9f 940e 276f 	CALL SUBOPT_0x4A
                +
001aa1 2de5     +MOV R30 , R5
001aa2 2df6     +MOV R31 , R6
                 	__GETW1R 5,6
001aa3 9632      	ADIW R30,2
001aa4 940e 2776 	CALL SUBOPT_0x4B
001aa6 01df      	MOVW R26,R30
                +
001aa7 2de3     +MOV R30 , R3
001aa8 2df4     +MOV R31 , R4
                 	__GETW1R 3,4
001aa9 0de7      	ADD  R30,R7
001aaa 1df8      	ADC  R31,R8
001aab 973a      	SBIW R30,10
001aac 0fea      	ADD  R30,R26
001aad 1ffb      	ADC  R31,R27
001aae 91e4      	LPM  R30,Z
001aaf 940e 26e4 	CALL SUBOPT_0x38
001ab1 e0a2      	LDI  R26,LOW(2)
001ab2 e0b0      	LDI  R27,0
001ab3 da69      	RCALL _drawCharZo
                 ; 0000 025A                     else  for(k = 0; k < 12; k++)
001ab4 c02c      	RJMP _0x128
                 _0x127:
001ab5 24bb      	CLR  R11
001ab6 24cc      	CLR  R12
                 _0x12A:
001ab7 e0ec      	LDI  R30,LOW(12)
001ab8 e0f0      	LDI  R31,HIGH(12)
001ab9 16be      	CP   R11,R30
001aba 06cf      	CPC  R12,R31
001abb f52c      	BRGE _0x12B
                 ; 0000 025B                     {
                 ; 0000 025C                         buffer[256+11-m+12*n+k] = buffer[256+12-m+12*n+k];
001abc e0eb      	LDI  R30,LOW(267)
001abd e0f1      	LDI  R31,HIGH(267)
001abe 940e 278f 	CALL SUBOPT_0x50
001ac0 940e 2793 	CALL SUBOPT_0x51
001ac2 01cf      	MOVW R24,R30
001ac3 e0ec      	LDI  R30,LOW(268)
001ac4 e0f1      	LDI  R31,HIGH(268)
001ac5 940e 278f 	CALL SUBOPT_0x50
001ac7 940e 2793 	CALL SUBOPT_0x51
001ac9 81e0      	LD   R30,Z
001aca 01dc      	MOVW R26,R24
001acb 93ec      	ST   X,R30
                 ; 0000 025D                         buffer[384+11-m+12*n+k] = buffer[384+12-m+12*n+k];
001acc e8eb      	LDI  R30,LOW(395)
001acd e0f1      	LDI  R31,HIGH(395)
001ace 940e 278f 	CALL SUBOPT_0x50
001ad0 940e 2793 	CALL SUBOPT_0x51
001ad2 01cf      	MOVW R24,R30
001ad3 e8ec      	LDI  R30,LOW(396)
001ad4 e0f1      	LDI  R31,HIGH(396)
001ad5 940e 278f 	CALL SUBOPT_0x50
001ad7 940e 2793 	CALL SUBOPT_0x51
001ad9 81e0      	LD   R30,Z
001ada 01dc      	MOVW R26,R24
001adb 93ec      	ST   X,R30
                 ; 0000 025E                     }
001adc e0e1      	LDI  R30,LOW(1)
001add e0f0      	LDI  R31,HIGH(1)
                +
001ade 0ebe     +ADD R11 , R30
001adf 1ecf     +ADC R12 , R31
                 	__ADDWRR 11,12,30,31
001ae0 cfd6      	RJMP _0x12A
                 _0x12B:
                 _0x128:
                 ; 0000 025F                     if(bolezni[j+2][i+n-11]=='.')
                +
001ae1 2de5     +MOV R30 , R5
001ae2 2df6     +MOV R31 , R6
                 	__GETW1R 5,6
001ae3 9632      	ADIW R30,2
001ae4 940e 2776 	CALL SUBOPT_0x4B
001ae6 01df      	MOVW R26,R30
                +
001ae7 2de7     +MOV R30 , R7
001ae8 2df8     +MOV R31 , R8
                 	__GETW1R 7,8
001ae9 0de3      	ADD  R30,R3
001aea 1df4      	ADC  R31,R4
001aeb 973b      	SBIW R30,11
001aec 0fea      	ADD  R30,R26
001aed 1ffb      	ADC  R31,R27
001aee 91a4      	LPM  R26,Z
001aef 32ae      	CPI  R26,LOW(0x2E)
001af0 f411      	BRNE _0x12C
                 ; 0000 0260                     {
                 ; 0000 0261                         i = 0; //else i = 102;// m = 0;
001af1 2433      	CLR  R3
001af2 2444      	CLR  R4
                 ; 0000 0262                     }
                 ; 0000 0263                     if (!dob | !ubr) i = 102;
                 _0x12C:
001af3 940e 2760 	CALL SUBOPT_0x48
001af5 f021      	BREQ _0x12D
001af6 e6e6      	LDI  R30,LOW(102)
001af7 e0f0      	LDI  R31,HIGH(102)
                +
001af8 2e3e     +MOV R3 , R30
001af9 2e4f     +MOV R4 , R31
                 	__PUTW1R 3,4
                 ; 0000 0264             }
                 _0x12D:
001afa 940e 2756 	CALL SUBOPT_0x46
001afc cf92      	RJMP _0x125
                 _0x126:
                 ; 0000 0265             if (dob & ubr) display(0,2,127,3);
001afd e0a0      	LDI  R26,0
001afe 9949      	SBIC 0x9,1
001aff e0a1      	LDI  R26,1
001b00 e0e0      	LDI  R30,0
001b01 994a      	SBIC 0x9,2
001b02 e0e1      	LDI  R30,1
001b03 23ea      	AND  R30,R26
001b04 f039      	BREQ _0x12E
001b05 940e 2781 	CALL SUBOPT_0x4D
001b07 940e 279a 	CALL SUBOPT_0x52
001b09 e0a3      	LDI  R26,LOW(3)
001b0a e0b0      	LDI  R27,0
001b0b dac3      	RCALL _display
                 ; 0000 0266 
                 ; 0000 0267         }
                 _0x12E:
                +
001b0c 2de9     +MOV R30 , R9
001b0d 2dfa     +MOV R31 , R10
                 	__GETW1R 9,10
001b0e 9732      	SBIW R30,2
                +
001b0f 2e9e     +MOV R9 , R30
001b10 2eaf     +MOV R10 , R31
                 	__PUTW1R 9,10
001b11 cf76      	RJMP _0x122
                 _0x123:
                 ; 0000 0268 //     if(i == 0) delay_ms(300);
                 ; 0000 0269 //     if(i == 101) delay_ms(500);
                 ; 0000 026A 
                 ; 0000 026B       //  drawString(0,0,bol0,41);
                 ; 0000 026C     //    display(0,0,63,1);
                 ; 0000 026D     }
001b12 940e 275b 	CALL SUBOPT_0x47
001b14 cf69      	RJMP _0x11F
                 _0x120:
                 ; 0000 026E 
                 ; 0000 026F   }
001b15 ce8d      	RJMP _0xEC
                 _0xEE:
                 ; 0000 0270   return (j+2);
                +
001b16 2de5     +MOV R30 , R5
001b17 2df6     +MOV R31 , R6
                 	__GETW1R 5,6
001b18 9632      	ADIW R30,2
001b19 9508      	RET
                 ; 0000 0271 }
                 ; .FEND
                 ;
                 ;
                 ;
                 ;
                 ;void main(void)
                 ; 0000 0277 {
                 _main:
                 ; .FSTART _main
                 ; 0000 0278 // Declare your local variables here
                 ; 0000 0279 
                 ; 0000 027A // Crystal Oscillator division factor: 1
                 ; 0000 027B #pragma optsize-
                 ; 0000 027C CLKPR=(1<<CLKPCE);
001b1a e8e0      	LDI  R30,LOW(128)
001b1b 93e0 0061 	STS  97,R30
                 ; 0000 027D CLKPR=(0<<CLKPCE) | (0<<CLKPS3) | (0<<CLKPS2) | (0<<CLKPS1) | (0<<CLKPS0);
001b1d e0e0      	LDI  R30,LOW(0)
001b1e 93e0 0061 	STS  97,R30
                 ; 0000 027E #ifdef _OPTIMIZE_SIZE_
                 ; 0000 027F #pragma optsize+
                 ; 0000 0280 #endif
                 ; 0000 0281 
                 ; 0000 0282 // Input/Output Ports initialization
                 ; 0000 0283 // Port B initialization
                 ; 0000 0284 // Function: Bit7=In Bit6=In Bit5=In Bit4=In Bit3=Out Bit2=In Bit1=In Bit0=In
                 ; 0000 0285 DDRB=(0<<DDB7) | (0<<DDB6) | (0<<DDB5) | (0<<DDB4) | (1<<DDB3) | (0<<DDB2) | (1<<DDB1) | (0<<DDB0);
001b20 e0ea      	LDI  R30,LOW(10)
001b21 b9e4      	OUT  0x4,R30
                 ; 0000 0286 // State: Bit7=T Bit6=T Bit5=T Bit4=T Bit3=0 Bit2=T Bit1=T Bit0=T
                 ; 0000 0287 PORTB=(0<<PORTB7) | (0<<PORTB6) | (0<<PORTB5) | (0<<PORTB4) | (0<<PORTB3) | (0<<PORTB2) | (0<<PORTB1) | (0<<PORTB0);
001b22 e0e0      	LDI  R30,LOW(0)
001b23 b9e5      	OUT  0x5,R30
                 ; 0000 0288 
                 ; 0000 0289 // Port C initialization
                 ; 0000 028A // Function: Bit6=In Bit5=In Bit4=In Bit3=In Bit2=In Bit1=In Bit0=In
                 ; 0000 028B DDRC=(0<<DDC6) | (0<<DDC5) | (0<<DDC4) | (0<<DDC3) | (0<<DDC2) | (1<<DDC1) | (0<<DDC0);
001b24 e0e2      	LDI  R30,LOW(2)
001b25 b9e7      	OUT  0x7,R30
                 ; 0000 028C // State: Bit6=T Bit5=T Bit4=T Bit3=T Bit2=T Bit1=T Bit0=T
                 ; 0000 028D PORTC=(0<<PORTC6) | (0<<PORTC5) | (0<<PORTC4) | (0<<PORTC3) | (0<<PORTC2) | (0<<PORTC1) | (1<<PORTC0);
001b26 e0e1      	LDI  R30,LOW(1)
001b27 b9e8      	OUT  0x8,R30
                 ; 0000 028E 
                 ; 0000 028F // Port D initialization
                 ; 0000 0290 // State: Bit7=T Bit6=0 Bit5=0 Bit4=T Bit3=T Bit2=T Bit1=T Bit0=T
                 ; 0000 0291 PORTD=(0<<PORTD7) | (1<<PORTD6) | (0<<PORTD5) | (0<<PORTD4) | (0<<PORTD3) | (0<<PORTD2) | (1<<PORTD1) | (1<<PORTD0);
001b28 e4e3      	LDI  R30,LOW(67)
001b29 b9eb      	OUT  0xB,R30
                 ; 0000 0292 // Function: Bit7=In Bit6=Out Bit5=Out Bit4=In Bit3=In Bit2=In Bit1=In Bit0=In
                 ; 0000 0293 DDRD=(0<<DDD7) | (1<<DDD6) | (1<<DDD5) | (0<<DDD4) | (1<<DDD3) | (0<<DDD2) | (0<<DDD1) | (1<<DDD0);
001b2a e6e9      	LDI  R30,LOW(105)
001b2b b9ea      	OUT  0xA,R30
                 ; 0000 0294 
                 ; 0000 0295 // Timer/Counter 0 initialization
                 ; 0000 0296 // Clock source: System Clock
                 ; 0000 0297 // Clock value: 16000,000 kHz
                 ; 0000 0298 // Mode: Fast PWM top=0xFF
                 ; 0000 0299 // OC0A output: Inverted PWM
                 ; 0000 029A // OC0B output: Non-Inverted PWM
                 ; 0000 029B // Timer Period: 0,016 ms
                 ; 0000 029C // Output Pulse(s):
                 ; 0000 029D // OC0A Period: 0,016 ms Width: 0,016 ms
                 ; 0000 029E // OC0B Period: 0,016 ms Width: 0 us
                 ; 0000 029F TCCR0A=(1<<COM0A1) | (1<<COM0A0) | (1<<COM0B1) | (0<<COM0B0) | (1<<WGM01) | (1<<WGM00);
001b2c eee3      	LDI  R30,LOW(227)
001b2d bde4      	OUT  0x24,R30
                 ; 0000 02A0 TCCR0B=(0<<WGM02) | (0<<CS02) | (0<<CS01) | (1<<CS00);
001b2e e0e1      	LDI  R30,LOW(1)
001b2f bde5      	OUT  0x25,R30
                 ; 0000 02A1 TCNT0=0x00;
001b30 e0e0      	LDI  R30,LOW(0)
001b31 bde6      	OUT  0x26,R30
                 ; 0000 02A2 OCR0A=0x00;
001b32 940e 279f 	CALL SUBOPT_0x53
                 ; 0000 02A3 OCR0B=0x00;
                 ; 0000 02A4 
                 ; 0000 02A5 
                 ; 0000 02A6 // Timer/Counter 1 initialization
                 ; 0000 02A7 // Clock source: System Clock
                 ; 0000 02A8 // Clock value: 16000,000 kHz
                 ; 0000 02A9 // Mode: Normal top=0xFFFF
                 ; 0000 02AA // OC1A output: Disconnected
                 ; 0000 02AB // OC1B output: Disconnected
                 ; 0000 02AC // Noise Canceler: Off
                 ; 0000 02AD // Input Capture on Falling Edge
                 ; 0000 02AE // Timer Period: 1,9179 ms
                 ; 0000 02AF // Timer1 Overflow Interrupt: On
                 ; 0000 02B0 // Input Capture Interrupt: Off
                 ; 0000 02B1 // Compare A Match Interrupt: Off
                 ; 0000 02B2 // Compare B Match Interrupt: Off
                 ; 0000 02B3 TCCR1A=(0<<COM1A1) | (0<<COM1A0) | (0<<COM1B1) | (0<<COM1B0) | (0<<WGM11) | (0<<WGM10);
001b34 e0e0      	LDI  R30,LOW(0)
001b35 93e0 0080 	STS  128,R30
                 ; 0000 02B4 TCCR1B=(0<<ICNC1) | (0<<ICES1) | (0<<WGM13) | (0<<WGM12) | (0<<CS12) | (0<<CS11) | (1<<CS10);
001b37 e0e1      	LDI  R30,LOW(1)
001b38 93e0 0081 	STS  129,R30
                 ; 0000 02B5 TCNT1H=0x88;
001b3a e8e8      	LDI  R30,LOW(136)
001b3b 93e0 0085 	STS  133,R30
                 ; 0000 02B6 TCNT1L=0x22;
001b3d e2e2      	LDI  R30,LOW(34)
001b3e 93e0 0084 	STS  132,R30
                 ; 0000 02B7 ICR1H=0x00;
001b40 e0e0      	LDI  R30,LOW(0)
001b41 93e0 0087 	STS  135,R30
                 ; 0000 02B8 ICR1L=0x00;
001b43 93e0 0086 	STS  134,R30
                 ; 0000 02B9 OCR1AH=0x00;
001b45 93e0 0089 	STS  137,R30
                 ; 0000 02BA OCR1AL=0x00;
001b47 93e0 0088 	STS  136,R30
                 ; 0000 02BB OCR1BH=0x00;
001b49 93e0 008b 	STS  139,R30
                 ; 0000 02BC OCR1BL=0x00;
001b4b 93e0 008a 	STS  138,R30
                 ; 0000 02BD 
                 ; 0000 02BE // Timer/Counter 2 initialization
                 ; 0000 02BF // Clock source: System Clock
                 ; 0000 02C0 // Clock value: 16000,000 kHz
                 ; 0000 02C1 // Mode: Fast PWM top=0xFF
                 ; 0000 02C2 // OC2A output: Inverted PWM
                 ; 0000 02C3 // OC2B output: Non-Inverted PWM
                 ; 0000 02C4 // Timer Period: 0,016 ms
                 ; 0000 02C5 // Output Pulse(s):
                 ; 0000 02C6 // OC2A Period: 0,016 ms Width: 0,016 ms
                 ; 0000 02C7 // OC2B Period: 0,016 ms Width: 0 us
                 ; 0000 02C8 ASSR=(0<<EXCLK) | (0<<AS2);
001b4d 93e0 00b6 	STS  182,R30
                 ; 0000 02C9 TCCR2A=(1<<COM2A1) | (1<<COM2A0) | (1<<COM2B1) | (0<<COM2B0) | (1<<WGM21) | (1<<WGM20);
001b4f eee3      	LDI  R30,LOW(227)
001b50 93e0 00b0 	STS  176,R30
                 ; 0000 02CA TCCR2B=(0<<WGM22) | (0<<CS22) | (0<<CS21) | (1<<CS20);
001b52 e0e1      	LDI  R30,LOW(1)
001b53 93e0 00b1 	STS  177,R30
                 ; 0000 02CB TCNT2=0x00;
001b55 e0e0      	LDI  R30,LOW(0)
001b56 93e0 00b2 	STS  178,R30
                 ; 0000 02CC OCR2A=0x00;
001b58 93e0 00b3 	STS  179,R30
                 ; 0000 02CD OCR2B=0x00;
001b5a 93e0 00b4 	STS  180,R30
                 ; 0000 02CE 
                 ; 0000 02CF 
                 ; 0000 02D0 // Timer/Counter 0 Interrupt(s) initialization
                 ; 0000 02D1 TIMSK0=(0<<OCIE0B) | (0<<OCIE0A) | (0<<TOIE0);
001b5c 93e0 006e 	STS  110,R30
                 ; 0000 02D2 
                 ; 0000 02D3 // Timer/Counter 1 Interrupt(s) initialization
                 ; 0000 02D4 TIMSK1=(0<<ICIE1) | (0<<OCIE1B) | (0<<OCIE1A) | (0<<TOIE1);
001b5e 93e0 006f 	STS  111,R30
                 ; 0000 02D5 
                 ; 0000 02D6 // Timer/Counter 2 Interrupt(s) initialization
                 ; 0000 02D7 TIMSK2=(0<<OCIE2B) | (0<<OCIE2A) | (0<<TOIE2);
001b60 93e0 0070 	STS  112,R30
                 ; 0000 02D8 
                 ; 0000 02D9 
                 ; 0000 02DA // External Interrupt(s) initialization
                 ; 0000 02DB // INT0: On
                 ; 0000 02DC // INT0 Mode: Falling Edge
                 ; 0000 02DD // INT1: Off
                 ; 0000 02DE // Interrupt on any change on pins PCINT0-7: Off
                 ; 0000 02DF // Interrupt on any change on pins PCINT8-14: Off
                 ; 0000 02E0 // Interrupt on any change on pins PCINT16-23: Off
                 ; 0000 02E1 EICRA=(0<<ISC11) | (0<<ISC10) | (1<<ISC01) | (0<<ISC00);
001b62 e0e2      	LDI  R30,LOW(2)
001b63 93e0 0069 	STS  105,R30
                 ; 0000 02E2 EIMSK=(0<<INT1) | (1<<INT0);
001b65 e0e1      	LDI  R30,LOW(1)
001b66 bbed      	OUT  0x1D,R30
                 ; 0000 02E3 EIFR=(0<<INTF1) | (1<<INTF0);
001b67 bbec      	OUT  0x1C,R30
                 ; 0000 02E4 PCICR=(0<<PCIE2) | (0<<PCIE1) | (0<<PCIE0);
001b68 e0e0      	LDI  R30,LOW(0)
001b69 93e0 0068 	STS  104,R30
                 ; 0000 02E5 
                 ; 0000 02E6 // USART initialization
                 ; 0000 02E7 // USART disabled
                 ; 0000 02E8 UCSR0B=(0<<RXCIE0) | (0<<TXCIE0) | (0<<UDRIE0) | (0<<RXEN0) | (0<<TXEN0) | (0<<UCSZ02) | (0<<RXB80) | (0<<TXB80);
001b6b 93e0 00c1 	STS  193,R30
                 ; 0000 02E9 
                 ; 0000 02EA // Analog Comparator initialization
                 ; 0000 02EB // Analog Comparator: Off
                 ; 0000 02EC // The Analog Comparator's positive input is
                 ; 0000 02ED // connected to the AIN0 pin
                 ; 0000 02EE // The Analog Comparator's negative input is
                 ; 0000 02EF // connected to the AIN1 pin
                 ; 0000 02F0 ACSR=(1<<ACD) | (0<<ACBG) | (0<<ACO) | (0<<ACI) | (0<<ACIE) | (0<<ACIC) | (0<<ACIS1) | (0<<ACIS0);
001b6d e8e0      	LDI  R30,LOW(128)
001b6e bfe0      	OUT  0x30,R30
                 ; 0000 02F1 // Digital input buffer on AIN0: On
                 ; 0000 02F2 // Digital input buffer on AIN1: On
                 ; 0000 02F3 DIDR1=(0<<AIN0D) | (0<<AIN1D);
001b6f e0e0      	LDI  R30,LOW(0)
001b70 93e0 007f 	STS  127,R30
                 ; 0000 02F4 
                 ; 0000 02F5 // ADC initialization
                 ; 0000 02F6 // ADC Clock frequency: 1000,000 kHz
                 ; 0000 02F7 // ADC Voltage Reference: Int., cap. on AREF
                 ; 0000 02F8 // ADC Auto Trigger Source: ADC Stopped
                 ; 0000 02F9 // Digital input buffers on ADC0: On, ADC1: On, ADC2: On, ADC3: On
                 ; 0000 02FA // ADC4: On, ADC5: On
                 ; 0000 02FB DIDR0=(0<<ADC5D) | (0<<ADC4D) | (0<<ADC3D) | (0<<ADC2D) | (0<<ADC1D) | (0<<ADC0D);
001b72 93e0 007e 	STS  126,R30
                 ; 0000 02FC ADMUX=ADC_VREF_TYPE;
001b74 ece0      	LDI  R30,LOW(192)
001b75 93e0 007c 	STS  124,R30
                 ; 0000 02FD ADCSRA=(1<<ADEN) | (0<<ADSC) | (0<<ADATE) | (0<<ADIF) | (0<<ADIE) | (1<<ADPS2) | (0<<ADPS1) | (0<<ADPS0);
001b77 e8e4      	LDI  R30,LOW(132)
001b78 93e0 007a 	STS  122,R30
                 ; 0000 02FE ADCSRB=(0<<ADTS2) | (0<<ADTS1) | (0<<ADTS0);
001b7a e0e0      	LDI  R30,LOW(0)
001b7b 93e0 007b 	STS  123,R30
                 ; 0000 02FF 
                 ; 0000 0300 
                 ; 0000 0301 // SPI initialization
                 ; 0000 0302 // SPI disabled
                 ; 0000 0303 SPCR=(0<<SPIE) | (0<<SPE) | (0<<DORD) | (0<<MSTR) | (0<<CPOL) | (0<<CPHA) | (0<<SPR1) | (0<<SPR0);
001b7d bdec      	OUT  0x2C,R30
                 ; 0000 0304 
                 ; 0000 0305 // TWI initialization
                 ; 0000 0306 // TWI disabled
                 ; 0000 0307 TWCR=(0<<TWEA) | (0<<TWSTA) | (0<<TWSTO) | (0<<TWEN) | (0<<TWIE);
001b7e 93e0 00bc 	STS  188,R30
                 ; 0000 0308 
                 ; 0000 0309 // Global enable interrupts
                 ; 0000 030A #asm("sei")
001b80 9478      	sei
                 ; 0000 030B //OCR0B=0xE0;
                 ; 0000 030C for(o=0;o<128;o++) { zvuk = 1 ; delay_us(200); zvuk = 0; delay_us(200); }
001b81 24dd      	CLR  R13
001b82 24ee      	CLR  R14
                 _0x130:
001b83 940e 27a3 	CALL SUBOPT_0x54
001b85 f42c      	BRGE _0x131
001b86 940e 2719 	CALL SUBOPT_0x3E
001b88 940e 2724 	CALL SUBOPT_0x3F
001b8a cff8      	RJMP _0x130
                 _0x131:
                 ; 0000 030D delay_ms(2);
001b8b e0a2      	LDI  R26,LOW(2)
001b8c e0b0      	LDI  R27,0
001b8d 940e 28e6 	CALL _delay_ms
                 ; 0000 030E a3 = 1;
001b8f e0e1      	LDI  R30,LOW(1)
001b90 93e0 079e 	STS  _a3,R30
                 ; 0000 030F tok0 = 0;
001b92 940e 27a8 	CALL SUBOPT_0x55
                 ; 0000 0310 mod = 2;
001b94 e0e2      	LDI  R30,LOW(2)
001b95 e0f0      	LDI  R31,HIGH(2)
001b96 93e0 0796 	STS  _mod,R30
001b98 93f0 0797 	STS  _mod+1,R31
                 ; 0000 0311 period = 10000;
001b9a e1e0      	LDI  R30,LOW(10000)
001b9b e2f7      	LDI  R31,HIGH(10000)
001b9c 940e 25d6 	CALL SUBOPT_0x1B
                 ; 0000 0312 //period = 10900;
                 ; 0000 0313 initDisplay();
001b9e da25      	RCALL _initDisplay
                 ; 0000 0314 zvuk = 1;
001b9f 9a29      	SBI  0x5,1
                 ; 0000 0315 clearDisplay();
001ba0 940e 13b2 	CALL _clearDisplay
                 ; 0000 0316 tok = read_adc(0);
001ba2 940e 264e 	CALL SUBOPT_0x2B
                 ; 0000 0317 zvuk = 0;
001ba4 9829      	CBI  0x5,1
                 ; 0000 0318 drawStringZ(0, 0, " :", 9, 1, 2);
001ba5 940e 2781 	CALL SUBOPT_0x4D
001ba7 940e 2781 	CALL SUBOPT_0x4D
                +
001ba9 ebec     +LDI R30 , LOW ( 2 * _0x0 + ( 0 ) )
001baa e2f5     +LDI R31 , HIGH ( 2 * _0x0 + ( 0 ) )
                 	__POINTW1FN _0x0,0
001bab 940e 27ae 	CALL SUBOPT_0x56
                 ; 0000 0319 ZnachZ(16,24,tok,3) ;
001bad e1e0      	LDI  R30,LOW(16)
001bae e0f0      	LDI  R31,HIGH(16)
001baf 940e 27bc 	CALL SUBOPT_0x57
001bb1 940e 27c3 	CALL SUBOPT_0x58
001bb3 e0a3      	LDI  R26,LOW(3)
001bb4 e0b0      	LDI  R27,0
001bb5 dd03      	RCALL _ZnachZ
                 ; 0000 031A drawStringZ(16+24*3, 24, "v", 1, 1, 3);
001bb6 e5e8      	LDI  R30,LOW(88)
001bb7 e0f0      	LDI  R31,HIGH(88)
001bb8 940e 27bc 	CALL SUBOPT_0x57
                +
001bba ece6     +LDI R30 , LOW ( 2 * _0x0 + ( 10 ) )
001bbb e2f5     +LDI R31 , HIGH ( 2 * _0x0 + ( 10 ) )
                 	__POINTW1FN _0x0,10
001bbc 940e 27ca 	CALL SUBOPT_0x59
001bbe 940e 27ca 	CALL SUBOPT_0x59
001bc0 940e 27cf 	CALL SUBOPT_0x5A
                 ; 0000 031B display(0,0,127,7);
001bc2 940e 2781 	CALL SUBOPT_0x4D
001bc4 940e 2786 	CALL SUBOPT_0x4E
001bc6 940e 278b 	CALL SUBOPT_0x4F
                 ; 0000 031C delay_ms(2000);
001bc8 eda0      	LDI  R26,LOW(2000)
001bc9 e0b7      	LDI  R27,HIGH(2000)
001bca 940e 28e6 	CALL _delay_ms
                 ; 0000 031D PORTC.0 = 0;
001bcc 9840      	CBI  0x8,0
                 ; 0000 031E //TIMSK1=(0<<ICIE1) | (0<<OCIE1B) | (0<<OCIE1A) | (1<<TOIE1);
                 ; 0000 031F clearDisplay();
001bcd 940e 27d6 	CALL SUBOPT_0x5B
                 ; 0000 0320 drawStringZ(0, 0, ":", 9, 1, 2);
001bcf 940e 2781 	CALL SUBOPT_0x4D
                +
001bd1 ece8     +LDI R30 , LOW ( 2 * _0x0 + ( 12 ) )
001bd2 e2f5     +LDI R31 , HIGH ( 2 * _0x0 + ( 12 ) )
                 	__POINTW1FN _0x0,12
001bd3 940e 27ae 	CALL SUBOPT_0x56
                 ; 0000 0321 drawStringZ(0, 20, ":-", 10, 1, 2);
001bd5 940e 2781 	CALL SUBOPT_0x4D
001bd7 e1e4      	LDI  R30,LOW(20)
001bd8 e0f0      	LDI  R31,HIGH(20)
001bd9 93fa      	ST   -Y,R31
001bda 93ea      	ST   -Y,R30
                +
001bdb ede2     +LDI R30 , LOW ( 2 * _0x0 + ( 22 ) )
001bdc e2f5     +LDI R31 , HIGH ( 2 * _0x0 + ( 22 ) )
                 	__POINTW1FN _0x0,22
001bdd 940e 27d9 	CALL SUBOPT_0x5C
001bdf 940e 27de 	CALL SUBOPT_0x5D
                 ; 0000 0322 drawStringZ(0, 40, ":+", 10, 1, 2);
001be1 940e 27e5 	CALL SUBOPT_0x5E
                +
001be3 eded     +LDI R30 , LOW ( 2 * _0x0 + ( 33 ) )
001be4 e2f5     +LDI R31 , HIGH ( 2 * _0x0 + ( 33 ) )
                 	__POINTW1FN _0x0,33
001be5 940e 27d9 	CALL SUBOPT_0x5C
001be7 940e 27de 	CALL SUBOPT_0x5D
                 ; 0000 0323 display(0,0,127,7);
001be9 940e 2781 	CALL SUBOPT_0x4D
001beb 940e 2786 	CALL SUBOPT_0x4E
001bed 940e 278b 	CALL SUBOPT_0x4F
                 ; 0000 0324 for(o=0;o<128;o++) { zvuk = 1 ; delay_us(200); zvuk = 0; delay_us(200); }
001bef 24dd      	CLR  R13
001bf0 24ee      	CLR  R14
                 _0x13D:
001bf1 940e 27a3 	CALL SUBOPT_0x54
001bf3 f42c      	BRGE _0x13E
001bf4 940e 2719 	CALL SUBOPT_0x3E
001bf6 940e 2724 	CALL SUBOPT_0x3F
001bf8 cff8      	RJMP _0x13D
                 _0x13E:
                 ; 0000 0325 while(ubr & dob & paus++<1000)
                 _0x143:
001bf9 940e 27ea 	CALL SUBOPT_0x5F
001bfb f019      	BREQ _0x145
                 ; 0000 0326 {
                 ; 0000 0327     delay_ms(10);
001bfc 940e 2801 	CALL SUBOPT_0x60
                 ; 0000 0328 
                 ; 0000 0329 }
001bfe cffa      	RJMP _0x143
                 _0x145:
                 ; 0000 032A for(o=0;o<128;o++) { zvuk = 1 ; delay_us(200); zvuk = 0; delay_us(200); }
001bff 24dd      	CLR  R13
001c00 24ee      	CLR  R14
                 _0x147:
001c01 940e 27a3 	CALL SUBOPT_0x54
001c03 f42c      	BRGE _0x148
001c04 940e 2719 	CALL SUBOPT_0x3E
001c06 940e 2724 	CALL SUBOPT_0x3F
001c08 cff8      	RJMP _0x147
                 _0x148:
                 ; 0000 032B clearDisplay();
001c09 940e 13b2 	CALL _clearDisplay
                 ; 0000 032C delay_ms(50);
001c0b 940e 2805 	CALL SUBOPT_0x61
                 ; 0000 032D if(fubr)
001c0d fe20      	SBRS R2,0
001c0e c014      	RJMP _0x14D
                 ; 0000 032E {
                 ; 0000 032F     drawStringZ(0, 0, "", 6, 1, 3);
001c0f 940e 2781 	CALL SUBOPT_0x4D
001c11 940e 2781 	CALL SUBOPT_0x4D
001c13 940e 2809 	CALL SUBOPT_0x62
001c15 940e 27cf 	CALL SUBOPT_0x5A
                 ; 0000 0330     drawStringZ(0, 30, "  ", 10, 1, 2);
001c17 940e 2810 	CALL SUBOPT_0x63
                +
001c19 eeef     +LDI R30 , LOW ( 2 * _0x0 + ( 51 ) )
001c1a e2f5     +LDI R31 , HIGH ( 2 * _0x0 + ( 51 ) )
                 	__POINTW1FN _0x0,51
001c1b 940e 27d9 	CALL SUBOPT_0x5C
001c1d 940e 2815 	CALL SUBOPT_0x64
                 ; 0000 0331     reg1 = 1;
001c1f 9af5      	SBI  0x1E,5
                 ; 0000 0332     fubr = 0;
001c20 94e8      	CLT
001c21 f820      	BLD  R2,0
                 ; 0000 0333 }
                 ; 0000 0334 else
001c22 c010      	RJMP _0x150
                 _0x14D:
                 ; 0000 0335 {
                 ; 0000 0336     drawStringZ(0, 0, "", 6, 1, 3);
001c23 940e 2781 	CALL SUBOPT_0x4D
001c25 940e 2781 	CALL SUBOPT_0x4D
001c27 940e 2809 	CALL SUBOPT_0x62
001c29 940e 27cf 	CALL SUBOPT_0x5A
                 ; 0000 0337     drawStringZ(0, 30, "  ", 10, 1, 2);
001c2b 940e 2810 	CALL SUBOPT_0x63
                +
001c2d efea     +LDI R30 , LOW ( 2 * _0x0 + ( 62 ) )
001c2e e2f5     +LDI R31 , HIGH ( 2 * _0x0 + ( 62 ) )
                 	__POINTW1FN _0x0,62
001c2f 940e 27d9 	CALL SUBOPT_0x5C
001c31 940e 2815 	CALL SUBOPT_0x64
                 ; 0000 0338 }
                 _0x150:
                 ; 0000 0339 display(0,0,127,7);
001c33 940e 2781 	CALL SUBOPT_0x4D
001c35 940e 2781 	CALL SUBOPT_0x4D
001c37 940e 2786 	CALL SUBOPT_0x4E
001c39 940e 278b 	CALL SUBOPT_0x4F
                 ; 0000 033A clearDisplay();
001c3b 940e 13b2 	CALL _clearDisplay
                 ; 0000 033B delay_ms(1000);
001c3d 940e 281b 	CALL SUBOPT_0x65
                 ; 0000 033C if(!reg1)
001c3f 99f5      	SBIC 0x1E,5
001c40 c289      	RJMP _0x151
                 ; 0000 033D {
                 ; 0000 033E 
                 ; 0000 033F   clearDisplay();
001c41 940e 13b2 	CALL _clearDisplay
                 ; 0000 0340   chel = 0;
001c43 e0e0      	LDI  R30,LOW(0)
001c44 93e0 078a 	STS  _chel,R30
                 ; 0000 0341   drawStringZ(0, 0, "", 8, 1, 2);
001c46 940e 2781 	CALL SUBOPT_0x4D
001c48 940e 2781 	CALL SUBOPT_0x4D
                +
001c4a e0e5     +LDI R30 , LOW ( 2 * _0x0 + ( 73 ) )
001c4b e2f6     +LDI R31 , HIGH ( 2 * _0x0 + ( 73 ) )
                 	__POINTW1FN _0x0,73
001c4c 940e 281f 	CALL SUBOPT_0x66
001c4e 940e 2815 	CALL SUBOPT_0x64
                 ; 0000 0342   drawStringZ(0, 16, "", 8, 1, 2);
001c50 940e 2824 	CALL SUBOPT_0x67
                +
001c52 e0ee     +LDI R30 , LOW ( 2 * _0x0 + ( 82 ) )
001c53 e2f6     +LDI R31 , HIGH ( 2 * _0x0 + ( 82 ) )
                 	__POINTW1FN _0x0,82
001c54 940e 281f 	CALL SUBOPT_0x66
001c56 940e 27de 	CALL SUBOPT_0x5D
                 ; 0000 0343   drawStringZ(0, 40, " ", 8, 1, 2);
001c58 940e 27e5 	CALL SUBOPT_0x5E
                +
001c5a e1e7     +LDI R30 , LOW ( 2 * _0x0 + ( 91 ) )
001c5b e2f6     +LDI R31 , HIGH ( 2 * _0x0 + ( 91 ) )
                 	__POINTW1FN _0x0,91
001c5c 940e 281f 	CALL SUBOPT_0x66
001c5e 940e 2815 	CALL SUBOPT_0x64
                 ; 0000 0344   drawCharZ(96, 40, 0x30 + chel, 1, 2);
001c60 940e 2827 	CALL SUBOPT_0x68
001c62 940e 282c 	CALL SUBOPT_0x69
001c64 940e 277d 	CALL SUBOPT_0x4C
                 ; 0000 0345   display(0,0,127,7);
001c66 940e 2781 	CALL SUBOPT_0x4D
001c68 940e 2781 	CALL SUBOPT_0x4D
001c6a 940e 2786 	CALL SUBOPT_0x4E
001c6c 940e 278b 	CALL SUBOPT_0x4F
                 ; 0000 0346   for(o=0;o<128;o++) { zvuk = 1 ; delay_us(200); zvuk = 0; delay_us(200); }
001c6e 24dd      	CLR  R13
001c6f 24ee      	CLR  R14
                 _0x153:
001c70 940e 27a3 	CALL SUBOPT_0x54
001c72 f42c      	BRGE _0x154
001c73 940e 2719 	CALL SUBOPT_0x3E
001c75 940e 2724 	CALL SUBOPT_0x3F
001c77 cff8      	RJMP _0x153
                 _0x154:
                 ; 0000 0347  flag0 = 1;
001c78 9af7      	SBI  0x1E,7
                 ; 0000 0348  while (flag0 & timer++<650)
                 _0x15B:
001c79 e0e0      	LDI  R30,0
001c7a 99f7      	SBIC 0x1E,7
001c7b e0e1      	LDI  R30,1
001c7c 2e0e      	MOV  R0,R30
001c7d eaa1      	LDI  R26,LOW(_timer)
001c7e e0b7      	LDI  R27,HIGH(_timer)
001c7f 940e 29b7 	CALL __GETD1P_INC
                +
001c81 5fef     +SUBI R30 , LOW ( - 1 )
001c82 4fff     +SBCI R31 , HIGH ( - 1 )
001c83 4f6f     +SBCI R22 , BYTE3 ( - 1 )
001c84 4f7f     +SBCI R23 , BYTE4 ( - 1 )
                 	__SUBD1N -1
001c85 940e 29bc 	CALL __PUTDP1_DEC
001c87 9731      	SBIW R30,1
001c88 4060      	SBCI R22,0
001c89 4070      	SBCI R23,0
001c8a 01df      	MOVW R26,R30
001c8b 01cb      	MOVW R24,R22
                +
001c8c e8ea     +LDI R30 , LOW ( 0x28A )
001c8d e0f2     +LDI R31 , HIGH ( 0x28A )
001c8e e060     +LDI R22 , BYTE3 ( 0x28A )
001c8f e070     +LDI R23 , BYTE4 ( 0x28A )
                 	__GETD1N 0x28A
001c90 940e 2939 	CALL __LTD12
001c92 21e0      	AND  R30,R0
001c93 f409      	BRNE PC+2
001c94 c058      	RJMP _0x15D
                 ; 0000 0349   {     if(!dob)
001c95 9949      	SBIC 0x9,1
001c96 c018      	RJMP _0x15E
                 ; 0000 034A     {
                 ; 0000 034B         delay_ms(200);
001c97 940e 26f4 	CALL SUBOPT_0x3A
                 ; 0000 034C         while(!dob& time++<65000);
                 _0x15F:
001c99 940e 26f8 	CALL SUBOPT_0x3B
001c9b 940e 2830 	CALL SUBOPT_0x6A
001c9d f7d9      	BRNE _0x15F
                 ; 0000 034D          for(o=0;o<32;o++) { zvuk = 1 ; delay_us(200); zvuk = 0; delay_us(200); }
001c9e 24dd      	CLR  R13
001c9f 24ee      	CLR  R14
                 _0x163:
001ca0 940e 2714 	CALL SUBOPT_0x3D
001ca2 f42c      	BRGE _0x164
001ca3 940e 2719 	CALL SUBOPT_0x3E
001ca5 940e 2724 	CALL SUBOPT_0x3F
001ca7 cff8      	RJMP _0x163
                 _0x164:
                 ; 0000 034E         chel++ ;
001ca8 91e0 078a 	LDS  R30,_chel
001caa 5fef      	SUBI R30,-LOW(1)
001cab 93e0 078a 	STS  _chel,R30
                 ; 0000 034F          timer = 0;
001cad 940e 26ea 	CALL SUBOPT_0x39
                 ; 0000 0350     }
                 ; 0000 0351     if(!ubr)
                 _0x15E:
001caf 994a      	SBIC 0x9,2
001cb0 c01f      	RJMP _0x169
                 ; 0000 0352     {
                 ; 0000 0353         delay_ms(200);
001cb1 940e 26f4 	CALL SUBOPT_0x3A
                 ; 0000 0354         while(!ubr & time++<65000) ;
                 _0x16A:
001cb3 940e 2729 	CALL SUBOPT_0x40
001cb5 940e 2830 	CALL SUBOPT_0x6A
001cb7 f7d9      	BRNE _0x16A
                 ; 0000 0355         for(o=0;o<32;o++) { zvuk = 1 ; delay_us(200); zvuk = 0; delay_us(200); }
001cb8 24dd      	CLR  R13
001cb9 24ee      	CLR  R14
                 _0x16E:
001cba 940e 2714 	CALL SUBOPT_0x3D
001cbc f42c      	BRGE _0x16F
001cbd 940e 2719 	CALL SUBOPT_0x3E
001cbf 940e 2724 	CALL SUBOPT_0x3F
001cc1 cff8      	RJMP _0x16E
                 _0x16F:
                 ; 0000 0356         if (time>=65000) flag0 = 0;
001cc2 940e 283f 	CALL SUBOPT_0x6B
001cc4 f010      	BRLO _0x174
001cc5 98f7      	CBI  0x1E,7
                 ; 0000 0357         else if(chel != 0) chel--;
001cc6 c007      	RJMP _0x177
                 _0x174:
001cc7 91e0 078a 	LDS  R30,_chel
001cc9 30e0      	CPI  R30,0
001cca f019      	BREQ _0x178
001ccb 50e1      	SUBI R30,LOW(1)
001ccc 93e0 078a 	STS  _chel,R30
                 ; 0000 0358          timer = 0;
                 _0x178:
                 _0x177:
001cce 940e 26ea 	CALL SUBOPT_0x39
                 ; 0000 0359     }
                 ; 0000 035A     time = 0;
                 _0x169:
001cd0 e0e0      	LDI  R30,LOW(0)
001cd1 93e0 079a 	STS  _time,R30
001cd3 93e0 079b 	STS  _time+1,R30
                 ; 0000 035B     if(chel > 9) chel = 9;
001cd5 91a0 078a 	LDS  R26,_chel
001cd7 30aa      	CPI  R26,LOW(0xA)
001cd8 f018      	BRLO _0x179
001cd9 e0e9      	LDI  R30,LOW(9)
001cda 93e0 078a 	STS  _chel,R30
                 ; 0000 035C     drawCharZo(96, 40, 0x30 + chel, 1, 2);
                 _0x179:
001cdc 940e 2827 	CALL SUBOPT_0x68
001cde 940e 282c 	CALL SUBOPT_0x69
001ce0 e0a2      	LDI  R26,LOW(2)
001ce1 e0b0      	LDI  R27,0
001ce2 940e 151d 	CALL _drawCharZo
                 ; 0000 035D     display(96,5,127,7) ;
001ce4 940e 2847 	CALL SUBOPT_0x6C
001ce6 940e 284c 	CALL SUBOPT_0x6D
001ce8 940e 2786 	CALL SUBOPT_0x4E
001cea 940e 278b 	CALL SUBOPT_0x4F
                 ; 0000 035E   }
001cec cf8c      	RJMP _0x15B
                 _0x15D:
                 ; 0000 035F   clearDisplay();
001ced 940e 27d6 	CALL SUBOPT_0x5B
                 ; 0000 0360   drawStringZ(0, 0, " ", 8, 1, 2);
001cef 940e 2781 	CALL SUBOPT_0x4D
                +
001cf1 e1e7     +LDI R30 , LOW ( 2 * _0x0 + ( 91 ) )
001cf2 e2f6     +LDI R31 , HIGH ( 2 * _0x0 + ( 91 ) )
                 	__POINTW1FN _0x0,91
001cf3 940e 281f 	CALL SUBOPT_0x66
001cf5 940e 2815 	CALL SUBOPT_0x64
                 ; 0000 0361   drawCharZ(96, 0, 0x30 + chel, 1, 2);
001cf7 940e 2847 	CALL SUBOPT_0x6C
001cf9 940e 2781 	CALL SUBOPT_0x4D
001cfb 940e 282c 	CALL SUBOPT_0x69
001cfd 940e 277d 	CALL SUBOPT_0x4C
                 ; 0000 0362   drawStringZ(0, 16, " + ", 9, 1, 2);
001cff 940e 2824 	CALL SUBOPT_0x67
                +
001d01 e2e0     +LDI R30 , LOW ( 2 * _0x0 + ( 100 ) )
001d02 e2f6     +LDI R31 , HIGH ( 2 * _0x0 + ( 100 ) )
                 	__POINTW1FN _0x0,100
001d03 940e 27ae 	CALL SUBOPT_0x56
                 ; 0000 0363   drawStringZ(0, 32, " ", 9, 1, 2);
001d05 940e 2781 	CALL SUBOPT_0x4D
001d07 940e 2851 	CALL SUBOPT_0x6E
                +
001d09 e2ea     +LDI R30 , LOW ( 2 * _0x0 + ( 110 ) )
001d0a e2f6     +LDI R31 , HIGH ( 2 * _0x0 + ( 110 ) )
                 	__POINTW1FN _0x0,110
001d0b 940e 27ae 	CALL SUBOPT_0x56
                 ; 0000 0364   drawStringZ(0, 48, ".", 10, 1, 2);
001d0d 940e 2781 	CALL SUBOPT_0x4D
001d0f 940e 2856 	CALL SUBOPT_0x6F
                +
001d11 e3e4     +LDI R30 , LOW ( 2 * _0x0 + ( 120 ) )
001d12 e2f6     +LDI R31 , HIGH ( 2 * _0x0 + ( 120 ) )
                 	__POINTW1FN _0x0,120
001d13 940e 27d9 	CALL SUBOPT_0x5C
001d15 940e 27de 	CALL SUBOPT_0x5D
                 ; 0000 0365   display(0,0,127,7);
001d17 940e 2781 	CALL SUBOPT_0x4D
001d19 940e 2786 	CALL SUBOPT_0x4E
001d1b 940e 278b 	CALL SUBOPT_0x4F
                 ; 0000 0366   for(o=0;o<128;o++) { zvuk = 1 ; delay_us(200); zvuk = 0; delay_us(200); }
001d1d 24dd      	CLR  R13
001d1e 24ee      	CLR  R14
                 _0x17B:
001d1f 940e 27a3 	CALL SUBOPT_0x54
001d21 f42c      	BRGE _0x17C
001d22 940e 2719 	CALL SUBOPT_0x3E
001d24 940e 2724 	CALL SUBOPT_0x3F
001d26 cff8      	RJMP _0x17B
                 _0x17C:
                 ; 0000 0367   while(!ubr);
                 _0x181:
001d27 9b4a      	SBIS 0x9,2
001d28 cffe      	RJMP _0x181
                 ; 0000 0368   delay_ms(300);
001d29 e2ac      	LDI  R26,LOW(300)
001d2a e0b1      	LDI  R27,HIGH(300)
001d2b 940e 28e6 	CALL _delay_ms
                 ; 0000 0369   paus = 0;
001d2d 940e 285b 	CALL SUBOPT_0x70
                 ; 0000 036A     while(ubr & paus++<500)
                 _0x184:
001d2f e0e0      	LDI  R30,0
001d30 994a      	SBIC 0x9,2
001d31 e0e1      	LDI  R30,1
001d32 2e0e      	MOV  R0,R30
001d33 940e 2861 	CALL SUBOPT_0x71
001d35 9631      	ADIW R30,1
001d36 93fe      	ST   -X,R31
001d37 93ee      	ST   -X,R30
001d38 9731      	SBIW R30,1
001d39 01df      	MOVW R26,R30
001d3a efe4      	LDI  R30,LOW(500)
001d3b e0f1      	LDI  R31,HIGH(500)
001d3c 940e 292d 	CALL __LTW12U
001d3e 21e0      	AND  R30,R0
001d3f f019      	BREQ _0x186
                 ; 0000 036B     {
                 ; 0000 036C         delay_ms(10);
001d40 940e 2801 	CALL SUBOPT_0x60
                 ; 0000 036D 
                 ; 0000 036E     }
001d42 cfec      	RJMP _0x184
                 _0x186:
                 ; 0000 036F //=========================================
                 ; 0000 0370 //  
                 ; 0000 0371 //=========================================
                 ; 0000 0372         if (!dob)
001d43 9949      	SBIC 0x9,1
001d44 c067      	RJMP _0x187
                 ; 0000 0373         {
                 ; 0000 0374                 for(o=0;o<128;o++) { zvuk = 1 ; delay_us(200); zvuk = 0; delay_us(200); }
001d45 24dd      	CLR  R13
001d46 24ee      	CLR  R14
                 _0x189:
001d47 940e 27a3 	CALL SUBOPT_0x54
001d49 f42c      	BRGE _0x18A
001d4a 940e 2719 	CALL SUBOPT_0x3E
001d4c 940e 2724 	CALL SUBOPT_0x3F
001d4e cff8      	RJMP _0x189
                 _0x18A:
                 ; 0000 0375          paus = 0;
001d4f 940e 285b 	CALL SUBOPT_0x70
                 ; 0000 0376           clearDisplay();
001d51 940e 13b2 	CALL _clearDisplay
                 ; 0000 0377         drawStringZ(0, 16, " ? ", 10, 1, 2);
001d53 940e 2824 	CALL SUBOPT_0x67
                +
001d55 e3ef     +LDI R30 , LOW ( 2 * _0x0 + ( 131 ) )
001d56 e2f6     +LDI R31 , HIGH ( 2 * _0x0 + ( 131 ) )
                 	__POINTW1FN _0x0,131
001d57 940e 27d9 	CALL SUBOPT_0x5C
001d59 940e 27de 	CALL SUBOPT_0x5D
                 ; 0000 0378         drawStringZ(0, 32, "- ,+ ", 10, 1, 2);
001d5b 940e 2851 	CALL SUBOPT_0x6E
                +
001d5d e4ea     +LDI R30 , LOW ( 2 * _0x0 + ( 142 ) )
001d5e e2f6     +LDI R31 , HIGH ( 2 * _0x0 + ( 142 ) )
                 	__POINTW1FN _0x0,142
001d5f 940e 27d9 	CALL SUBOPT_0x5C
001d61 940e 27de 	CALL SUBOPT_0x5D
                 ; 0000 0379         display(0,2,127,5);
001d63 940e 279a 	CALL SUBOPT_0x52
001d65 e0a5      	LDI  R26,LOW(5)
001d66 e0b0      	LDI  R27,0
001d67 940e 15cf 	CALL _display
                 ; 0000 037A         delay_ms(400);
001d69 e9a0      	LDI  R26,LOW(400)
001d6a e0b1      	LDI  R27,HIGH(400)
001d6b 940e 28e6 	CALL _delay_ms
                 ; 0000 037B         while(!dob) #asm("wdr");
                 _0x18F:
001d6d 9949      	SBIC 0x9,1
001d6e c002      	RJMP _0x191
001d6f 95a8      	wdr
                 ; 0000 037C         while (ubr&&dob&&(paus<100)) {#asm("wdr") delay_ms(100); paus = paus+1;};
001d70 cffc      	RJMP _0x18F
                 _0x191:
                 _0x192:
001d71 9b4a      	SBIS 0x9,2
001d72 c00a      	RJMP _0x195
001d73 9b49      	SBIS 0x9,1
001d74 c008      	RJMP _0x195
001d75 91a0 0798 	LDS  R26,_paus
001d77 91b0 0799 	LDS  R27,_paus+1
001d79 36a4      	CPI  R26,LOW(0x64)
001d7a e0e0      	LDI  R30,HIGH(0x64)
001d7b 07be      	CPC  R27,R30
001d7c f008      	BRLO _0x196
                 _0x195:
001d7d c00d      	RJMP _0x194
                 _0x196:
001d7e 95a8      	wdr
001d7f e6a4      	LDI  R26,LOW(100)
001d80 e0b0      	LDI  R27,0
001d81 940e 28e6 	CALL _delay_ms
001d83 91e0 0798 	LDS  R30,_paus
001d85 91f0 0799 	LDS  R31,_paus+1
001d87 9631      	ADIW R30,1
001d88 940e 2866 	CALL SUBOPT_0x72
001d8a cfe6      	RJMP _0x192
                 _0x194:
                 ; 0000 037D             if(!dob)
001d8b 9949      	SBIC 0x9,1
001d8c c01f      	RJMP _0x197
                 ; 0000 037E             {
                 ; 0000 037F //        2
                 ; 0000 0380             bol[chel] = vibor();
001d8d 91e0 078a 	LDS  R30,_chel
001d8f e0f0      	LDI  R31,0
001d90 5fe6      	SUBI R30,LOW(-_bol)
001d91 4fff      	SBCI R31,HIGH(-_bol)
001d92 93ff      	PUSH R31
001d93 93ef      	PUSH R30
001d94 dc09      	RCALL _vibor
001d95 91af      	POP  R26
001d96 91bf      	POP  R27
001d97 940e 29de 	CALL __EEPROMWRB
                 ; 0000 0381             for(o=0;o<128;o++) { zvuk = 1 ; delay_us(200); zvuk = 0; delay_us(200); }
001d99 24dd      	CLR  R13
001d9a 24ee      	CLR  R14
                 _0x199:
001d9b 940e 27a3 	CALL SUBOPT_0x54
001d9d f42c      	BRGE _0x19A
001d9e 940e 2719 	CALL SUBOPT_0x3E
001da0 940e 2724 	CALL SUBOPT_0x3F
001da2 cff8      	RJMP _0x199
                 _0x19A:
                 ; 0000 0382             delay_ms(400);
001da3 e9a0      	LDI  R26,LOW(400)
001da4 e0b1      	LDI  R27,HIGH(400)
001da5 940e 28e6 	CALL _delay_ms
                 ; 0000 0383             seans[chel] = 0;
001da7 940e 286b 	CALL SUBOPT_0x73
001da9 e0e0      	LDI  R30,LOW(0)
001daa 940e 29de 	CALL __EEPROMWRB
                 ; 0000 0384             };
                 _0x197:
                 ; 0000 0385 
                 ; 0000 0386         };
                 _0x187:
                 ; 0000 0387 clearDisplay();
001dac 940e 13b2 	CALL _clearDisplay
                 ; 0000 0388 seans0=seans[chel];
001dae 940e 286b 	CALL SUBOPT_0x73
001db0 940e 29d2 	CALL __EEPROMRDB
001db2 93e0 0789 	STS  _seans0,R30
                 ; 0000 0389 bol0 = bol[chel];
001db4 91a0 078a 	LDS  R26,_chel
001db6 e0b0      	LDI  R27,0
001db7 5fa6      	SUBI R26,LOW(-_bol)
001db8 4fbf      	SBCI R27,HIGH(-_bol)
001db9 940e 29d2 	CALL __EEPROMRDB
001dbb 93e0 078c 	STS  _bol0,R30
                 ; 0000 038A     if (seans0 == 0)
001dbd 91e0 0789 	LDS  R30,_seans0
001dbf 30e0      	CPI  R30,0
001dc0 f571      	BRNE _0x19F
                 ; 0000 038B     {
                 ; 0000 038C     n=0;
001dc1 2477      	CLR  R7
001dc2 2488      	CLR  R8
                 ; 0000 038D         drawStringZ(0, 0, "   ", 7, 1, 3);
001dc3 940e 2781 	CALL SUBOPT_0x4D
001dc5 940e 2781 	CALL SUBOPT_0x4D
                +
001dc7 e5e5     +LDI R30 , LOW ( 2 * _0x0 + ( 153 ) )
001dc8 e2f6     +LDI R31 , HIGH ( 2 * _0x0 + ( 153 ) )
                 	__POINTW1FN _0x0,153
001dc9 940e 2871 	CALL SUBOPT_0x74
001dcb 940e 27cf 	CALL SUBOPT_0x5A
                 ; 0000 038E         drawStringZ(0, 32, "", 7, 1, 3);
001dcd 940e 2851 	CALL SUBOPT_0x6E
                +
001dcf e5ed     +LDI R30 , LOW ( 2 * _0x0 + ( 161 ) )
001dd0 e2f6     +LDI R31 , HIGH ( 2 * _0x0 + ( 161 ) )
                 	__POINTW1FN _0x0,161
001dd1 940e 2871 	CALL SUBOPT_0x74
001dd3 940e 27cf 	CALL SUBOPT_0x5A
                 ; 0000 038F         display(0,0,127,7);
001dd5 940e 2781 	CALL SUBOPT_0x4D
001dd7 940e 2786 	CALL SUBOPT_0x4E
001dd9 940e 278b 	CALL SUBOPT_0x4F
                 ; 0000 0390         while(n++<20)
                 _0x1A0:
001ddb 940e 2876 	CALL SUBOPT_0x75
001ddd f46c      	BRGE _0x1A2
                 ; 0000 0391         {
                 ; 0000 0392             delay_ms(30);                      //  20 
001dde 940e 287d 	CALL SUBOPT_0x76
                 ; 0000 0393             for(o=0;o<96;o++) { zvuk = 1 ; delay_us(300); zvuk = 0; delay_us(300); }
                 _0x1A4:
001de0 e6e0      	LDI  R30,LOW(96)
001de1 e0f0      	LDI  R31,HIGH(96)
001de2 16de      	CP   R13,R30
001de3 06ef      	CPC  R14,R31
001de4 f42c      	BRGE _0x1A5
001de5 940e 2884 	CALL SUBOPT_0x77
001de7 940e 2724 	CALL SUBOPT_0x3F
001de9 cff6      	RJMP _0x1A4
                 _0x1A5:
                 ; 0000 0394         }
001dea cff0      	RJMP _0x1A0
                 _0x1A2:
                 ; 0000 0395     n=290;
001deb e2e2      	LDI  R30,LOW(290)
001dec e0f1      	LDI  R31,HIGH(290)
                +
001ded 2e7e     +MOV R7 , R30
001dee 2e8f     +MOV R8 , R31
                 	__PUTW1R 7,8
                 ; 0000 0396     }
                 ; 0000 0397 clearDisplay();
                 _0x19F:
001def 940e 27d6 	CALL SUBOPT_0x5B
                 ; 0000 0398 drawStringZ(0, 0, ". No ", 8, 1, 2);
001df1 940e 2781 	CALL SUBOPT_0x4D
                +
001df3 e6e5     +LDI R30 , LOW ( 2 * _0x0 + ( 169 ) )
001df4 e2f6     +LDI R31 , HIGH ( 2 * _0x0 + ( 169 ) )
                 	__POINTW1FN _0x0,169
001df5 940e 281f 	CALL SUBOPT_0x66
001df7 940e 2815 	CALL SUBOPT_0x64
                 ; 0000 0399 i = bol0;
001df9 9030 078c 	LDS  R3,_bol0
001dfb 2444      	CLR  R4
                 ; 0000 039A     if(i<10)
001dfc e0ea      	LDI  R30,LOW(10)
001dfd e0f0      	LDI  R31,HIGH(10)
001dfe 163e      	CP   R3,R30
001dff 064f      	CPC  R4,R31
001e00 f424      	BRGE _0x1AA
                 ; 0000 039B     {
                 ; 0000 039C         drawCharZ(104,0,'0',1, 2);
001e01 940e 288f 	CALL SUBOPT_0x78
001e03 e3e0      	LDI  R30,LOW(48)
001e04 c01d      	RJMP _0x288
                 ; 0000 039D         drawCharZ(116,0,0x30+i,1, 2);
                 ; 0000 039E     }
                 ; 0000 039F     else if(i < 100)
                 _0x1AA:
001e05 e6e4      	LDI  R30,LOW(100)
001e06 e0f0      	LDI  R31,HIGH(100)
001e07 163e      	CP   R3,R30
001e08 064f      	CPC  R4,R31
001e09 f54c      	BRGE _0x1AC
                 ; 0000 03A0     {
                 ; 0000 03A1         a = i/10;
                +
001e0a 2da3     +MOV R26 , R3
001e0b 2db4     +MOV R27 , R4
                 	__GETW2R 3,4
001e0c e0ea      	LDI  R30,LOW(10)
001e0d e0f0      	LDI  R31,HIGH(10)
001e0e 940e 2967 	CALL __DIVW21
001e10 93e0 0794 	STS  _a,R30
001e12 93f0 0795 	STS  _a+1,R31
                 ; 0000 03A2         i -= a*10;
001e14 91a0 0794 	LDS  R26,_a
001e16 91b0 0795 	LDS  R27,_a+1
001e18 e0ea      	LDI  R30,LOW(10)
001e19 940e 2949 	CALL __MULB1W2U
                +
001e1b 1a3e     +SUB R3 , R30
001e1c 0a4f     +SBC R4 , R31
                 	__SUBWRR 3,4,30,31
                 ; 0000 03A3         drawCharZ(104,0,0x30+a,1, 2);
001e1d 940e 288f 	CALL SUBOPT_0x78
001e1f 91e0 0794 	LDS  R30,_a
001e21 5de0      	SUBI R30,-LOW(48)
                 _0x288:
001e22 93ea      	ST   -Y,R30
001e23 e0e1      	LDI  R30,LOW(1)
001e24 e0f0      	LDI  R31,HIGH(1)
001e25 93fa      	ST   -Y,R31
001e26 93ea      	ST   -Y,R30
001e27 940e 277d 	CALL SUBOPT_0x4C
                 ; 0000 03A4         drawCharZ(116,0,0x30+i,1, 2);
001e29 e7e4      	LDI  R30,LOW(116)
001e2a e0f0      	LDI  R31,HIGH(116)
001e2b 940e 2894 	CALL SUBOPT_0x79
001e2d 2de3      	MOV  R30,R3
001e2e 5de0      	SUBI R30,-LOW(48)
001e2f 940e 26e4 	CALL SUBOPT_0x38
001e31 940e 277d 	CALL SUBOPT_0x4C
                 ; 0000 03A5     }
                 ; 0000 03A6 
                 ; 0000 03A7 rezh0 = rezhimi[bol0][seans0] ;
                 _0x1AC:
001e33 940e 2897 	CALL SUBOPT_0x7A
001e35 01df      	MOVW R26,R30
001e36 91e0 0789 	LDS  R30,_seans0
001e38 e0f0      	LDI  R31,0
001e39 0fea      	ADD  R30,R26
001e3a 1ffb      	ADC  R31,R27
001e3b 9004      	LPM  R0,Z
001e3c 9200 079f 	STS  _rezh0,R0
                 ; 0000 03A8 drawCharZ(0, 16, rezh0+0x30, 1, 2);
001e3e 940e 2824 	CALL SUBOPT_0x67
001e40 91e0 079f 	LDS  R30,_rezh0
001e42 5de0      	SUBI R30,-LOW(48)
001e43 940e 26e4 	CALL SUBOPT_0x38
001e45 940e 277d 	CALL SUBOPT_0x4C
                 ; 0000 03A9 drawStringZ(12, 16, "  ", 7, 1, 2);
001e47 e0ec      	LDI  R30,LOW(12)
001e48 e0f0      	LDI  R31,HIGH(12)
001e49 940e 276f 	CALL SUBOPT_0x4A
                +
001e4b e6ee     +LDI R30 , LOW ( 2 * _0x0 + ( 178 ) )
001e4c e2f6     +LDI R31 , HIGH ( 2 * _0x0 + ( 178 ) )
                 	__POINTW1FN _0x0,178
001e4d 940e 2871 	CALL SUBOPT_0x74
001e4f 940e 27de 	CALL SUBOPT_0x5D
                 ; 0000 03AA drawCharZ(0, 32, chel+0x30, 1, 2);
001e51 940e 2851 	CALL SUBOPT_0x6E
001e53 940e 282c 	CALL SUBOPT_0x69
001e55 940e 277d 	CALL SUBOPT_0x4C
                 ; 0000 03AB drawStringZ(12, 32, "", 7, 1, 2);
001e57 e0ec      	LDI  R30,LOW(12)
001e58 e0f0      	LDI  R31,HIGH(12)
001e59 93fa      	ST   -Y,R31
001e5a 93ea      	ST   -Y,R30
001e5b 940e 2851 	CALL SUBOPT_0x6E
                +
001e5d e7e6     +LDI R30 , LOW ( 2 * _0x0 + ( 186 ) )
001e5e e2f6     +LDI R31 , HIGH ( 2 * _0x0 + ( 186 ) )
                 	__POINTW1FN _0x0,186
001e5f 940e 2871 	CALL SUBOPT_0x74
001e61 940e 27de 	CALL SUBOPT_0x5D
                 ; 0000 03AC drawCharZ(0, 48, seans0+0x30, 1, 2);
001e63 940e 2856 	CALL SUBOPT_0x6F
001e65 91e0 0789 	LDS  R30,_seans0
001e67 5de0      	SUBI R30,-LOW(48)
001e68 940e 26e4 	CALL SUBOPT_0x38
001e6a 940e 277d 	CALL SUBOPT_0x4C
                 ; 0000 03AD drawStringZ(12, 48, "  ", 7, 1, 2);
001e6c e0ec      	LDI  R30,LOW(12)
001e6d e0f0      	LDI  R31,HIGH(12)
001e6e 93fa      	ST   -Y,R31
001e6f 93ea      	ST   -Y,R30
001e70 940e 2856 	CALL SUBOPT_0x6F
                +
001e72 e7ee     +LDI R30 , LOW ( 2 * _0x0 + ( 194 ) )
001e73 e2f6     +LDI R31 , HIGH ( 2 * _0x0 + ( 194 ) )
                 	__POINTW1FN _0x0,194
001e74 940e 2871 	CALL SUBOPT_0x74
001e76 940e 27de 	CALL SUBOPT_0x5D
                 ; 0000 03AE display(0,0,127,7);
001e78 940e 2781 	CALL SUBOPT_0x4D
001e7a 940e 2786 	CALL SUBOPT_0x4E
001e7c 940e 278b 	CALL SUBOPT_0x4F
                 ; 0000 03AF for(o=0;o<128;o++) { zvuk = 1 ; delay_us(200); zvuk = 0; delay_us(200); }
001e7e 24dd      	CLR  R13
001e7f 24ee      	CLR  R14
                 _0x1AE:
001e80 940e 27a3 	CALL SUBOPT_0x54
001e82 f42c      	BRGE _0x1AF
001e83 940e 2719 	CALL SUBOPT_0x3E
001e85 940e 2724 	CALL SUBOPT_0x3F
001e87 cff8      	RJMP _0x1AE
                 _0x1AF:
                 ; 0000 03B0 delay_ms(1000);
001e88 940e 281b 	CALL SUBOPT_0x65
                 ; 0000 03B1 paus = 0;
001e8a 940e 285b 	CALL SUBOPT_0x70
                 ; 0000 03B2 vrem = 0;
001e8c e0e0      	LDI  R30,LOW(0)
001e8d 93e0 078b 	STS  _vrem,R30
                 ; 0000 03B3 #asm("wdr")
001e8f 95a8      	wdr
                 ; 0000 03B4 PORTC = 0b1000000;
001e90 e4e0      	LDI  R30,LOW(64)
001e91 b9e8      	OUT  0x8,R30
                 ; 0000 03B5 timer = 18600000;
                +
001e92 e4e0     +LDI R30 , LOW ( 0x11BD040 )
001e93 edf0     +LDI R31 , HIGH ( 0x11BD040 )
001e94 e16b     +LDI R22 , BYTE3 ( 0x11BD040 )
001e95 e071     +LDI R23 , BYTE4 ( 0x11BD040 )
                 	__GETD1N 0x11BD040
001e96 940e 2656 	CALL SUBOPT_0x2C
                 ; 0000 03B6 clearDisplay();
001e98 940e 13b2 	CALL _clearDisplay
                 ; 0000 03B7 for (n = 0; n < 42; n++) drawChar(6*n+2,0,bolezni[bol0][n]);
001e9a 2477      	CLR  R7
001e9b 2488      	CLR  R8
                 _0x1B5:
001e9c e2ea      	LDI  R30,LOW(42)
001e9d e0f0      	LDI  R31,HIGH(42)
001e9e 167e      	CP   R7,R30
001e9f 068f      	CPC  R8,R31
001ea0 f4a4      	BRGE _0x1B6
001ea1 940e 2739 	CALL SUBOPT_0x43
001ea3 9632      	ADIW R30,2
001ea4 940e 2894 	CALL SUBOPT_0x79
001ea6 91e0 078c 	LDS  R30,_bol0
001ea8 e6a7      	LDI  R26,LOW(103)
001ea9 9fea      	MUL  R30,R26
001eaa 01f0      	MOVW R30,R0
001eab 59e8      	SUBI R30,LOW(-_bolezni*2)
001eac 4ff3      	SBCI R31,HIGH(-_bolezni*2)
001ead 0de7      	ADD  R30,R7
001eae 1df8      	ADC  R31,R8
001eaf 91a4      	LPM  R26,Z
001eb0 940e 14a7 	CALL _drawChar
001eb2 940e 2756 	CALL SUBOPT_0x46
001eb4 cfe7      	RJMP _0x1B5
                 _0x1B6:
                 ; 0000 03B8 display(0,0,127,1);
001eb5 940e 2781 	CALL SUBOPT_0x4D
001eb7 940e 2781 	CALL SUBOPT_0x4D
001eb9 940e 2786 	CALL SUBOPT_0x4E
001ebb e0a1      	LDI  R26,LOW(1)
001ebc e0b0      	LDI  R27,0
001ebd 940e 15cf 	CALL _display
                 ; 0000 03B9 for(o=0;o<128;o++) { zvuk = 1 ; delay_us(200); zvuk = 0; delay_us(200); }
001ebf 24dd      	CLR  R13
001ec0 24ee      	CLR  R14
                 _0x1B8:
001ec1 940e 27a3 	CALL SUBOPT_0x54
001ec3 f42c      	BRGE _0x1B9
001ec4 940e 2719 	CALL SUBOPT_0x3E
001ec6 940e 2724 	CALL SUBOPT_0x3F
001ec8 cff8      	RJMP _0x1B8
                 _0x1B9:
                 ; 0000 03BA }
                 ; 0000 03BB else
001ec9 c01a      	RJMP _0x1BE
                 _0x151:
                 ; 0000 03BC {
                 ; 0000 03BD       clearDisplay();
001eca 940e 27d6 	CALL SUBOPT_0x5B
                 ; 0000 03BE       drawStringZ(0, 0, "+", 10, 1, 2);
001ecc 940e 2781 	CALL SUBOPT_0x4D
                +
001ece e8e6     +LDI R30 , LOW ( 2 * _0x0 + ( 202 ) )
001ecf e2f6     +LDI R31 , HIGH ( 2 * _0x0 + ( 202 ) )
                 	__POINTW1FN _0x0,202
001ed0 940e 27d9 	CALL SUBOPT_0x5C
001ed2 940e 2815 	CALL SUBOPT_0x64
                 ; 0000 03BF       drawStringZ(30, 48, "+", 7, 1, 2);
001ed4 940e 2810 	CALL SUBOPT_0x63
001ed6 940e 2856 	CALL SUBOPT_0x6F
                +
001ed8 e9e1     +LDI R30 , LOW ( 2 * _0x0 + ( 213 ) )
001ed9 e2f6     +LDI R31 , HIGH ( 2 * _0x0 + ( 213 ) )
                 	__POINTW1FN _0x0,213
001eda 940e 2871 	CALL SUBOPT_0x74
001edc 940e 27de 	CALL SUBOPT_0x5D
                 ; 0000 03C0       display(0,0,127,7);
001ede 940e 2781 	CALL SUBOPT_0x4D
001ee0 940e 2786 	CALL SUBOPT_0x4E
001ee2 940e 278b 	CALL SUBOPT_0x4F
                 ; 0000 03C1 }
                 _0x1BE:
                 ; 0000 03C2 
                 ; 0000 03C3 
                 ; 0000 03C4 drawStringZ(30, 16, "", 7, 1, 2);
001ee4 e1ee      	LDI  R30,LOW(30)
001ee5 e0f0      	LDI  R31,HIGH(30)
001ee6 940e 276f 	CALL SUBOPT_0x4A
                +
001ee8 e9e9     +LDI R30 , LOW ( 2 * _0x0 + ( 221 ) )
001ee9 e2f6     +LDI R31 , HIGH ( 2 * _0x0 + ( 221 ) )
                 	__POINTW1FN _0x0,221
001eea 940e 2871 	CALL SUBOPT_0x74
001eec 940e 2815 	CALL SUBOPT_0x64
                 ; 0000 03C5 drawStringZ(30, 32, "-()", 7, 1, 2);
001eee 940e 2810 	CALL SUBOPT_0x63
001ef0 940e 2851 	CALL SUBOPT_0x6E
                +
001ef2 eae1     +LDI R30 , LOW ( 2 * _0x0 + ( 229 ) )
001ef3 e2f6     +LDI R31 , HIGH ( 2 * _0x0 + ( 229 ) )
                 	__POINTW1FN _0x0,229
001ef4 940e 2871 	CALL SUBOPT_0x74
001ef6 940e 2815 	CALL SUBOPT_0x64
                 ; 0000 03C6 for(o=0;o<128;o++) { zvuk = 1 ; delay_us(200); zvuk = 0; delay_us(200); }
001ef8 24dd      	CLR  R13
001ef9 24ee      	CLR  R14
                 _0x1C0:
001efa 940e 27a3 	CALL SUBOPT_0x54
001efc f42c      	BRGE _0x1C1
001efd 940e 2719 	CALL SUBOPT_0x3E
001eff 940e 2724 	CALL SUBOPT_0x3F
001f01 cff8      	RJMP _0x1C0
                 _0x1C1:
                 ; 0000 03C7 display(24,2,127,7);
001f02 940e 289f 	CALL SUBOPT_0x7B
001f04 940e 278b 	CALL SUBOPT_0x4F
                 ; 0000 03C8 clearDisplay();
001f06 940e 13b2 	CALL _clearDisplay
                 ; 0000 03C9 while(ubr & dob & paus++<1000)
                 _0x1C6:
001f08 940e 27ea 	CALL SUBOPT_0x5F
001f0a f019      	BREQ _0x1C8
                 ; 0000 03CA {
                 ; 0000 03CB     delay_ms(10);
001f0b 940e 2801 	CALL SUBOPT_0x60
                 ; 0000 03CC 
                 ; 0000 03CD }
001f0d cffa      	RJMP _0x1C6
                 _0x1C8:
                 ; 0000 03CE delay_ms(50);
001f0e 940e 2805 	CALL SUBOPT_0x61
                 ; 0000 03CF if(reg1)
001f10 9bf5      	SBIS 0x1E,5
001f11 c12c      	RJMP _0x1C9
                 ; 0000 03D0 {
                 ; 0000 03D1     if(!fubr)
001f12 fc20      	SBRC R2,0
001f13 c045      	RJMP _0x1CA
                 ; 0000 03D2     {
                 ; 0000 03D3         reg2 = 1;
001f14 9af6      	SBI  0x1E,6
                 ; 0000 03D4       clearDisplay();
001f15 940e 27d6 	CALL SUBOPT_0x5B
                 ; 0000 03D5       drawStringZ(0, 0, "SinP 014mS", 10, 1, 2);
001f17 940e 2781 	CALL SUBOPT_0x4D
                +
001f19 eae9     +LDI R30 , LOW ( 2 * _0x0 + ( 237 ) )
001f1a e2f6     +LDI R31 , HIGH ( 2 * _0x0 + ( 237 ) )
                 	__POINTW1FN _0x0,237
001f1b 940e 27d9 	CALL SUBOPT_0x5C
001f1d 940e 27de 	CALL SUBOPT_0x5D
                 ; 0000 03D6       drawChar(0,2,'');
001f1f 940e 28a4 	CALL SUBOPT_0x7C
001f21 eca3      	LDI  R26,LOW(195)
001f22 940e 28a9 	CALL SUBOPT_0x7D
                 ; 0000 03D7       drawChar(0,3,'');
001f24 e0e3      	LDI  R30,LOW(3)
001f25 e0f0      	LDI  R31,HIGH(3)
001f26 93fa      	ST   -Y,R31
001f27 93ea      	ST   -Y,R30
001f28 eea8      	LDI  R26,LOW(232)
001f29 940e 28a9 	CALL SUBOPT_0x7D
                 ; 0000 03D8       drawChar(0,4,'');
001f2b e0e4      	LDI  R30,LOW(4)
001f2c e0f0      	LDI  R31,HIGH(4)
001f2d 93fa      	ST   -Y,R31
001f2e 93ea      	ST   -Y,R30
001f2f eeaf      	LDI  R26,LOW(239)
001f30 940e 28a9 	CALL SUBOPT_0x7D
                 ; 0000 03D9       drawChar(0,5,'');
001f32 940e 284c 	CALL SUBOPT_0x6D
001f34 eead      	LDI  R26,LOW(237)
001f35 940e 28a9 	CALL SUBOPT_0x7D
                 ; 0000 03DA       drawChar(0,6,'');
001f37 e0e6      	LDI  R30,LOW(6)
001f38 e0f0      	LDI  R31,HIGH(6)
001f39 93fa      	ST   -Y,R31
001f3a 93ea      	ST   -Y,R30
001f3b eeae      	LDI  R26,LOW(238)
001f3c 940e 28a9 	CALL SUBOPT_0x7D
                 ; 0000 03DB       drawChar(0,7,'');
001f3e e0e7      	LDI  R30,LOW(7)
001f3f e0f0      	LDI  R31,HIGH(7)
001f40 93fa      	ST   -Y,R31
001f41 93ea      	ST   -Y,R30
001f42 eea7      	LDI  R26,LOW(231)
001f43 940e 28a9 	CALL SUBOPT_0x7D
                 ; 0000 03DC       display(0,0,127,7);
001f45 940e 2781 	CALL SUBOPT_0x4D
001f47 940e 2786 	CALL SUBOPT_0x4E
001f49 940e 278b 	CALL SUBOPT_0x4F
                 ; 0000 03DD       period = 64736;
001f4b eee0      	LDI  R30,LOW(64736)
001f4c effc      	LDI  R31,HIGH(64736)
001f4d 940e 25d6 	CALL SUBOPT_0x1B
                 ; 0000 03DE       timer = 18000000;
                +
001f4f e8e0     +LDI R30 , LOW ( 0x112A880 )
001f50 eaf8     +LDI R31 , HIGH ( 0x112A880 )
001f51 e162     +LDI R22 , BYTE3 ( 0x112A880 )
001f52 e071     +LDI R23 , BYTE4 ( 0x112A880 )
                 	__GETD1N 0x112A880
001f53 940e 2656 	CALL SUBOPT_0x2C
                 ; 0000 03DF       TIMSK2=(0<<OCIE2B) | (0<<OCIE2A) | (1<<TOIE2);
001f55 e0e1      	LDI  R30,LOW(1)
001f56 93e0 0070 	STS  112,R30
                 ; 0000 03E0     }
                 ; 0000 03E1     else
001f58 c0e5      	RJMP _0x1CD
                 _0x1CA:
                 ; 0000 03E2     {
                 ; 0000 03E3       fubr = 0;
001f59 94e8      	CLT
001f5a f820      	BLD  R2,0
                 ; 0000 03E4       clearDisplay();
001f5b 940e 13b2 	CALL _clearDisplay
                 ; 0000 03E5       timer = 3300000;
001f5d 940e 28ac 	CALL SUBOPT_0x7E
                 ; 0000 03E6       drawStringZ(0, 0, "", 9, 1, 2);
001f5f 940e 2781 	CALL SUBOPT_0x4D
001f61 940e 2781 	CALL SUBOPT_0x4D
                +
001f63 ebe4     +LDI R30 , LOW ( 2 * _0x0 + ( 248 ) )
001f64 e2f6     +LDI R31 , HIGH ( 2 * _0x0 + ( 248 ) )
                 	__POINTW1FN _0x0,248
001f65 940e 27ae 	CALL SUBOPT_0x56
                 ; 0000 03E7       drawStringZ(0, 16, "", 7, 1, 2);
001f67 940e 2824 	CALL SUBOPT_0x67
                +
001f69 ebee     +LDI R30 , LOW ( 2 * _0x0 + ( 258 ) )
001f6a e2f6     +LDI R31 , HIGH ( 2 * _0x0 + ( 258 ) )
                 	__POINTW1FN _0x0,258
001f6b 940e 2871 	CALL SUBOPT_0x74
001f6d 940e 2815 	CALL SUBOPT_0x64
                 ; 0000 03E8       timeZ(30,40,timer/10000,3);
001f6f 940e 2810 	CALL SUBOPT_0x63
001f71 940e 27e5 	CALL SUBOPT_0x5E
001f73 940e 28b1 	CALL SUBOPT_0x7F
                 ; 0000 03E9       display(0,0,127,7);
001f75 940e 2781 	CALL SUBOPT_0x4D
001f77 940e 2786 	CALL SUBOPT_0x4E
001f79 940e 278b 	CALL SUBOPT_0x4F
                 ; 0000 03EA       for(o=0;o<128;o++) { zvuk = 1 ; delay_us(200); zvuk = 0; delay_us(200); }
001f7b 24dd      	CLR  R13
001f7c 24ee      	CLR  R14
                 _0x1CF:
001f7d 940e 27a3 	CALL SUBOPT_0x54
001f7f f42c      	BRGE _0x1D0
001f80 940e 2719 	CALL SUBOPT_0x3E
001f82 940e 2724 	CALL SUBOPT_0x3F
001f84 cff8      	RJMP _0x1CF
                 _0x1D0:
                 ; 0000 03EB       flag0 = 1;
001f85 9af7      	SBI  0x1E,7
                 ; 0000 03EC       paus = 150;
001f86 940e 28bf 	CALL SUBOPT_0x80
                 ; 0000 03ED      while (flag0 & --paus > 0)
                 _0x1D7:
001f88 e0e0      	LDI  R30,0
001f89 99f7      	SBIC 0x1E,7
001f8a e0e1      	LDI  R30,1
001f8b 2e0e      	MOV  R0,R30
001f8c 940e 2861 	CALL SUBOPT_0x71
001f8e 9731      	SBIW R30,1
001f8f 93fe      	ST   -X,R31
001f90 93ee      	ST   -X,R30
001f91 01df      	MOVW R26,R30
001f92 e0e0      	LDI  R30,LOW(0)
001f93 e0f0      	LDI  R31,HIGH(0)
001f94 940e 2933 	CALL __GTW12U
001f96 21e0      	AND  R30,R0
001f97 f409      	BRNE PC+2
001f98 c06f      	RJMP _0x1D9
                 ; 0000 03EE       {
                 ; 0000 03EF         if(!dob)
001f99 9949      	SBIC 0x9,1
001f9a c01b      	RJMP _0x1DA
                 ; 0000 03F0         {
                 ; 0000 03F1             delay_ms(200);
001f9b 940e 26f4 	CALL SUBOPT_0x3A
                 ; 0000 03F2             paus = 150;
001f9d 940e 28bf 	CALL SUBOPT_0x80
                 ; 0000 03F3             while(!dob& time++<65000);
                 _0x1DB:
001f9f 940e 26f8 	CALL SUBOPT_0x3B
001fa1 940e 2830 	CALL SUBOPT_0x6A
001fa3 f7d9      	BRNE _0x1DB
                 ; 0000 03F4             for(o=0;o<32;o++) { zvuk = 1 ; delay_us(200); zvuk = 0; delay_us(200); }
001fa4 24dd      	CLR  R13
001fa5 24ee      	CLR  R14
                 _0x1DF:
001fa6 940e 2714 	CALL SUBOPT_0x3D
001fa8 f42c      	BRGE _0x1E0
001fa9 940e 2719 	CALL SUBOPT_0x3E
001fab 940e 2724 	CALL SUBOPT_0x3F
001fad cff8      	RJMP _0x1DF
                 _0x1E0:
                 ; 0000 03F5             timer += 3000000;
001fae 940e 25cd 	CALL SUBOPT_0x1A
                +
001fb0 54e0     +SUBI R30 , LOW ( - 3000000 )
001fb1 43f9     +SBCI R31 , HIGH ( - 3000000 )
001fb2 4d62     +SBCI R22 , BYTE3 ( - 3000000 )
001fb3 4f7f     +SBCI R23 , BYTE4 ( - 3000000 )
                 	__ADDD1N 3000000
001fb4 940e 2656 	CALL SUBOPT_0x2C
                 ; 0000 03F6         }
                 ; 0000 03F7         if(!ubr)
                 _0x1DA:
001fb6 994a      	SBIC 0x9,2
001fb7 c020      	RJMP _0x1E5
                 ; 0000 03F8         {
                 ; 0000 03F9             delay_ms(200);
001fb8 940e 26f4 	CALL SUBOPT_0x3A
                 ; 0000 03FA             paus = 150;
001fba 940e 28bf 	CALL SUBOPT_0x80
                 ; 0000 03FB             while(!ubr & time++<65000) ;
                 _0x1E6:
001fbc 940e 2729 	CALL SUBOPT_0x40
001fbe 940e 2830 	CALL SUBOPT_0x6A
001fc0 f7d9      	BRNE _0x1E6
                 ; 0000 03FC             for(o=0;o<32;o++) { zvuk = 1 ; delay_us(200); zvuk = 0; delay_us(200); }
001fc1 24dd      	CLR  R13
001fc2 24ee      	CLR  R14
                 _0x1EA:
001fc3 940e 2714 	CALL SUBOPT_0x3D
001fc5 f42c      	BRGE _0x1EB
001fc6 940e 2719 	CALL SUBOPT_0x3E
001fc8 940e 2724 	CALL SUBOPT_0x3F
001fca cff8      	RJMP _0x1EA
                 _0x1EB:
                 ; 0000 03FD             if (time>=65000) flag0 = 0;
001fcb 940e 283f 	CALL SUBOPT_0x6B
001fcd f010      	BRLO _0x1F0
001fce 98f7      	CBI  0x1E,7
                 ; 0000 03FE             else timer -= 3000000;
001fcf c008      	RJMP _0x1F3
                 _0x1F0:
001fd0 940e 25cd 	CALL SUBOPT_0x1A
                +
001fd2 5ce0     +SUBI R30 , LOW ( 3000000 )
001fd3 4cf6     +SBCI R31 , HIGH ( 3000000 )
001fd4 426d     +SBCI R22 , BYTE3 ( 3000000 )
001fd5 4070     +SBCI R23 , BYTE4 ( 3000000 )
                 	__SUBD1N 3000000
001fd6 940e 2656 	CALL SUBOPT_0x2C
                 ; 0000 03FF         }
                 _0x1F3:
                 ; 0000 0400         time = 0;
                 _0x1E5:
001fd8 e0e0      	LDI  R30,LOW(0)
001fd9 93e0 079a 	STS  _time,R30
001fdb 93e0 079b 	STS  _time+1,R30
                 ; 0000 0401         if(timer < 3300000) timer = 3300000;
001fdd 940e 25c4 	CALL SUBOPT_0x19
                +
001fdf 3aa0     +CPI R26 , LOW ( 0x325AA0 )
001fe0 e5ea     +LDI R30 , HIGH ( 0x325AA0 )
001fe1 07be     +CPC R27 , R30
001fe2 e3e2     +LDI R30 , BYTE3 ( 0x325AA0 )
001fe3 078e     +CPC R24 , R30
001fe4 e0e0     +LDI R30 , BYTE4 ( 0x325AA0 )
001fe5 079e     +CPC R25 , R30
                 	__CPD2N 0x325AA0
001fe6 f414      	BRGE _0x1F4
001fe7 940e 28ac 	CALL SUBOPT_0x7E
                 ; 0000 0402         if(timer > 57300000) timer = 57300000;
                 _0x1F4:
001fe9 940e 25c4 	CALL SUBOPT_0x19
                +
001feb 32a1     +CPI R26 , LOW ( 0x36A5421 )
001fec e5e4     +LDI R30 , HIGH ( 0x36A5421 )
001fed 07be     +CPC R27 , R30
001fee e6ea     +LDI R30 , BYTE3 ( 0x36A5421 )
001fef 078e     +CPC R24 , R30
001ff0 e0e3     +LDI R30 , BYTE4 ( 0x36A5421 )
001ff1 079e     +CPC R25 , R30
                 	__CPD2N 0x36A5421
001ff2 f034      	BRLT _0x1F5
                +
001ff3 e2e0     +LDI R30 , LOW ( 0x36A5420 )
001ff4 e5f4     +LDI R31 , HIGH ( 0x36A5420 )
001ff5 e66a     +LDI R22 , BYTE3 ( 0x36A5420 )
001ff6 e073     +LDI R23 , BYTE4 ( 0x36A5420 )
                 	__GETD1N 0x36A5420
001ff7 940e 2656 	CALL SUBOPT_0x2C
                 ; 0000 0403         clearDisplay();
                 _0x1F5:
001ff9 940e 13b2 	CALL _clearDisplay
                 ; 0000 0404         timeZ(30,40,timer/10000,3);
001ffb 940e 2810 	CALL SUBOPT_0x63
001ffd 940e 27e5 	CALL SUBOPT_0x5E
001fff 940e 28b1 	CALL SUBOPT_0x7F
                 ; 0000 0405         display(0,5,127,7);
002001 940e 284c 	CALL SUBOPT_0x6D
002003 940e 2786 	CALL SUBOPT_0x4E
002005 940e 278b 	CALL SUBOPT_0x4F
                 ; 0000 0406 
                 ; 0000 0407       }
002007 cf80      	RJMP _0x1D7
                 _0x1D9:
                 ; 0000 0408       clearDisplay();
002008 940e 27d6 	CALL SUBOPT_0x5B
                 ; 0000 0409       drawStringZ(0, 0, "77 0.5mS", 10, 1, 2);
00200a 940e 2781 	CALL SUBOPT_0x4D
                +
00200c ece6     +LDI R30 , LOW ( 2 * _0x0 + ( 266 ) )
00200d e2f6     +LDI R31 , HIGH ( 2 * _0x0 + ( 266 ) )
                 	__POINTW1FN _0x0,266
00200e 940e 27d9 	CALL SUBOPT_0x5C
002010 940e 27de 	CALL SUBOPT_0x5D
                 ; 0000 040A       drawChar(0,2,'');
002012 940e 28a4 	CALL SUBOPT_0x7C
002014 eda2      	LDI  R26,LOW(210)
002015 940e 28a9 	CALL SUBOPT_0x7D
                 ; 0000 040B       drawChar(0,3,'');
002017 e0e3      	LDI  R30,LOW(3)
002018 e0f0      	LDI  R31,HIGH(3)
002019 93fa      	ST   -Y,R31
00201a 93ea      	ST   -Y,R30
00201b efa0      	LDI  R26,LOW(240)
00201c 940e 28a9 	CALL SUBOPT_0x7D
                 ; 0000 040C       drawChar(0,4,'');
00201e e0e4      	LDI  R30,LOW(4)
00201f e0f0      	LDI  R31,HIGH(4)
002020 93fa      	ST   -Y,R31
002021 93ea      	ST   -Y,R30
002022 eea0      	LDI  R26,LOW(224)
002023 940e 28a9 	CALL SUBOPT_0x7D
                 ; 0000 040D       drawChar(0,5,'');
002025 940e 284c 	CALL SUBOPT_0x6D
002027 eead      	LDI  R26,LOW(237)
002028 940e 28a9 	CALL SUBOPT_0x7D
                 ; 0000 040E       drawChar(0,6,'');
00202a e0e6      	LDI  R30,LOW(6)
00202b e0f0      	LDI  R31,HIGH(6)
00202c 93fa      	ST   -Y,R31
00202d 93ea      	ST   -Y,R30
00202e efa1      	LDI  R26,LOW(241)
00202f 940e 28a9 	CALL SUBOPT_0x7D
                 ; 0000 040F       drawChar(0,7,'');
002031 e0e7      	LDI  R30,LOW(7)
002032 e0f0      	LDI  R31,HIGH(7)
002033 93fa      	ST   -Y,R31
002034 93ea      	ST   -Y,R30
002035 eea0      	LDI  R26,LOW(224)
002036 940e 28a9 	CALL SUBOPT_0x7D
                 ; 0000 0410       display(0,0,127,7);
002038 940e 2781 	CALL SUBOPT_0x4D
00203a 940e 2786 	CALL SUBOPT_0x4E
00203c 940e 278b 	CALL SUBOPT_0x4F
                 ; 0000 0411     }
                 _0x1CD:
                 ; 0000 0412 }
                 ; 0000 0413 for(o=0;o<32;o++) { zvuk = 1 ; delay_us(200); zvuk = 0; delay_us(200); }
                 _0x1C9:
00203e 24dd      	CLR  R13
00203f 24ee      	CLR  R14
                 _0x1F7:
002040 940e 2714 	CALL SUBOPT_0x3D
002042 f42c      	BRGE _0x1F8
002043 940e 2719 	CALL SUBOPT_0x3E
002045 940e 2724 	CALL SUBOPT_0x3F
002047 cff8      	RJMP _0x1F7
                 _0x1F8:
                 ; 0000 0414 if(paus>1000) timer = 0;
002048 91a0 0798 	LDS  R26,_paus
00204a 91b0 0799 	LDS  R27,_paus+1
00204c 3ea9      	CPI  R26,LOW(0x3E9)
00204d e0e3      	LDI  R30,HIGH(0x3E9)
00204e 07be      	CPC  R27,R30
00204f f010      	BRLO _0x1FD
002050 940e 26ea 	CALL SUBOPT_0x39
                 ; 0000 0415 paus=0;
                 _0x1FD:
002052 940e 285b 	CALL SUBOPT_0x70
                 ; 0000 0416 EICRA=(0<<ISC11) | (0<<ISC10) | (0<<ISC01) | (0<<ISC00);
002054 e0e0      	LDI  R30,LOW(0)
002055 93e0 0069 	STS  105,R30
                 ; 0000 0417 EIMSK=(0<<INT1) | (0<<INT0);
002057 bbed      	OUT  0x1D,R30
                 ; 0000 0418 EIFR=(0<<INTF1) | (0<<INTF0);
002058 bbec      	OUT  0x1C,R30
                 ; 0000 0419 TIMSK1=(0<<ICIE1) | (0<<OCIE1B) | (0<<OCIE1A) | (1<<TOIE1);
002059 e0e1      	LDI  R30,LOW(1)
00205a 93e0 006f 	STS  111,R30
                 ; 0000 041A drawStringZ(30, 16, "I=", 2, 1, 2);
00205c e1ee      	LDI  R30,LOW(30)
00205d e0f0      	LDI  R31,HIGH(30)
00205e 940e 276f 	CALL SUBOPT_0x4A
                +
002060 ede1     +LDI R30 , LOW ( 2 * _0x0 + ( 277 ) )
002061 e2f6     +LDI R31 , HIGH ( 2 * _0x0 + ( 277 ) )
                 	__POINTW1FN _0x0,277
002062 940e 28c2 	CALL SUBOPT_0x81
002064 940e 2815 	CALL SUBOPT_0x64
                 ; 0000 041B drawStringZ(102, 16, "mA", 2, 1, 2);
002066 e6e6      	LDI  R30,LOW(102)
002067 e0f0      	LDI  R31,HIGH(102)
002068 940e 276f 	CALL SUBOPT_0x4A
                +
00206a ede4     +LDI R30 , LOW ( 2 * _0x0 + ( 280 ) )
00206b e2f6     +LDI R31 , HIGH ( 2 * _0x0 + ( 280 ) )
                 	__POINTW1FN _0x0,280
00206c 940e 28c2 	CALL SUBOPT_0x81
00206e 940e 2815 	CALL SUBOPT_0x64
                 ; 0000 041C 
                 ; 0000 041D while(1)
                 _0x1FE:
                 ; 0000 041E {
                 ; 0000 041F 
                 ; 0000 0420 
                 ; 0000 0421         timeZ(30,40,timer/10000,3);
002070 940e 2810 	CALL SUBOPT_0x63
002072 940e 27e5 	CALL SUBOPT_0x5E
002074 940e 28c7 	CALL SUBOPT_0x82
002076 93fa      	ST   -Y,R31
002077 93ea      	ST   -Y,R30
002078 e0a3      	LDI  R26,LOW(3)
002079 e0b0      	LDI  R27,0
00207a 940e 1936 	CALL _timeZ
                 ; 0000 0422         ZnachZ(54,16,tok,2) ;
00207c e3e6      	LDI  R30,LOW(54)
00207d e0f0      	LDI  R31,HIGH(54)
00207e 940e 276f 	CALL SUBOPT_0x4A
002080 940e 27c3 	CALL SUBOPT_0x58
002082 e0a2      	LDI  R26,LOW(2)
002083 e0b0      	LDI  R27,0
002084 940e 18b9 	CALL _ZnachZ
                 ; 0000 0423         if (reg2)
002086 9bf6      	SBIS 0x1E,6
002087 c027      	RJMP _0x201
                 ; 0000 0424         {
                 ; 0000 0425             ZnachZo(60,0,(65535-period)/65,2);
002088 e3ec      	LDI  R30,LOW(60)
002089 e0f0      	LDI  R31,HIGH(60)
00208a 940e 2894 	CALL SUBOPT_0x79
00208c 940e 25e0 	CALL SUBOPT_0x1D
00208e efef      	LDI  R30,LOW(65535)
00208f efff      	LDI  R31,HIGH(65535)
002090 1bea      	SUB  R30,R26
002091 0bfb      	SBC  R31,R27
002092 01df      	MOVW R26,R30
002093 e4e1      	LDI  R30,LOW(65)
002094 e0f0      	LDI  R31,HIGH(65)
002095 940e 2954 	CALL __DIVW21U
002097 93fa      	ST   -Y,R31
002098 93ea      	ST   -Y,R30
002099 e0a2      	LDI  R26,LOW(2)
00209a e0b0      	LDI  R27,0
00209b 940e 18fb 	CALL _ZnachZo
                 ; 0000 0426             timer = timer - 5000;
00209d 940e 25cd 	CALL SUBOPT_0x1A
                +
00209f 58e8     +SUBI R30 , LOW ( 5000 )
0020a0 41f3     +SBCI R31 , HIGH ( 5000 )
0020a1 4060     +SBCI R22 , BYTE3 ( 5000 )
0020a2 4070     +SBCI R23 , BYTE4 ( 5000 )
                 	__SUBD1N 5000
0020a3 940e 2656 	CALL SUBOPT_0x2C
                 ; 0000 0427             display(60,0,96,1);
0020a5 e3ec      	LDI  R30,LOW(60)
0020a6 e0f0      	LDI  R31,HIGH(60)
0020a7 940e 2894 	CALL SUBOPT_0x79
0020a9 940e 2847 	CALL SUBOPT_0x6C
0020ab e0a1      	LDI  R26,LOW(1)
0020ac e0b0      	LDI  R27,0
0020ad 940e 15cf 	CALL _display
                 ; 0000 0428         }
                 ; 0000 0429         if(tok0 > (tok + 20))
                 _0x201:
0020af 91e0 078e 	LDS  R30,_tok
0020b1 91f0 078f 	LDS  R31,_tok+1
0020b3 9674      	ADIW R30,20
0020b4 940e 28cf 	CALL SUBOPT_0x83
0020b6 17ea      	CP   R30,R26
0020b7 07fb      	CPC  R31,R27
0020b8 f558      	BRSH _0x202
                 ; 0000 042A         {
                 ; 0000 042B             if(tok1++>2)
0020b9 91a0 07a0 	LDS  R26,_tok1
0020bb 5faf      	SUBI R26,-LOW(1)
0020bc 93a0 07a0 	STS  _tok1,R26
0020be 50a1      	SUBI R26,LOW(1)
0020bf 30a3      	CPI  R26,LOW(0x3)
0020c0 f110      	BRLO _0x203
                 ; 0000 042C             {
                 ; 0000 042D 
                 ; 0000 042E                 fillRect(54,16,48,16,2);
0020c1 e3e6      	LDI  R30,LOW(54)
0020c2 e0f0      	LDI  R31,HIGH(54)
0020c3 940e 276f 	CALL SUBOPT_0x4A
0020c5 e3e0      	LDI  R30,LOW(48)
0020c6 e0f0      	LDI  R31,HIGH(48)
0020c7 940e 276f 	CALL SUBOPT_0x4A
0020c9 e0a2      	LDI  R26,LOW(2)
0020ca e0b0      	LDI  R27,0
0020cb 940e 1484 	CALL _fillRect
                 ; 0000 042F                 for(o=0;o<128;o++) { zvuk = 1 ; delay_us(200); zvuk = 0; delay_us(200); }
0020cd 24dd      	CLR  R13
0020ce 24ee      	CLR  R14
                 _0x205:
0020cf 940e 27a3 	CALL SUBOPT_0x54
0020d1 f42c      	BRGE _0x206
0020d2 940e 2719 	CALL SUBOPT_0x3E
0020d4 940e 2724 	CALL SUBOPT_0x3F
0020d6 cff8      	RJMP _0x205
                 _0x206:
                 ; 0000 0430                 delay_ms(50);
0020d7 940e 2805 	CALL SUBOPT_0x61
                 ; 0000 0431                 for(o=0;o<128;o++) { zvuk = 1 ; delay_us(200); zvuk = 0; delay_us(200); }
0020d9 24dd      	CLR  R13
0020da 24ee      	CLR  R14
                 _0x20C:
0020db 940e 27a3 	CALL SUBOPT_0x54
0020dd f42c      	BRGE _0x20D
0020de 940e 2719 	CALL SUBOPT_0x3E
0020e0 940e 2724 	CALL SUBOPT_0x3F
0020e2 cff8      	RJMP _0x20C
                 _0x20D:
                 ; 0000 0432 
                 ; 0000 0433             }
                 ; 0000 0434         }
                 _0x203:
                 ; 0000 0435         else tok1 = 0;
0020e3 c003      	RJMP _0x212
                 _0x202:
0020e4 e0e0      	LDI  R30,LOW(0)
0020e5 93e0 07a0 	STS  _tok1,R30
                 ; 0000 0436         display(24,2,127,7);
                 _0x212:
0020e7 940e 289f 	CALL SUBOPT_0x7B
0020e9 940e 278b 	CALL SUBOPT_0x4F
                 ; 0000 0437         time = timer / 10000;
0020eb 940e 28c7 	CALL SUBOPT_0x82
0020ed 93e0 079a 	STS  _time,R30
0020ef 93f0 079b 	STS  _time+1,R31
                 ; 0000 0438         mod = 20;
0020f1 e1e4      	LDI  R30,LOW(20)
0020f2 e0f0      	LDI  R31,HIGH(20)
0020f3 93e0 0796 	STS  _mod,R30
0020f5 93f0 0797 	STS  _mod+1,R31
                 ; 0000 0439        delay_ms(450);
0020f7 eca2      	LDI  R26,LOW(450)
0020f8 e0b1      	LDI  R27,HIGH(450)
0020f9 940e 28e6 	CALL _delay_ms
                 ; 0000 043A        if(!dob)
0020fb 9949      	SBIC 0x9,1
0020fc c03b      	RJMP _0x213
                 ; 0000 043B        {
                 ; 0000 043C             if(!ubr)
0020fd 994a      	SBIC 0x9,2
0020fe c024      	RJMP _0x214
                 ; 0000 043D             {
                 ; 0000 043E                 if (paus++ > 5)
0020ff 940e 2861 	CALL SUBOPT_0x71
002101 9631      	ADIW R30,1
002102 93fe      	ST   -X,R31
002103 93ee      	ST   -X,R30
002104 9737      	SBIW R30,7
002105 f0e0      	BRLO _0x215
                 ; 0000 043F                 {
                 ; 0000 0440                     clearDisplay();
002106 940e 27d6 	CALL SUBOPT_0x5B
                 ; 0000 0441                     drawStringZ(0, 20, "", 10, 1, 2);
002108 e1e4      	LDI  R30,LOW(20)
002109 e0f0      	LDI  R31,HIGH(20)
00210a 93fa      	ST   -Y,R31
00210b 93ea      	ST   -Y,R30
                +
00210c ede7     +LDI R30 , LOW ( 2 * _0x0 + ( 283 ) )
00210d e2f6     +LDI R31 , HIGH ( 2 * _0x0 + ( 283 ) )
                 	__POINTW1FN _0x0,283
00210e 940e 27d9 	CALL SUBOPT_0x5C
002110 940e 27de 	CALL SUBOPT_0x5D
                 ; 0000 0442                     drawStringZ(0, 40, " ! ", 7, 1, 3);
002112 940e 27e5 	CALL SUBOPT_0x5E
                +
002114 eee2     +LDI R30 , LOW ( 2 * _0x0 + ( 294 ) )
002115 e2f6     +LDI R31 , HIGH ( 2 * _0x0 + ( 294 ) )
                 	__POINTW1FN _0x0,294
002116 940e 2871 	CALL SUBOPT_0x74
002118 940e 27cf 	CALL SUBOPT_0x5A
                 ; 0000 0443                     display(0,2,127,7);
00211a 940e 279a 	CALL SUBOPT_0x52
00211c 940e 278b 	CALL SUBOPT_0x4F
                 ; 0000 0444                     delay_ms(1000);
00211e 940e 281b 	CALL SUBOPT_0x65
                 ; 0000 0445                     timer = 0;
002120 940e 26ea 	CALL SUBOPT_0x39
                 ; 0000 0446                 }
                 ; 0000 0447             }
                 _0x215:
                 ; 0000 0448             else
002122 c015      	RJMP _0x216
                 _0x214:
                 ; 0000 0449             if(tok0 < 1000)
002123 940e 28cf 	CALL SUBOPT_0x83
002125 3ea8      	CPI  R26,LOW(0x3E8)
002126 e0e3      	LDI  R30,HIGH(0x3E8)
002127 07be      	CPC  R27,R30
002128 f478      	BRSH _0x217
                 ; 0000 044A             {
                 ; 0000 044B                 for(o=0;o<32;o++) { zvuk = 1 ; delay_us(200); zvuk = 0; delay_us(200); }
002129 24dd      	CLR  R13
00212a 24ee      	CLR  R14
                 _0x219:
00212b 940e 2714 	CALL SUBOPT_0x3D
00212d f42c      	BRGE _0x21A
00212e 940e 2719 	CALL SUBOPT_0x3E
002130 940e 2724 	CALL SUBOPT_0x3F
002132 cff8      	RJMP _0x219
                 _0x21A:
                 ; 0000 044C                 tok0+=10;
002133 940e 28d4 	CALL SUBOPT_0x84
002135 963a      	ADIW R30,10
002136 940e 28d9 	CALL SUBOPT_0x85
                 ; 0000 044D             }
                 ; 0000 044E        }
                 _0x217:
                 _0x216:
                 ; 0000 044F        if(!ubr | timer < 300000)
                 _0x213:
002138 940e 2729 	CALL SUBOPT_0x40
00213a 940e 25c4 	CALL SUBOPT_0x19
                +
00213c eee0     +LDI R30 , LOW ( 0x493E0 )
00213d e9f3     +LDI R31 , HIGH ( 0x493E0 )
00213e e064     +LDI R22 , BYTE3 ( 0x493E0 )
00213f e070     +LDI R23 , BYTE4 ( 0x493E0 )
                 	__GETD1N 0x493E0
002140 940e 2939 	CALL __LTD12
002142 29e0      	OR   R30,R0
002143 f409      	BRNE PC+2
002144 c057      	RJMP _0x21F
                 ; 0000 0450        {
                 ; 0000 0451             if(!reg1) if(!fl4)
002145 99f5      	SBIC 0x1E,5
002146 c03a      	RJMP _0x220
002147 99f3      	SBIC 0x1E,3
002148 c038      	RJMP _0x221
                 ; 0000 0452             if( timer < 300000)
002149 940e 25c4 	CALL SUBOPT_0x19
                +
00214b 3ea0     +CPI R26 , LOW ( 0x493E0 )
00214c e9e3     +LDI R30 , HIGH ( 0x493E0 )
00214d 07be     +CPC R27 , R30
00214e e0e4     +LDI R30 , BYTE3 ( 0x493E0 )
00214f 078e     +CPC R24 , R30
002150 e0e0     +LDI R30 , BYTE4 ( 0x493E0 )
002151 079e     +CPC R25 , R30
                 	__CPD2N 0x493E0
002152 f574      	BRGE _0x222
                 ; 0000 0453             {
                 ; 0000 0454                 fl4 = 1;
002153 9af3      	SBI  0x1E,3
                 ; 0000 0455                 if (timer > 0)
002154 940e 25c4 	CALL SUBOPT_0x19
002156 940e 29f3 	CALL __CPD02
002158 f544      	BRGE _0x225
                 ; 0000 0456                 {
                 ; 0000 0457                     if(seans0 == 9)
002159 91a0 0789 	LDS  R26,_seans0
00215b 30a9      	CPI  R26,LOW(0x9)
00215c f4b1      	BRNE _0x226
                 ; 0000 0458                     {
                 ; 0000 0459                         n = 0;
00215d 2477      	CLR  R7
00215e 2488      	CLR  R8
                 ; 0000 045A                         while(n++<20)
                 _0x227:
00215f 940e 2876 	CALL SUBOPT_0x75
002161 f46c      	BRGE _0x229
                 ; 0000 045B                         {
                 ; 0000 045C                             delay_ms(30);                      //  20 
002162 940e 287d 	CALL SUBOPT_0x76
                 ; 0000 045D                             for(o=0;o<96;o++) { zvuk = 1 ; delay_us(300); zvuk = 0; delay_us(300); }
                 _0x22B:
002164 e6e0      	LDI  R30,LOW(96)
002165 e0f0      	LDI  R31,HIGH(96)
002166 16de      	CP   R13,R30
002167 06ef      	CPC  R14,R31
002168 f42c      	BRGE _0x22C
002169 940e 2884 	CALL SUBOPT_0x77
00216b 940e 2724 	CALL SUBOPT_0x3F
00216d cff6      	RJMP _0x22B
                 _0x22C:
                 ; 0000 045E                         }
00216e cff0      	RJMP _0x227
                 _0x229:
                 ; 0000 045F                         seans[chel] = 0;
00216f 940e 286b 	CALL SUBOPT_0x73
002171 e0e0      	LDI  R30,LOW(0)
002172 c00c      	RJMP _0x289
                 ; 0000 0460                     }
                 ; 0000 0461                     else  seans[chel] = seans[chel] + 1;
                 _0x226:
002173 91e0 078a 	LDS  R30,_chel
002175 e0f0      	LDI  R31,0
002176 50e0      	SUBI R30,LOW(-_seans)
002177 40f0      	SBCI R31,HIGH(-_seans)
002178 010f      	MOVW R0,R30
002179 940e 286b 	CALL SUBOPT_0x73
00217b 940e 29d2 	CALL __EEPROMRDB
00217d 5fef      	SUBI R30,-LOW(1)
00217e 01d0      	MOVW R26,R0
                 _0x289:
00217f 940e 29de 	CALL __EEPROMWRB
                 ; 0000 0462                 }
                 ; 0000 0463             };
                 _0x225:
                 _0x222:
                 _0x221:
                 _0x220:
                 ; 0000 0464            if(tok0 > 0)
002181 940e 28cf 	CALL SUBOPT_0x83
002183 940e 29ef 	CALL __CPW02
002185 f4b0      	BRSH _0x232
                 ; 0000 0465            {
                 ; 0000 0466                 if(tok0 < 20) tok0 = 0; else tok0-=10;
002186 940e 28cf 	CALL SUBOPT_0x83
002188 9754      	SBIW R26,20
002189 f418      	BRSH _0x233
00218a 940e 27a8 	CALL SUBOPT_0x55
00218c c005      	RJMP _0x234
                 _0x233:
00218d 940e 28d4 	CALL SUBOPT_0x84
00218f 973a      	SBIW R30,10
002190 940e 28d9 	CALL SUBOPT_0x85
                 ; 0000 0467                 for(o=0;o<32;o++) { zvuk = 1 ; delay_us(200); zvuk = 0; delay_us(200); }
                 _0x234:
002192 24dd      	CLR  R13
002193 24ee      	CLR  R14
                 _0x236:
002194 940e 2714 	CALL SUBOPT_0x3D
002196 f42c      	BRGE _0x237
002197 940e 2719 	CALL SUBOPT_0x3E
002199 940e 2724 	CALL SUBOPT_0x3F
00219b cff8      	RJMP _0x236
                 _0x237:
                 ; 0000 0468 
                 ; 0000 0469            }
                 ; 0000 046A        }
                 _0x232:
                 ; 0000 046B        if (!fl3)
                 _0x21F:
00219c 99f2      	SBIC 0x1E,2
00219d c08e      	RJMP _0x23C
                 ; 0000 046C        {
                 ; 0000 046D             if(!reg1) if (timer < 9000000)
00219e 99f5      	SBIC 0x1E,5
00219f c08c      	RJMP _0x23D
0021a0 940e 25c4 	CALL SUBOPT_0x19
                +
0021a2 34a0     +CPI R26 , LOW ( 0x895440 )
0021a3 e5e4     +LDI R30 , HIGH ( 0x895440 )
0021a4 07be     +CPC R27 , R30
0021a5 e8e9     +LDI R30 , BYTE3 ( 0x895440 )
0021a6 078e     +CPC R24 , R30
0021a7 e0e0     +LDI R30 , BYTE4 ( 0x895440 )
0021a8 079e     +CPC R25 , R30
                 	__CPD2N 0x895440
0021a9 f00c      	BRLT PC+2
0021aa c081      	RJMP _0x23E
                 ; 0000 046E             {
                 ; 0000 046F                 if (rezh0 > 4) dn_reg = tok0/4; else  dn_reg = 0;
0021ab 91a0 079f 	LDS  R26,_rezh0
0021ad 30a5      	CPI  R26,LOW(0x5)
0021ae f048      	BRLO _0x23F
0021af 940e 28d4 	CALL SUBOPT_0x84
0021b1 940e 2912 	CALL __LSRW2
0021b3 93e0 0785 	STS  _dn_reg,R30
0021b5 93f0 0786 	STS  _dn_reg+1,R31
0021b7 c005      	RJMP _0x240
                 _0x23F:
0021b8 e0e0      	LDI  R30,LOW(0)
0021b9 93e0 0785 	STS  _dn_reg,R30
0021bb 93e0 0786 	STS  _dn_reg+1,R30
                 ; 0000 0470                 if (rezhimi[bol0][seans0 + 10] > 4) up_reg = tok0/4;  else  up_reg = 0;
                 _0x240:
0021bd 940e 2897 	CALL SUBOPT_0x7A
0021bf 940e 28de 	CALL SUBOPT_0x86
0021c1 91a4      	LPM  R26,Z
0021c2 30a5      	CPI  R26,LOW(0x5)
0021c3 f048      	BRLO _0x241
0021c4 940e 28d4 	CALL SUBOPT_0x84
0021c6 940e 2912 	CALL __LSRW2
0021c8 93e0 0787 	STS  _up_reg,R30
0021ca 93f0 0788 	STS  _up_reg+1,R31
0021cc c005      	RJMP _0x242
                 _0x241:
0021cd e0e0      	LDI  R30,LOW(0)
0021ce 93e0 0787 	STS  _up_reg,R30
0021d0 93e0 0788 	STS  _up_reg+1,R30
                 ; 0000 0471                 up_reg =  tok0 + up_reg - dn_reg;
                 _0x242:
0021d2 91e0 0787 	LDS  R30,_up_reg
0021d4 91f0 0788 	LDS  R31,_up_reg+1
0021d6 940e 28cf 	CALL SUBOPT_0x83
0021d8 0fea      	ADD  R30,R26
0021d9 1ffb      	ADC  R31,R27
0021da 91a0 0785 	LDS  R26,_dn_reg
0021dc 91b0 0786 	LDS  R27,_dn_reg+1
0021de 1bea      	SUB  R30,R26
0021df 0bfb      	SBC  R31,R27
0021e0 93e0 0787 	STS  _up_reg,R30
0021e2 93f0 0788 	STS  _up_reg+1,R31
                 ; 0000 0472                 tok0 = 0;
0021e4 940e 27a8 	CALL SUBOPT_0x55
                 ; 0000 0473                 n = 0;
0021e6 2477      	CLR  R7
0021e7 2488      	CLR  R8
                 ; 0000 0474                 while(n++<3)
                 _0x243:
                +
0021e8 2de7     +MOV R30 , R7
0021e9 2df8     +MOV R31 , R8
                 	__GETW1R 7,8
0021ea 9631      	ADIW R30,1
                +
0021eb 2e7e     +MOV R7 , R30
0021ec 2e8f     +MOV R8 , R31
                 	__PUTW1R 7,8
0021ed 9734      	SBIW R30,4
0021ee f48c      	BRGE _0x245
                 ; 0000 0475                 {
                 ; 0000 0476                     delay_ms(100);                      //  3 
0021ef e6a4      	LDI  R26,LOW(100)
0021f0 e0b0      	LDI  R27,0
0021f1 940e 28e6 	CALL _delay_ms
                 ; 0000 0477                     for(o=0;o<300;o++) { zvuk = 1 ; delay_us(300); zvuk = 0; delay_us(300); }
0021f3 24dd      	CLR  R13
0021f4 24ee      	CLR  R14
                 _0x247:
0021f5 e2ec      	LDI  R30,LOW(300)
0021f6 e0f1      	LDI  R31,HIGH(300)
0021f7 16de      	CP   R13,R30
0021f8 06ef      	CPC  R14,R31
0021f9 f42c      	BRGE _0x248
0021fa 940e 2884 	CALL SUBOPT_0x77
0021fc 940e 2724 	CALL SUBOPT_0x3F
0021fe cff6      	RJMP _0x247
                 _0x248:
                 ; 0000 0478                 }
0021ff cfe8      	RJMP _0x243
                 _0x245:
                 ; 0000 0479                 rezh0 = rezhimi[bol0][seans0 + 10];
002200 940e 2897 	CALL SUBOPT_0x7A
002202 940e 28de 	CALL SUBOPT_0x86
002204 9004      	LPM  R0,Z
002205 9200 079f 	STS  _rezh0,R0
                 ; 0000 047A                 tok0 = up_reg;
002207 91e0 0787 	LDS  R30,_up_reg
002209 91f0 0788 	LDS  R31,_up_reg+1
00220b 940e 28d9 	CALL SUBOPT_0x85
                 ; 0000 047B                 drawCharZ(0, 16, rezh0+0x30, 1, 2);
00220d 940e 2824 	CALL SUBOPT_0x67
00220f 91e0 079f 	LDS  R30,_rezh0
002211 5de0      	SUBI R30,-LOW(48)
002212 940e 26e4 	CALL SUBOPT_0x38
002214 940e 277d 	CALL SUBOPT_0x4C
                 ; 0000 047C                 drawCharZ(12, 16, '', 1, 2);
002216 e0ec      	LDI  R30,LOW(12)
002217 e0f0      	LDI  R31,HIGH(12)
002218 940e 276f 	CALL SUBOPT_0x4A
00221a efe0      	LDI  R30,LOW(240)
00221b 940e 26e4 	CALL SUBOPT_0x38
00221d 940e 277d 	CALL SUBOPT_0x4C
                 ; 0000 047D                 display(0,2,23,3);
00221f 940e 2781 	CALL SUBOPT_0x4D
002221 940e 28a4 	CALL SUBOPT_0x7C
002223 e1e7      	LDI  R30,LOW(23)
002224 e0f0      	LDI  R31,HIGH(23)
002225 93fa      	ST   -Y,R31
002226 93ea      	ST   -Y,R30
002227 e0a3      	LDI  R26,LOW(3)
002228 e0b0      	LDI  R27,0
002229 940e 15cf 	CALL _display
                 ; 0000 047E                 fl3 = 1;
00222b 9af2      	SBI  0x1E,2
                 ; 0000 047F             }
                 ; 0000 0480        }
                 _0x23E:
                 _0x23D:
                 ; 0000 0481        if (timer <= 0)
                 _0x23C:
00222c 940e 25c4 	CALL SUBOPT_0x19
00222e 940e 29f3 	CALL __CPD02
002230 f40c      	BRGE PC+2
002231 c070      	RJMP _0x24F
                 ; 0000 0482        {
                 ; 0000 0483             tok0 = 0;
002232 940e 27a8 	CALL SUBOPT_0x55
                 ; 0000 0484             OCR0A=0x00;
002234 940e 279f 	CALL SUBOPT_0x53
                 ; 0000 0485             OCR0B=0x00;
                 ; 0000 0486             bufer[0] = 0x80;
002236 e8e0      	LDI  R30,LOW(128)
002237 93e0 0301 	STS  _bufer,R30
                 ; 0000 0487             bufer[1] = 0xAE;
002239 eaee      	LDI  R30,LOW(174)
                +
00223a 93e0 0302+STS _bufer + ( 1 ) , R30
                 	__PUTB1MN _bufer,1
                 ; 0000 0488             twi_master_trans(0x3C, bufer, 2, rx_data, 0) ;
00223c 940e 2596 	CALL SUBOPT_0x13
00223e e0e2      	LDI  R30,LOW(2)
00223f 940e 259d 	CALL SUBOPT_0x14
                 ; 0000 0489             #asm("cli")                     //    
002241 94f8      	cli
                 ; 0000 048A             for(o=0;o<128;o++) { zvuk = 1 ; delay_us(200); zvuk = 0; delay_us(200); }
002242 24dd      	CLR  R13
002243 24ee      	CLR  R14
                 _0x251:
002244 940e 27a3 	CALL SUBOPT_0x54
002246 f42c      	BRGE _0x252
002247 940e 2719 	CALL SUBOPT_0x3E
002249 940e 2724 	CALL SUBOPT_0x3F
00224b cff8      	RJMP _0x251
                 _0x252:
                 ; 0000 048B             delay_ms(50);
00224c 940e 2805 	CALL SUBOPT_0x61
                 ; 0000 048C             for(o=0;o<128;o++) { zvuk = 1 ; delay_us(200); zvuk = 0; delay_us(200); }
00224e 24dd      	CLR  R13
00224f 24ee      	CLR  R14
                 _0x258:
002250 940e 27a3 	CALL SUBOPT_0x54
002252 f42c      	BRGE _0x259
002253 940e 2719 	CALL SUBOPT_0x3E
002255 940e 2724 	CALL SUBOPT_0x3F
002257 cff8      	RJMP _0x258
                 _0x259:
                 ; 0000 048D             delay_ms(50);
002258 940e 2805 	CALL SUBOPT_0x61
                 ; 0000 048E             for(o=0;o<128;o++) { zvuk = 1 ; delay_us(200); zvuk = 0; delay_us(200); }
00225a 24dd      	CLR  R13
00225b 24ee      	CLR  R14
                 _0x25F:
00225c 940e 27a3 	CALL SUBOPT_0x54
00225e f42c      	BRGE _0x260
00225f 940e 2719 	CALL SUBOPT_0x3E
002261 940e 2724 	CALL SUBOPT_0x3F
002263 cff8      	RJMP _0x25F
                 _0x260:
                 ; 0000 048F             delay_ms(50);
002264 940e 2805 	CALL SUBOPT_0x61
                 ; 0000 0490             for(o=0;o<128;o++) { zvuk = 1 ; delay_us(200); zvuk = 0; delay_us(200); }
002266 24dd      	CLR  R13
002267 24ee      	CLR  R14
                 _0x266:
002268 940e 27a3 	CALL SUBOPT_0x54
00226a f42c      	BRGE _0x267
00226b 940e 2719 	CALL SUBOPT_0x3E
00226d 940e 2724 	CALL SUBOPT_0x3F
00226f cff8      	RJMP _0x266
                 _0x267:
                 ; 0000 0491             delay_ms(50);
002270 940e 2805 	CALL SUBOPT_0x61
                 ; 0000 0492             for(o=0;o<128;o++) { zvuk = 1 ; delay_us(200); zvuk = 0; delay_us(200); }
002272 24dd      	CLR  R13
002273 24ee      	CLR  R14
                 _0x26D:
002274 940e 27a3 	CALL SUBOPT_0x54
002276 f42c      	BRGE _0x26E
002277 940e 2719 	CALL SUBOPT_0x3E
002279 940e 2724 	CALL SUBOPT_0x3F
00227b cff8      	RJMP _0x26D
                 _0x26E:
                 ; 0000 0493             OCR0A=0x00;
00227c 940e 279f 	CALL SUBOPT_0x53
                 ; 0000 0494             OCR0B=0x00;
                 ; 0000 0495             TWCR = 0;
00227e e0e0      	LDI  R30,LOW(0)
00227f 93e0 00bc 	STS  188,R30
                 ; 0000 0496             DDRC=DDRB=DDRD=0;
002281 b9ea      	OUT  0xA,R30
002282 b9e4      	OUT  0x4,R30
002283 b9e7      	OUT  0x7,R30
                 ; 0000 0497             PORTC=0;
002284 b9e8      	OUT  0x8,R30
                 ; 0000 0498             PORTD=0;
002285 b9eb      	OUT  0xB,R30
                 ; 0000 0499             PORTD.6=1;
002286 9a5e      	SBI  0xB,6
                 ; 0000 049A             PORTB=0;
002287 b9e5      	OUT  0x5,R30
                 ; 0000 049B             ASSR=(0<<EXCLK) | (0<<AS2);
002288 93e0 00b6 	STS  182,R30
                 ; 0000 049C         TCCR2A=(0<<COM2A1) | (0<<COM2A0) | (0<<COM2B1) | (0<<COM2B0) | (0<<WGM21) | (0<<WGM20);
00228a 93e0 00b0 	STS  176,R30
                 ; 0000 049D         TCCR2B=(0<<WGM22) | (0<<CS22) | (0<<CS21) | (0<<CS20);
00228c 93e0 00b1 	STS  177,R30
                 ; 0000 049E         MCUSR &= ~(1<<WDRF);
00228e b7e4      	IN   R30,0x34
00228f 7fe7      	ANDI R30,0XF7
002290 bfe4      	OUT  0x34,R30
                 ; 0000 049F     /* Write logical one to WDCE and WDE */
                 ; 0000 04A0     /* Keep old prescaler setting to prevent unintentional
                 ; 0000 04A1     time-out */
                 ; 0000 04A2         WDTCSR |= (1<<WDCE) | (1<<WDE);
002291 91e0 0060 	LDS  R30,96
002293 61e8      	ORI  R30,LOW(0x18)
002294 93e0 0060 	STS  96,R30
                 ; 0000 04A3     /* Turn off WDT */
                 ; 0000 04A4         WDTCSR = 0x00;
002296 e0e0      	LDI  R30,LOW(0)
002297 93e0 0060 	STS  96,R30
                 ; 0000 04A5             ADMUX=00;
002299 93e0 007c 	STS  124,R30
                 ; 0000 04A6             ADCSRA=0x00;
00229b 93e0 007a 	STS  122,R30
                 ; 0000 04A7             MCUCR = 0x10;
00229d e1e0      	LDI  R30,LOW(16)
00229e bfe5      	OUT  0x35,R30
                 ; 0000 04A8 
                 ; 0000 04A9             sleep_enable(); //  
00229f d004      	RCALL _sleep_enable
                 ; 0000 04AA             powerdown();
0022a0 940e 22a8 	CALL _powerdown
                 ; 0000 04AB             //       
                 ; 0000 04AC        }
                 ; 0000 04AD 
                 ; 0000 04AE }
                 _0x24F:
0022a2 cdcd      	RJMP _0x1FE
                 ; 0000 04AF 
                 ; 0000 04B0 }
                 _0x275:
0022a3 cfff      	RJMP _0x275
                 ; .FEND
                 	#ifndef __SLEEP_DEFINED__
                 	#endif
                 
                 	.CSEG
                 _sleep_enable:
                 ; .FSTART _sleep_enable
0022a4 b7e3         in   r30,power_ctrl_reg
0022a5 60e1         sbr  r30,__se_bit
0022a6 bfe3         out  power_ctrl_reg,r30
0022a7 9508      	RET
                 ; .FEND
                 _powerdown:
                 ; .FSTART _powerdown
0022a8 b7e3         in   r30,power_ctrl_reg
0022a9 7fe1         cbr  r30,__sm_mask
0022aa 60e4         sbr  r30,__sm_powerdown
0022ab bfe3         out  power_ctrl_reg,r30
0022ac b7ef         in   r30,sreg
0022ad 9478         sei
0022ae 9588         sleep
0022af bfef         out  sreg,r30
0022b0 9508      	RET
                 ; .FEND
                 	#ifndef __SLEEP_DEFINED__
                 	#endif
                 
                 	.DSEG
                 
                 	.CSEG
                 _twi_master_init:
                 ; .FSTART _twi_master_init
0022b1 93ba      	ST   -Y,R27
0022b2 93aa      	ST   -Y,R26
0022b3 931a      	ST   -Y,R17
0022b4 9468      	SET
0022b5 f822      	BLD  R2,2
0022b6 e0e7      	LDI  R30,LOW(7)
0022b7 93e0 0784 	STS  _twi_result,R30
0022b9 e0e0      	LDI  R30,LOW(0)
0022ba 93e0 07ad 	STS  _twi_slave_rx_handler_G101,R30
0022bc 93e0 07ae 	STS  _twi_slave_rx_handler_G101+1,R30
0022be 93e0 07af 	STS  _twi_slave_tx_handler_G101,R30
0022c0 93e0 07b0 	STS  _twi_slave_tx_handler_G101+1,R30
0022c2 9a44      	SBI  0x8,4
0022c3 9a45      	SBI  0x8,5
0022c4 93e0 00bc 	STS  188,R30
0022c6 91e0 00b9 	LDS  R30,185
0022c8 7fec      	ANDI R30,LOW(0xFC)
0022c9 93e0 00b9 	STS  185,R30
0022cb 81e9      	LDD  R30,Y+1
0022cc 81fa      	LDD  R31,Y+1+1
0022cd e4a0      	LDI  R26,LOW(8000)
0022ce e1bf      	LDI  R27,HIGH(8000)
0022cf 940e 2954 	CALL __DIVW21U
0022d1 2f1e      	MOV  R17,R30
0022d2 3018      	CPI  R17,8
0022d3 f008      	BRLO _0x2020004
0022d4 5018      	SUBI R17,LOW(8)
                 _0x2020004:
0022d5 9310 00b8 	STS  184,R17
0022d7 91e0 00bc 	LDS  R30,188
0022d9 78e0      	ANDI R30,LOW(0x80)
0022da 64e5      	ORI  R30,LOW(0x45)
0022db 93e0 00bc 	STS  188,R30
0022dd 8118      	LDD  R17,Y+0
0022de 9623      	ADIW R28,3
0022df 9508      	RET
                 ; .FEND
                 _twi_master_trans:
                 ; .FSTART _twi_master_trans
0022e0 93aa      	ST   -Y,R26
0022e1 9724      	SBIW R28,4
0022e2 fe22      	SBRS R2,2
0022e3 c066      	RJMP _0x2020005
0022e4 85ea      	LDD  R30,Y+10
0022e5 0fee      	LSL  R30
0022e6 93e0 07a5 	STS  _slave_address_G101,R30
0022e8 85e8      	LDD  R30,Y+8
0022e9 85f9      	LDD  R31,Y+8+1
0022ea 93e0 07a6 	STS  _twi_tx_buffer_G101,R30
0022ec 93f0 07a7 	STS  _twi_tx_buffer_G101+1,R31
0022ee e0e0      	LDI  R30,LOW(0)
0022ef 93e0 0782 	STS  _twi_tx_index,R30
0022f1 81ef      	LDD  R30,Y+7
0022f2 93e0 07a8 	STS  _bytes_to_tx_G101,R30
0022f4 81ed      	LDD  R30,Y+5
0022f5 81fe      	LDD  R31,Y+5+1
0022f6 93e0 07a9 	STS  _twi_rx_buffer_G101,R30
0022f8 93f0 07aa 	STS  _twi_rx_buffer_G101+1,R31
0022fa e0e0      	LDI  R30,LOW(0)
0022fb 93e0 0783 	STS  _twi_rx_index,R30
0022fd 81ec      	LDD  R30,Y+4
0022fe 93e0 07ab 	STS  _bytes_to_rx_G101,R30
002300 e0e6      	LDI  R30,LOW(6)
002301 93e0 0784 	STS  _twi_result,R30
002303 9478      	sei
002304 81ef      	LDD  R30,Y+7
002305 30e0      	CPI  R30,0
002306 f081      	BREQ _0x2020006
002307 85e8      	LDD  R30,Y+8
002308 85f9      	LDD  R31,Y+8+1
002309 9730      	SBIW R30,0
00230a f409      	BRNE _0x2020007
00230b c03e      	RJMP _0x2060002
                 _0x2020007:
00230c 81ec      	LDD  R30,Y+4
00230d 30e0      	CPI  R30,0
00230e f021      	BREQ _0x2020009
00230f 81ad      	LDD  R26,Y+5
002310 81be      	LDD  R27,Y+5+1
002311 9710      	SBIW R26,0
002312 f009      	BREQ _0x202000A
                 _0x2020009:
002313 c001      	RJMP _0x2020008
                 _0x202000A:
002314 c035      	RJMP _0x2060002
                 _0x2020008:
002315 9468      	SET
002316 c00d      	RJMP _0x2020065
                 _0x2020006:
002317 81ec      	LDD  R30,Y+4
002318 30e0      	CPI  R30,0
002319 f151      	BREQ _0x202000C
00231a 81ed      	LDD  R30,Y+5
00231b 81fe      	LDD  R31,Y+5+1
00231c 9730      	SBIW R30,0
00231d f161      	BREQ _0x2060002
00231e 91e0 07a5 	LDS  R30,_slave_address_G101
002320 60e1      	ORI  R30,1
002321 93e0 07a5 	STS  _slave_address_G101,R30
002323 94e8      	CLT
                 _0x2020065:
002324 f821      	BLD  R2,1
002325 94e8      	CLT
002326 f822      	BLD  R2,2
002327 91e0 00bc 	LDS  R30,188
002329 70ef      	ANDI R30,LOW(0xF)
00232a 6ae0      	ORI  R30,LOW(0xA0)
00232b 93e0 00bc 	STS  188,R30
                +
00232d e2e0     +LDI R30 , LOW ( 0x7A120 )
00232e eaf1     +LDI R31 , HIGH ( 0x7A120 )
00232f e067     +LDI R22 , BYTE3 ( 0x7A120 )
002330 e070     +LDI R23 , BYTE4 ( 0x7A120 )
                 	__GETD1N 0x7A120
002331 940e 29c6 	CALL __PUTD1S0
                 _0x202000E:
002333 fc22      	SBRC R2,2
002334 c00f      	RJMP _0x2020010
002335 940e 29c1 	CALL __GETD1S0
002337 9731      	SBIW R30,1
002338 4060      	SBCI R22,0
002339 4070      	SBCI R23,0
00233a 940e 29c6 	CALL __PUTD1S0
00233c f431      	BRNE _0x2020011
00233d e0e5      	LDI  R30,LOW(5)
00233e 93e0 0784 	STS  _twi_result,R30
002340 9468      	SET
002341 f822      	BLD  R2,2
002342 c007      	RJMP _0x2060002
                 _0x2020011:
002343 cfef      	RJMP _0x202000E
                 _0x2020010:
                 _0x202000C:
002344 91a0 0784 	LDS  R26,_twi_result
002346 e0e0      	LDI  R30,LOW(0)
002347 940e 2917 	CALL __EQB12
002349 c001      	RJMP _0x2060001
                 _0x2020005:
                 _0x2060002:
00234a e0e0      	LDI  R30,LOW(0)
                 _0x2060001:
00234b 962b      	ADIW R28,11
00234c 9508      	RET
                 ; .FEND
                 _twi_int_handler:
                 ; .FSTART _twi_int_handler
00234d 920a      	ST   -Y,R0
00234e 921a      	ST   -Y,R1
00234f 92fa      	ST   -Y,R15
002350 936a      	ST   -Y,R22
002351 937a      	ST   -Y,R23
002352 938a      	ST   -Y,R24
002353 939a      	ST   -Y,R25
002354 93aa      	ST   -Y,R26
002355 93ba      	ST   -Y,R27
002356 93ea      	ST   -Y,R30
002357 93fa      	ST   -Y,R31
002358 b7ef      	IN   R30,SREG
002359 93ea      	ST   -Y,R30
00235a 940e 29f9 	CALL __SAVELOCR6
00235c 9110 0783 	LDS  R17,_twi_rx_index
00235e 9100 0782 	LDS  R16,_twi_tx_index
002360 9130 07a8 	LDS  R19,_bytes_to_tx_G101
002362 9120 0784 	LDS  R18,_twi_result
002364 2fe1      	MOV  R30,R17
002365 91a0 07a9 	LDS  R26,_twi_rx_buffer_G101
002367 91b0 07aa 	LDS  R27,_twi_rx_buffer_G101+1
002369 e0f0      	LDI  R31,0
00236a 0fea      	ADD  R30,R26
00236b 1ffb      	ADC  R31,R27
00236c 01af      	MOVW R20,R30
00236d 91e0 00b9 	LDS  R30,185
00236f 7fe8      	ANDI R30,LOW(0xF8)
002370 30e8      	CPI  R30,LOW(0x8)
002371 f411      	BRNE _0x2020017
002372 e020      	LDI  R18,LOW(0)
002373 c002      	RJMP _0x2020018
                 _0x2020017:
002374 31e0      	CPI  R30,LOW(0x10)
002375 f419      	BRNE _0x2020019
                 _0x2020018:
002376 91e0 07a5 	LDS  R30,_slave_address_G101
002378 c010      	RJMP _0x2020067
                 _0x2020019:
002379 31e8      	CPI  R30,LOW(0x18)
00237a f011      	BREQ _0x202001D
00237b 32e8      	CPI  R30,LOW(0x28)
00237c f549      	BRNE _0x202001E
                 _0x202001D:
00237d 1703      	CP   R16,R19
00237e f498      	BRSH _0x202001F
00237f 2fe0      	MOV  R30,R16
002380 5f0f      	SUBI R16,-1
002381 91a0 07a6 	LDS  R26,_twi_tx_buffer_G101
002383 91b0 07a7 	LDS  R27,_twi_tx_buffer_G101+1
002385 e0f0      	LDI  R31,0
002386 0fae      	ADD  R26,R30
002387 1fbf      	ADC  R27,R31
002388 91ec      	LD   R30,X
                 _0x2020067:
002389 93e0 00bb 	STS  187,R30
00238b 91e0 00bc 	LDS  R30,188
00238d 70ef      	ANDI R30,LOW(0xF)
00238e 68e0      	ORI  R30,0x80
00238f 93e0 00bc 	STS  188,R30
002391 c013      	RJMP _0x2020020
                 _0x202001F:
002392 91e0 07ab 	LDS  R30,_bytes_to_rx_G101
002394 171e      	CP   R17,R30
002395 f470      	BRSH _0x2020021
002396 91e0 07a5 	LDS  R30,_slave_address_G101
002398 60e1      	ORI  R30,1
002399 93e0 07a5 	STS  _slave_address_G101,R30
00239b 94e8      	CLT
00239c f821      	BLD  R2,1
00239d 91e0 00bc 	LDS  R30,188
00239f 70ef      	ANDI R30,LOW(0xF)
0023a0 6ae0      	ORI  R30,LOW(0xA0)
0023a1 93e0 00bc 	STS  188,R30
0023a3 c113      	RJMP _0x2020016
                 _0x2020021:
0023a4 c038      	RJMP _0x2020022
                 _0x2020020:
0023a5 c111      	RJMP _0x2020016
                 _0x202001E:
0023a6 35e0      	CPI  R30,LOW(0x50)
0023a7 f431      	BRNE _0x2020023
0023a8 91e0 00bb 	LDS  R30,187
0023aa 01da      	MOVW R26,R20
0023ab 93ec      	ST   X,R30
0023ac 5f1f      	SUBI R17,-LOW(1)
0023ad c002      	RJMP _0x2020024
                 _0x2020023:
0023ae 34e0      	CPI  R30,LOW(0x40)
0023af f489      	BRNE _0x2020025
                 _0x2020024:
0023b0 91e0 07ab 	LDS  R30,_bytes_to_rx_G101
0023b2 50e1      	SUBI R30,LOW(1)
0023b3 171e      	CP   R17,R30
0023b4 f028      	BRLO _0x2020026
0023b5 91e0 00bc 	LDS  R30,188
0023b7 70ef      	ANDI R30,LOW(0xF)
0023b8 68e0      	ORI  R30,0x80
0023b9 c004      	RJMP _0x2020068
                 _0x2020026:
0023ba 91e0 00bc 	LDS  R30,188
0023bc 70ef      	ANDI R30,LOW(0xF)
0023bd 6ce0      	ORI  R30,LOW(0xC0)
                 _0x2020068:
0023be 93e0 00bc 	STS  188,R30
0023c0 c0f6      	RJMP _0x2020016
                 _0x2020025:
0023c1 35e8      	CPI  R30,LOW(0x58)
0023c2 f431      	BRNE _0x2020028
0023c3 91e0 00bb 	LDS  R30,187
0023c5 01da      	MOVW R26,R20
0023c6 93ec      	ST   X,R30
0023c7 5f1f      	SUBI R17,-LOW(1)
0023c8 c002      	RJMP _0x2020029
                 _0x2020028:
0023c9 32e0      	CPI  R30,LOW(0x20)
0023ca f409      	BRNE _0x202002A
                 _0x2020029:
0023cb c002      	RJMP _0x202002B
                 _0x202002A:
0023cc 33e0      	CPI  R30,LOW(0x30)
0023cd f409      	BRNE _0x202002C
                 _0x202002B:
0023ce c002      	RJMP _0x202002D
                 _0x202002C:
0023cf 34e8      	CPI  R30,LOW(0x48)
0023d0 f469      	BRNE _0x202002E
                 _0x202002D:
0023d1 3020      	CPI  R18,0
0023d2 f451      	BRNE _0x202002F
0023d3 fe21      	SBRS R2,1
0023d4 c003      	RJMP _0x2020030
0023d5 1703      	CP   R16,R19
0023d6 f028      	BRLO _0x2020032
0023d7 c005      	RJMP _0x2020033
                 _0x2020030:
0023d8 91e0 07ab 	LDS  R30,_bytes_to_rx_G101
0023da 171e      	CP   R17,R30
0023db f408      	BRSH _0x2020034
                 _0x2020032:
0023dc e024      	LDI  R18,LOW(4)
                 _0x2020034:
                 _0x2020033:
                 _0x202002F:
                 _0x2020022:
0023dd c0d1      	RJMP _0x2020069
                 _0x202002E:
0023de 33e8      	CPI  R30,LOW(0x38)
0023df f431      	BRNE _0x2020037
0023e0 e022      	LDI  R18,LOW(2)
0023e1 91e0 00bc 	LDS  R30,188
0023e3 70ef      	ANDI R30,LOW(0xF)
0023e4 68e0      	ORI  R30,0x80
0023e5 c0cd      	RJMP _0x202006A
                 _0x2020037:
0023e6 36e8      	CPI  R30,LOW(0x68)
0023e7 f011      	BREQ _0x202003A
0023e8 37e8      	CPI  R30,LOW(0x78)
0023e9 f411      	BRNE _0x202003B
                 _0x202003A:
0023ea e022      	LDI  R18,LOW(2)
0023eb c005      	RJMP _0x202003C
                 _0x202003B:
0023ec 36e0      	CPI  R30,LOW(0x60)
0023ed f011      	BREQ _0x202003F
0023ee 37e0      	CPI  R30,LOW(0x70)
0023ef f4a9      	BRNE _0x2020040
                 _0x202003F:
0023f0 e020      	LDI  R18,LOW(0)
                 _0x202003C:
0023f1 e010      	LDI  R17,LOW(0)
0023f2 94e8      	CLT
0023f3 f821      	BLD  R2,1
0023f4 91e0 07ac 	LDS  R30,_twi_rx_buffer_size_G101
0023f6 30e0      	CPI  R30,0
0023f7 f431      	BRNE _0x2020041
0023f8 e021      	LDI  R18,LOW(1)
0023f9 91e0 00bc 	LDS  R30,188
0023fb 70ef      	ANDI R30,LOW(0xF)
0023fc 68e0      	ORI  R30,0x80
0023fd c004      	RJMP _0x202006B
                 _0x2020041:
0023fe 91e0 00bc 	LDS  R30,188
002400 70ef      	ANDI R30,LOW(0xF)
002401 6ce0      	ORI  R30,LOW(0xC0)
                 _0x202006B:
002402 93e0 00bc 	STS  188,R30
002404 c0b2      	RJMP _0x2020016
                 _0x2020040:
002405 38e0      	CPI  R30,LOW(0x80)
002406 f011      	BREQ _0x2020044
002407 39e0      	CPI  R30,LOW(0x90)
002408 f541      	BRNE _0x2020045
                 _0x2020044:
002409 fe21      	SBRS R2,1
00240a c002      	RJMP _0x2020046
00240b e021      	LDI  R18,LOW(1)
00240c c0a2      	RJMP _0x2020047
                 _0x2020046:
00240d 91e0 00bb 	LDS  R30,187
00240f 01da      	MOVW R26,R20
002410 93ec      	ST   X,R30
002411 5f1f      	SUBI R17,-LOW(1)
002412 91e0 07ac 	LDS  R30,_twi_rx_buffer_size_G101
002414 171e      	CP   R17,R30
002415 f4c0      	BRSH _0x2020048
002416 91e0 07ad 	LDS  R30,_twi_slave_rx_handler_G101
002418 91f0 07ae 	LDS  R31,_twi_slave_rx_handler_G101+1
00241a 9730      	SBIW R30,0
00241b f411      	BRNE _0x2020049
00241c e026      	LDI  R18,LOW(6)
00241d c091      	RJMP _0x2020047
                 _0x2020049:
00241e e0a0      	LDI  R26,LOW(0)
                +
00241f 91e0 07ad+LDS R30 , _twi_slave_rx_handler_G101 + ( 0 )
002421 91f0 07ae+LDS R31 , _twi_slave_rx_handler_G101 + ( 0 ) + 1
002423 9509     +ICALL
                 	__CALL1MN _twi_slave_rx_handler_G101,0
002424 30e0      	CPI  R30,0
002425 f039      	BREQ _0x202004A
002426 91e0 00bc 	LDS  R30,188
002428 70ef      	ANDI R30,LOW(0xF)
002429 6ce0      	ORI  R30,LOW(0xC0)
00242a 93e0 00bc 	STS  188,R30
00242c c08a      	RJMP _0x2020016
                 _0x202004A:
00242d c002      	RJMP _0x202004B
                 _0x2020048:
00242e 9468      	SET
00242f f821      	BLD  R2,1
                 _0x202004B:
002430 c002      	RJMP _0x202004C
                 _0x2020045:
002431 38e8      	CPI  R30,LOW(0x88)
002432 f409      	BRNE _0x202004D
                 _0x202004C:
002433 c002      	RJMP _0x202004E
                 _0x202004D:
002434 39e8      	CPI  R30,LOW(0x98)
002435 f439      	BRNE _0x202004F
                 _0x202004E:
002436 91e0 00bc 	LDS  R30,188
002438 70ef      	ANDI R30,LOW(0xF)
002439 68e0      	ORI  R30,0x80
00243a 93e0 00bc 	STS  188,R30
00243c c07a      	RJMP _0x2020016
                 _0x202004F:
00243d 3ae0      	CPI  R30,LOW(0xA0)
00243e f4b9      	BRNE _0x2020050
00243f 91e0 00bc 	LDS  R30,188
002441 70ef      	ANDI R30,LOW(0xF)
002442 6ce0      	ORI  R30,LOW(0xC0)
002443 93e0 00bc 	STS  188,R30
002445 9468      	SET
002446 f822      	BLD  R2,2
002447 91e0 07ad 	LDS  R30,_twi_slave_rx_handler_G101
002449 91f0 07ae 	LDS  R31,_twi_slave_rx_handler_G101+1
00244b 9730      	SBIW R30,0
00244c f039      	BREQ _0x2020051
00244d e0a1      	LDI  R26,LOW(1)
                +
00244e 91e0 07ad+LDS R30 , _twi_slave_rx_handler_G101 + ( 0 )
002450 91f0 07ae+LDS R31 , _twi_slave_rx_handler_G101 + ( 0 ) + 1
002452 9509     +ICALL
                 	__CALL1MN _twi_slave_rx_handler_G101,0
002453 c001      	RJMP _0x2020052
                 _0x2020051:
002454 e026      	LDI  R18,LOW(6)
                 _0x2020052:
002455 c061      	RJMP _0x2020016
                 _0x2020050:
002456 3be0      	CPI  R30,LOW(0xB0)
002457 f411      	BRNE _0x2020053
002458 e022      	LDI  R18,LOW(2)
002459 c002      	RJMP _0x2020054
                 _0x2020053:
00245a 3ae8      	CPI  R30,LOW(0xA8)
00245b f4b9      	BRNE _0x2020055
                 _0x2020054:
00245c 91e0 07af 	LDS  R30,_twi_slave_tx_handler_G101
00245e 91f0 07b0 	LDS  R31,_twi_slave_tx_handler_G101+1
002460 9730      	SBIW R30,0
002461 f059      	BREQ _0x2020056
002462 e0a0      	LDI  R26,LOW(0)
                +
002463 91e0 07af+LDS R30 , _twi_slave_tx_handler_G101 + ( 0 )
002465 91f0 07b0+LDS R31 , _twi_slave_tx_handler_G101 + ( 0 ) + 1
002467 9509     +ICALL
                 	__CALL1MN _twi_slave_tx_handler_G101,0
002468 2f3e      	MOV  R19,R30
002469 30e0      	CPI  R30,0
00246a f011      	BREQ _0x2020058
00246b e020      	LDI  R18,LOW(0)
00246c c002      	RJMP _0x2020059
                 _0x2020056:
                 _0x2020058:
00246d e026      	LDI  R18,LOW(6)
00246e c040      	RJMP _0x2020047
                 _0x2020059:
00246f e000      	LDI  R16,LOW(0)
002470 94e8      	CLT
002471 f821      	BLD  R2,1
002472 c002      	RJMP _0x202005A
                 _0x2020055:
002473 3be8      	CPI  R30,LOW(0xB8)
002474 f501      	BRNE _0x202005B
                 _0x202005A:
002475 fe21      	SBRS R2,1
002476 c002      	RJMP _0x202005C
002477 e021      	LDI  R18,LOW(1)
002478 c036      	RJMP _0x2020047
                 _0x202005C:
002479 2fe0      	MOV  R30,R16
00247a 5f0f      	SUBI R16,-1
00247b 91a0 07a6 	LDS  R26,_twi_tx_buffer_G101
00247d 91b0 07a7 	LDS  R27,_twi_tx_buffer_G101+1
00247f e0f0      	LDI  R31,0
002480 0fae      	ADD  R26,R30
002481 1fbf      	ADC  R27,R31
002482 91ec      	LD   R30,X
002483 93e0 00bb 	STS  187,R30
002485 1703      	CP   R16,R19
002486 f428      	BRSH _0x202005D
002487 91e0 00bc 	LDS  R30,188
002489 70ef      	ANDI R30,LOW(0xF)
00248a 6ce0      	ORI  R30,LOW(0xC0)
00248b c006      	RJMP _0x202006C
                 _0x202005D:
00248c 9468      	SET
00248d f821      	BLD  R2,1
00248e 91e0 00bc 	LDS  R30,188
002490 70ef      	ANDI R30,LOW(0xF)
002491 68e0      	ORI  R30,0x80
                 _0x202006C:
002492 93e0 00bc 	STS  188,R30
002494 c022      	RJMP _0x2020016
                 _0x202005B:
002495 3ce0      	CPI  R30,LOW(0xC0)
002496 f011      	BREQ _0x2020060
002497 3ce8      	CPI  R30,LOW(0xC8)
002498 f499      	BRNE _0x2020061
                 _0x2020060:
002499 91e0 00bc 	LDS  R30,188
00249b 70ef      	ANDI R30,LOW(0xF)
00249c 6ce0      	ORI  R30,LOW(0xC0)
00249d 93e0 00bc 	STS  188,R30
00249f 91e0 07af 	LDS  R30,_twi_slave_tx_handler_G101
0024a1 91f0 07b0 	LDS  R31,_twi_slave_tx_handler_G101+1
0024a3 9730      	SBIW R30,0
0024a4 f031      	BREQ _0x2020062
0024a5 e0a1      	LDI  R26,LOW(1)
                +
0024a6 91e0 07af+LDS R30 , _twi_slave_tx_handler_G101 + ( 0 )
0024a8 91f0 07b0+LDS R31 , _twi_slave_tx_handler_G101 + ( 0 ) + 1
0024aa 9509     +ICALL
                 	__CALL1MN _twi_slave_tx_handler_G101,0
                 _0x2020062:
0024ab c009      	RJMP _0x2020035
                 _0x2020061:
0024ac 30e0      	CPI  R30,0
0024ad f449      	BRNE _0x2020016
0024ae e023      	LDI  R18,LOW(3)
                 _0x2020047:
                 _0x2020069:
0024af 91e0 00bc 	LDS  R30,188
0024b1 70ef      	ANDI R30,LOW(0xF)
0024b2 6de0      	ORI  R30,LOW(0xD0)
                 _0x202006A:
0024b3 93e0 00bc 	STS  188,R30
                 _0x2020035:
0024b5 9468      	SET
0024b6 f822      	BLD  R2,2
                 _0x2020016:
0024b7 9310 0783 	STS  _twi_rx_index,R17
0024b9 9300 0782 	STS  _twi_tx_index,R16
0024bb 9320 0784 	STS  _twi_result,R18
0024bd 9330 07a8 	STS  _bytes_to_tx_G101,R19
0024bf 940e 2a00 	CALL __LOADLOCR6
0024c1 9626      	ADIW R28,6
0024c2 91e9      	LD   R30,Y+
0024c3 bfef      	OUT  SREG,R30
0024c4 91f9      	LD   R31,Y+
0024c5 91e9      	LD   R30,Y+
0024c6 91b9      	LD   R27,Y+
0024c7 91a9      	LD   R26,Y+
0024c8 9199      	LD   R25,Y+
0024c9 9189      	LD   R24,Y+
0024ca 9179      	LD   R23,Y+
0024cb 9169      	LD   R22,Y+
0024cc 90f9      	LD   R15,Y+
0024cd 9019      	LD   R1,Y+
0024ce 9009      	LD   R0,Y+
0024cf 9518      	RETI
                 ; .FEND
                 
                 	.CSEG
                 
                 	.DSEG
                 _rx_data:
000300           	.BYTE 0x1
                 _bufer:
000301           	.BYTE 0x81
                 _buffer:
000382           	.BYTE 0x400
                 _twi_tx_index:
000782           	.BYTE 0x1
                 _twi_rx_index:
000783           	.BYTE 0x1
                 _twi_result:
000784           	.BYTE 0x1
                 _dn_reg:
000785           	.BYTE 0x2
                 _up_reg:
000787           	.BYTE 0x2
                 _seans0:
000789           	.BYTE 0x1
                 _chel:
00078a           	.BYTE 0x1
                 _vrem:
00078b           	.BYTE 0x1
                 _bol0:
00078c           	.BYTE 0x1
                 _l:
00078d           	.BYTE 0x1
                 
                 	.ESEG
                 _seans:
000000           	.BYTE 0xA
                 _bol:
00000a           	.BYTE 0xA
                 
                 	.DSEG
                 _tok:
00078e           	.BYTE 0x2
                 _tok0:
000790           	.BYTE 0x2
                 _period:
000792           	.BYTE 0x2
                 _a:
000794           	.BYTE 0x2
                 _mod:
000796           	.BYTE 0x2
                 _paus:
000798           	.BYTE 0x2
                 _time:
00079a           	.BYTE 0x2
                 _a1:
00079c           	.BYTE 0x1
                 _a2:
00079d           	.BYTE 0x1
                 _a3:
00079e           	.BYTE 0x1
                 _rezh0:
00079f           	.BYTE 0x1
                 _tok1:
0007a0           	.BYTE 0x1
                 _timer:
0007a1           	.BYTE 0x4
                 _slave_address_G101:
0007a5           	.BYTE 0x1
                 _twi_tx_buffer_G101:
0007a6           	.BYTE 0x2
                 _bytes_to_tx_G101:
0007a8           	.BYTE 0x1
                 _twi_rx_buffer_G101:
0007a9           	.BYTE 0x2
                 _bytes_to_rx_G101:
0007ab           	.BYTE 0x1
                 _twi_rx_buffer_size_G101:
0007ac           	.BYTE 0x1
                 _twi_slave_rx_handler_G101:
0007ad           	.BYTE 0x2
                 _twi_slave_tx_handler_G101:
0007af           	.BYTE 0x2
                 
                 	.CSEG
                 ;OPTIMIZER ADDED SUBROUTINE, CALLED 3 TIMES, CODE SIZE REDUCTION:1 WORDS
                 SUBOPT_0x0:
0024d0 931a      	ST   -Y,R17
0024d1 930a      	ST   -Y,R16
                +
0024d2 e000     +LDI R16 , LOW ( 0 )
0024d3 e010     +LDI R17 , HIGH ( 0 )
                 	__GETWRN 16,17,0
0024d4 9508      	RET
                 
                 ;OPTIMIZER ADDED SUBROUTINE, CALLED 3 TIMES, CODE SIZE REDUCTION:39 WORDS
                 SUBOPT_0x1:
0024d5 81aa      	LDD  R26,Y+2
0024d6 81bb      	LDD  R27,Y+2+1
0024d7 e0e8      	LDI  R30,LOW(8)
0024d8 e0f0      	LDI  R31,HIGH(8)
0024d9 940e 2967 	CALL __DIVW21
0024db 940e 290b 	CALL __LSLW3
0024dd 940e 2909 	CALL __LSLW4
0024df 81ac      	LDD  R26,Y+4
0024e0 81bd      	LDD  R27,Y+4+1
0024e1 0fea      	ADD  R30,R26
0024e2 1ffb      	ADC  R31,R27
0024e3 57ee      	SUBI R30,LOW(-_buffer)
0024e4 4ffc      	SBCI R31,HIGH(-_buffer)
0024e5 01bf      	MOVW R22,R30
0024e6 8010      	LD   R1,Z
0024e7 81ea      	LDD  R30,Y+2
0024e8 70e7      	ANDI R30,LOW(0x7)
0024e9 e0a1      	LDI  R26,LOW(1)
0024ea 940e 2901 	CALL __LSLB12
0024ec 9508      	RET
                 
                 ;OPTIMIZER ADDED SUBROUTINE, CALLED 2 TIMES, CODE SIZE REDUCTION:29 WORDS
                 SUBOPT_0x2:
0024ed 89a8      	LDD  R26,Y+16
0024ee 89b9      	LDD  R27,Y+16+1
0024ef 85ec      	LDD  R30,Y+12
0024f0 85fd      	LDD  R31,Y+12+1
0024f1 1bea      	SUB  R30,R26
0024f2 0bfb      	SBC  R31,R27
0024f3 01df      	MOVW R26,R30
0024f4 01fa      	MOVW R30,R20
0024f5 940e 294f 	CALL __MULW12
0024f7 018f      	MOVW R16,R30
0024f8 85ae      	LDD  R26,Y+14
0024f9 85bf      	LDD  R27,Y+14+1
0024fa 85ea      	LDD  R30,Y+10
0024fb 85fb      	LDD  R31,Y+10+1
0024fc 1bea      	SUB  R30,R26
0024fd 0bfb      	SBC  R31,R27
0024fe 81ae      	LDD  R26,Y+6
0024ff 81bf      	LDD  R27,Y+6+1
002500 940e 294f 	CALL __MULW12
002502 019f      	MOVW R18,R30
002503 89e8      	LDD  R30,Y+16
002504 89f9      	LDD  R31,Y+16+1
002505 93fa      	ST   -Y,R31
002506 93ea      	ST   -Y,R30
002507 89e8      	LDD  R30,Y+16
002508 89f9      	LDD  R31,Y+16+1
002509 93fa      	ST   -Y,R31
00250a 93ea      	ST   -Y,R30
00250b 85ac      	LDD  R26,Y+12
00250c 85bd      	LDD  R27,Y+12+1
00250d 940c 13c4 	JMP  _drawPixel
                 
                 ;OPTIMIZER ADDED SUBROUTINE, CALLED 7 TIMES, CODE SIZE REDUCTION:9 WORDS
                 SUBOPT_0x3:
00250f 85ae      	LDD  R26,Y+14
002510 85bf      	LDD  R27,Y+14+1
002511 0fea      	ADD  R30,R26
002512 1ffb      	ADC  R31,R27
002513 9508      	RET
                 
                 ;OPTIMIZER ADDED SUBROUTINE, CALLED 13 TIMES, CODE SIZE REDUCTION:21 WORDS
                 SUBOPT_0x4:
002514 85aa      	LDD  R26,Y+10
002515 85bb      	LDD  R27,Y+10+1
002516 0fea      	ADD  R30,R26
002517 1ffb      	ADC  R31,R27
002518 9508      	RET
                 
                 ;OPTIMIZER ADDED SUBROUTINE, CALLED 29 TIMES, CODE SIZE REDUCTION:53 WORDS
                 SUBOPT_0x5:
002519 85ea      	LDD  R30,Y+10
00251a 85fb      	LDD  R31,Y+10+1
00251b 93fa      	ST   -Y,R31
00251c 93ea      	ST   -Y,R30
00251d 9508      	RET
                 
                 ;OPTIMIZER ADDED SUBROUTINE, CALLED 3 TIMES, CODE SIZE REDUCTION:3 WORDS
                 SUBOPT_0x6:
00251e 85ae      	LDD  R26,Y+14
00251f 85bf      	LDD  R27,Y+14+1
002520 0fae      	ADD  R26,R30
002521 1fbf      	ADC  R27,R31
002522 9711      	SBIW R26,1
002523 9508      	RET
                 
                 ;OPTIMIZER ADDED SUBROUTINE, CALLED 2 TIMES, CODE SIZE REDUCTION:5 WORDS
                 SUBOPT_0x7:
002524 81eb      	LDD  R30,Y+3
002525 81fc      	LDD  R31,Y+3+1
002526 940e 290b 	CALL __LSLW3
002528 940e 2909 	CALL __LSLW4
00252a 81ad      	LDD  R26,Y+5
00252b 81be      	LDD  R27,Y+5+1
00252c 0fea      	ADD  R30,R26
00252d 1ffb      	ADC  R31,R27
00252e 9508      	RET
                 
                 ;OPTIMIZER ADDED SUBROUTINE, CALLED 2 TIMES, CODE SIZE REDUCTION:5 WORDS
                 SUBOPT_0x8:
00252f 93ba      	ST   -Y,R27
002530 93aa      	ST   -Y,R26
002531 9721      	SBIW R28,1
002532 940e 29f9 	CALL __SAVELOCR6
002534 85ae      	LDD  R26,Y+14
002535 85bf      	LDD  R27,Y+14+1
002536 38a0      	CPI  R26,LOW(0x80)
002537 e0e0      	LDI  R30,HIGH(0x80)
002538 07be      	CPC  R27,R30
002539 9508      	RET
                 
                 ;OPTIMIZER ADDED SUBROUTINE, CALLED 2 TIMES, CODE SIZE REDUCTION:3 WORDS
                 SUBOPT_0x9:
00253a 81ef      	LDD  R30,Y+7
00253b 85f8      	LDD  R31,Y+7+1
00253c e0a6      	LDI  R26,LOW(6)
00253d e0b0      	LDI  R27,HIGH(6)
00253e 940e 294f 	CALL __MULW12
002540 cfdd      	RJMP SUBOPT_0x6
                 
                 ;OPTIMIZER ADDED SUBROUTINE, CALLED 2 TIMES, CODE SIZE REDUCTION:5 WORDS
                 SUBOPT_0xA:
002541 81ef      	LDD  R30,Y+7
002542 85f8      	LDD  R31,Y+7+1
002543 940e 290b 	CALL __LSLW3
002545 85ac      	LDD  R26,Y+12
002546 85bd      	LDD  R27,Y+12+1
002547 0fae      	ADD  R26,R30
002548 1fbf      	ADC  R27,R31
002549 9711      	SBIW R26,1
00254a 23bb      	TST  R27
00254b 9508      	RET
                 
                 ;OPTIMIZER ADDED SUBROUTINE, CALLED 2 TIMES, CODE SIZE REDUCTION:4 WORDS
                 SUBOPT_0xB:
00254c 85ab      	LDD  R26,Y+11
00254d e0e5      	LDI  R30,LOW(5)
00254e 9fea      	MUL  R30,R26
00254f 01f0      	MOVW R30,R0
002550 0fe2      	ADD  R30,R18
002551 1ff3      	ADC  R31,R19
002552 59e8      	SUBI R30,LOW(-_font*2)
002553 4fff      	SBCI R31,HIGH(-_font*2)
002554 9154      	LPM  R21,Z
002555 9508      	RET
                 
                 ;OPTIMIZER ADDED SUBROUTINE, CALLED 4 TIMES, CODE SIZE REDUCTION:9 WORDS
                 SUBOPT_0xC:
002556 93fa      	ST   -Y,R31
002557 93ea      	ST   -Y,R30
002558 85ad      	LDD  R26,Y+13
002559 85be      	LDD  R27,Y+13+1
00255a 940c 13c4 	JMP  _drawPixel
                 
                 ;OPTIMIZER ADDED SUBROUTINE, CALLED 2 TIMES, CODE SIZE REDUCTION:1 WORDS
                 SUBOPT_0xD:
00255c 81ef      	LDD  R30,Y+7
00255d 85f8      	LDD  R31,Y+7+1
00255e 2fa4      	MOV  R26,R20
00255f e0b0      	LDI  R27,0
002560 17ae      	CP   R26,R30
002561 07bf      	CPC  R27,R31
002562 9508      	RET
                 
                 ;OPTIMIZER ADDED SUBROUTINE, CALLED 2 TIMES, CODE SIZE REDUCTION:1 WORDS
                 SUBOPT_0xE:
002563 81ef      	LDD  R30,Y+7
002564 85f8      	LDD  R31,Y+7+1
002565 81ae      	LDD  R26,Y+6
002566 e0b0      	LDI  R27,0
002567 17ae      	CP   R26,R30
002568 07bf      	CPC  R27,R31
002569 9508      	RET
                 
                 ;OPTIMIZER ADDED SUBROUTINE, CALLED 2 TIMES, CODE SIZE REDUCTION:25 WORDS
                 SUBOPT_0xF:
00256a 81ef      	LDD  R30,Y+7
00256b 85f8      	LDD  R31,Y+7+1
00256c 01d9      	MOVW R26,R18
00256d 940e 294f 	CALL __MULW12
00256f 85ae      	LDD  R26,Y+14
002570 85bf      	LDD  R27,Y+14+1
002571 0fae      	ADD  R26,R30
002572 1fbf      	ADC  R27,R31
002573 2fe4      	MOV  R30,R20
002574 e0f0      	LDI  R31,0
002575 0fea      	ADD  R30,R26
002576 1ffb      	ADC  R31,R27
002577 93fa      	ST   -Y,R31
002578 93ea      	ST   -Y,R30
002579 85e9      	LDD  R30,Y+9
00257a 85fa      	LDD  R31,Y+9+1
00257b 01d8      	MOVW R26,R16
00257c 940e 294f 	CALL __MULW12
00257e 85ae      	LDD  R26,Y+14
00257f 85bf      	LDD  R27,Y+14+1
002580 0fae      	ADD  R26,R30
002581 1fbf      	ADC  R27,R31
002582 85e8      	LDD  R30,Y+8
002583 e0f0      	LDI  R31,0
002584 0fea      	ADD  R30,R26
002585 1ffb      	ADC  R31,R27
002586 cfcf      	RJMP SUBOPT_0xC
                 
                 ;OPTIMIZER ADDED SUBROUTINE, CALLED 2 TIMES, CODE SIZE REDUCTION:1 WORDS
                 SUBOPT_0x10:
002587 85ec      	LDD  R30,Y+12
002588 85fd      	LDD  R31,Y+12+1
002589 940e 2909 	CALL __LSLW4
00258b cf83      	RJMP SUBOPT_0x3
                 
                 ;OPTIMIZER ADDED SUBROUTINE, CALLED 9 TIMES, CODE SIZE REDUCTION:13 WORDS
                 SUBOPT_0x11:
00258c e0a6      	LDI  R26,LOW(6)
00258d e0b0      	LDI  R27,HIGH(6)
00258e 940e 294f 	CALL __MULW12
002590 9508      	RET
                 
                 ;OPTIMIZER ADDED SUBROUTINE, CALLED 3 TIMES, CODE SIZE REDUCTION:1 WORDS
                 SUBOPT_0x12:
002591 940e 290b 	CALL __LSLW3
002593 940e 2909 	CALL __LSLW4
002595 9508      	RET
                 
                 ;OPTIMIZER ADDED SUBROUTINE, CALLED 4 TIMES, CODE SIZE REDUCTION:9 WORDS
                 SUBOPT_0x13:
002596 e3ec      	LDI  R30,LOW(60)
002597 93ea      	ST   -Y,R30
002598 e0e1      	LDI  R30,LOW(_bufer)
002599 e0f3      	LDI  R31,HIGH(_bufer)
00259a 93fa      	ST   -Y,R31
00259b 93ea      	ST   -Y,R30
00259c 9508      	RET
                 
                 ;OPTIMIZER ADDED SUBROUTINE, CALLED 3 TIMES, CODE SIZE REDUCTION:9 WORDS
                 SUBOPT_0x14:
00259d 93ea      	ST   -Y,R30
00259e e0e0      	LDI  R30,LOW(_rx_data)
00259f e0f3      	LDI  R31,HIGH(_rx_data)
0025a0 93fa      	ST   -Y,R31
0025a1 93ea      	ST   -Y,R30
0025a2 e0a0      	LDI  R26,LOW(0)
0025a3 940c 22e0 	JMP  _twi_master_trans
                 
                 ;OPTIMIZER ADDED SUBROUTINE, CALLED 4 TIMES, CODE SIZE REDUCTION:3 WORDS
                 SUBOPT_0x15:
0025a5 93ba      	ST   -Y,R27
0025a6 93aa      	ST   -Y,R26
0025a7 940e 29fb 	CALL __SAVELOCR4
0025a9 9508      	RET
                 
                 ;OPTIMIZER ADDED SUBROUTINE, CALLED 2 TIMES, CODE SIZE REDUCTION:4 WORDS
                 SUBOPT_0x16:
0025aa 91e0 007a 	LDS  R30,122
0025ac 61e0      	ORI  R30,0x10
0025ad 93e0 007a 	STS  122,R30
0025af 91e0 0078 	LDS  R30,120
0025b1 91f0 0079 	LDS  R31,120+1
0025b3 9508      	RET
                 
                 ;OPTIMIZER ADDED SUBROUTINE, CALLED 2 TIMES, CODE SIZE REDUCTION:3 WORDS
                 SUBOPT_0x17:
0025b4 91e0 0793 	LDS  R30,_period+1
0025b6 93e0 0085 	STS  133,R30
0025b8 91e0 0792 	LDS  R30,_period
0025ba 93e0 0084 	STS  132,R30
0025bc 9508      	RET
                 
                 ;OPTIMIZER ADDED SUBROUTINE, CALLED 3 TIMES, CODE SIZE REDUCTION:5 WORDS
                 SUBOPT_0x18:
0025bd 91e0 079c 	LDS  R30,_a1
0025bf 5fef      	SUBI R30,-LOW(1)
0025c0 93e0 079c 	STS  _a1,R30
0025c2 50e1      	SUBI R30,LOW(1)
0025c3 9508      	RET
                 
                 ;OPTIMIZER ADDED SUBROUTINE, CALLED 14 TIMES, CODE SIZE REDUCTION:75 WORDS
                 SUBOPT_0x19:
0025c4 91a0 07a1 	LDS  R26,_timer
0025c6 91b0 07a2 	LDS  R27,_timer+1
0025c8 9180 07a3 	LDS  R24,_timer+2
0025ca 9190 07a4 	LDS  R25,_timer+3
0025cc 9508      	RET
                 
                 ;OPTIMIZER ADDED SUBROUTINE, CALLED 7 TIMES, CODE SIZE REDUCTION:33 WORDS
                 SUBOPT_0x1A:
0025cd 91e0 07a1 	LDS  R30,_timer
0025cf 91f0 07a2 	LDS  R31,_timer+1
0025d1 9160 07a3 	LDS  R22,_timer+2
0025d3 9170 07a4 	LDS  R23,_timer+3
0025d5 9508      	RET
                 
                 ;OPTIMIZER ADDED SUBROUTINE, CALLED 3 TIMES, CODE SIZE REDUCTION:1 WORDS
                 SUBOPT_0x1B:
0025d6 93e0 0792 	STS  _period,R30
0025d8 93f0 0793 	STS  _period+1,R31
0025da 9508      	RET
                 
                 ;OPTIMIZER ADDED SUBROUTINE, CALLED 3 TIMES, CODE SIZE REDUCTION:1 WORDS
                 SUBOPT_0x1C:
0025db 91e0 0792 	LDS  R30,_period
0025dd 91f0 0793 	LDS  R31,_period+1
0025df 9508      	RET
                 
                 ;OPTIMIZER ADDED SUBROUTINE, CALLED 7 TIMES, CODE SIZE REDUCTION:9 WORDS
                 SUBOPT_0x1D:
0025e0 91a0 0792 	LDS  R26,_period
0025e2 91b0 0793 	LDS  R27,_period+1
0025e4 9508      	RET
                 
                 ;OPTIMIZER ADDED SUBROUTINE, CALLED 3 TIMES, CODE SIZE REDUCTION:13 WORDS
                 SUBOPT_0x1E:
0025e5 91e0 0790 	LDS  R30,_tok0
0025e7 91f0 0791 	LDS  R31,_tok0+1
0025e9 91a0 078e 	LDS  R26,_tok
0025eb 91b0 078f 	LDS  R27,_tok+1
0025ed 17ae      	CP   R26,R30
0025ee 07bf      	CPC  R27,R31
0025ef 9508      	RET
                 
                 ;OPTIMIZER ADDED SUBROUTINE, CALLED 3 TIMES, CODE SIZE REDUCTION:3 WORDS
                 SUBOPT_0x1F:
0025f0 91e0 079e 	LDS  R30,_a3
0025f2 5fef      	SUBI R30,-LOW(1)
0025f3 93e0 079e 	STS  _a3,R30
0025f5 9508      	RET
                 
                 ;OPTIMIZER ADDED SUBROUTINE, CALLED 3 TIMES, CODE SIZE REDUCTION:3 WORDS
                 SUBOPT_0x20:
0025f6 b5e7      	IN   R30,0x27
0025f7 2fae      	MOV  R26,R30
0025f8 91e0 079e 	LDS  R30,_a3
0025fa 17ea      	CP   R30,R26
0025fb 9508      	RET
                 
                 ;OPTIMIZER ADDED SUBROUTINE, CALLED 3 TIMES, CODE SIZE REDUCTION:1 WORDS
                 SUBOPT_0x21:
0025fc b5e7      	IN   R30,0x27
0025fd 91a0 079e 	LDS  R26,_a3
0025ff 1bea      	SUB  R30,R26
002600 9508      	RET
                 
                 ;OPTIMIZER ADDED SUBROUTINE, CALLED 3 TIMES, CODE SIZE REDUCTION:3 WORDS
                 SUBOPT_0x22:
002601 b5e8      	IN   R30,0x28
002602 2fae      	MOV  R26,R30
002603 91e0 079e 	LDS  R30,_a3
002605 17ea      	CP   R30,R26
002606 9508      	RET
                 
                 ;OPTIMIZER ADDED SUBROUTINE, CALLED 3 TIMES, CODE SIZE REDUCTION:3 WORDS
                 SUBOPT_0x23:
002607 b5e8      	IN   R30,0x28
002608 91a0 079e 	LDS  R26,_a3
00260a 1bea      	SUB  R30,R26
00260b bde8      	OUT  0x28,R30
00260c 9508      	RET
                 
                 ;OPTIMIZER ADDED SUBROUTINE, CALLED 3 TIMES, CODE SIZE REDUCTION:3 WORDS
                 SUBOPT_0x24:
00260d e0e0      	LDI  R30,LOW(0)
00260e bde8      	OUT  0x28,R30
00260f e0e1      	LDI  R30,LOW(1)
002610 93e0 079e 	STS  _a3,R30
002612 9508      	RET
                 
                 ;OPTIMIZER ADDED SUBROUTINE, CALLED 3 TIMES, CODE SIZE REDUCTION:1 WORDS
                 SUBOPT_0x25:
002613 91e0 079e 	LDS  R30,_a3
002615 93e0 079e 	STS  _a3,R30
002617 9508      	RET
                 
                 ;OPTIMIZER ADDED SUBROUTINE, CALLED 3 TIMES, CODE SIZE REDUCTION:21 WORDS
                 SUBOPT_0x26:
002618 b408      	IN   R0,40
002619 91e0 079e 	LDS  R30,_a3
00261b e0f0      	LDI  R31,0
00261c e9a8      	LDI  R26,LOW(152)
00261d e0b0      	LDI  R27,HIGH(152)
00261e 940e 29cb 	CALL __SWAPW12
002620 1bea      	SUB  R30,R26
002621 0bfb      	SBC  R31,R27
002622 2da0      	MOV  R26,R0
002623 e0b0      	LDI  R27,0
002624 17ae      	CP   R26,R30
002625 07bf      	CPC  R27,R31
002626 9508      	RET
                 
                 ;OPTIMIZER ADDED SUBROUTINE, CALLED 3 TIMES, CODE SIZE REDUCTION:1 WORDS
                 SUBOPT_0x27:
002627 b5e8      	IN   R30,0x28
002628 91a0 079e 	LDS  R26,_a3
00262a 0fea      	ADD  R30,R26
00262b 9508      	RET
                 
                 ;OPTIMIZER ADDED SUBROUTINE, CALLED 3 TIMES, CODE SIZE REDUCTION:35 WORDS
                 SUBOPT_0x28:
00262c b407      	IN   R0,39
00262d 91e0 079e 	LDS  R30,_a3
00262f e0f0      	LDI  R31,0
002630 efaf      	LDI  R26,LOW(255)
002631 e0b0      	LDI  R27,HIGH(255)
002632 940e 29cb 	CALL __SWAPW12
002634 1bea      	SUB  R30,R26
002635 0bfb      	SBC  R31,R27
002636 2da0      	MOV  R26,R0
002637 e0b0      	LDI  R27,0
002638 940e 2927 	CALL __LTW12
00263a 2e0e      	MOV  R0,R30
00263b b5e7      	IN   R30,0x27
00263c 2fae      	MOV  R26,R30
00263d e4e0      	LDI  R30,LOW(64)
00263e 940e 291c 	CALL __LTB12U
002640 21e0      	AND  R30,R0
002641 9508      	RET
                 
                 ;OPTIMIZER ADDED SUBROUTINE, CALLED 3 TIMES, CODE SIZE REDUCTION:3 WORDS
                 SUBOPT_0x29:
002642 b5e7      	IN   R30,0x27
002643 91a0 079e 	LDS  R26,_a3
002645 0fea      	ADD  R30,R26
002646 bde7      	OUT  0x27,R30
002647 9508      	RET
                 
                 ;OPTIMIZER ADDED SUBROUTINE, CALLED 3 TIMES, CODE SIZE REDUCTION:3 WORDS
                 SUBOPT_0x2A:
002648 efef      	LDI  R30,LOW(255)
002649 bde7      	OUT  0x27,R30
00264a e0e1      	LDI  R30,LOW(1)
00264b 93e0 079e 	STS  _a3,R30
00264d 9508      	RET
                 
                 ;OPTIMIZER ADDED SUBROUTINE, CALLED 3 TIMES, CODE SIZE REDUCTION:7 WORDS
                 SUBOPT_0x2B:
00264e e0a0      	LDI  R26,LOW(0)
00264f 940e 1642 	CALL _read_adc
002651 93e0 078e 	STS  _tok,R30
002653 93f0 078f 	STS  _tok+1,R31
002655 9508      	RET
                 
                 ;OPTIMIZER ADDED SUBROUTINE, CALLED 9 TIMES, CODE SIZE REDUCTION:45 WORDS
                 SUBOPT_0x2C:
002656 93e0 07a1 	STS  _timer,R30
002658 93f0 07a2 	STS  _timer+1,R31
00265a 9360 07a3 	STS  _timer+2,R22
00265c 9370 07a4 	STS  _timer+3,R23
00265e 9508      	RET
                 
                 ;OPTIMIZER ADDED SUBROUTINE, CALLED 2 TIMES, CODE SIZE REDUCTION:7 WORDS
                 SUBOPT_0x2D:
00265f e3e0      	LDI  R30,LOW(48)
002660 93ea      	ST   -Y,R30
002661 e0e1      	LDI  R30,LOW(1)
002662 e0f0      	LDI  R31,HIGH(1)
002663 93fa      	ST   -Y,R31
002664 93ea      	ST   -Y,R30
002665 85ab      	LDD  R26,Y+11
002666 85bc      	LDD  R27,Y+11+1
002667 940e 151d 	CALL _drawCharZo
002669 81ec      	LDD  R30,Y+4
00266a 81fd      	LDD  R31,Y+4+1
00266b 9508      	RET
                 
                 ;OPTIMIZER ADDED SUBROUTINE, CALLED 4 TIMES, CODE SIZE REDUCTION:9 WORDS
                 SUBOPT_0x2E:
00266c e0ac      	LDI  R26,LOW(12)
00266d e0b0      	LDI  R27,HIGH(12)
00266e 940e 294f 	CALL __MULW12
002670 cea3      	RJMP SUBOPT_0x4
                 
                 ;OPTIMIZER ADDED SUBROUTINE, CALLED 12 TIMES, CODE SIZE REDUCTION:19 WORDS
                 SUBOPT_0x2F:
002671 93fa      	ST   -Y,R31
002672 93ea      	ST   -Y,R30
002673 cea5      	RJMP SUBOPT_0x5
                 
                 ;OPTIMIZER ADDED SUBROUTINE, CALLED 2 TIMES, CODE SIZE REDUCTION:15 WORDS
                 SUBOPT_0x30:
002674 81ae      	LDD  R26,Y+6
002675 81bf      	LDD  R27,Y+6+1
002676 e0ea      	LDI  R30,LOW(10)
002677 e0f0      	LDI  R31,HIGH(10)
002678 940e 2967 	CALL __DIVW21
00267a 018f      	MOVW R16,R30
00267b e0aa      	LDI  R26,LOW(10)
00267c e0b0      	LDI  R27,HIGH(10)
00267d 940e 294f 	CALL __MULW12
00267f 81ae      	LDD  R26,Y+6
002680 81bf      	LDD  R27,Y+6+1
002681 1bae      	SUB  R26,R30
002682 0bbf      	SBC  R27,R31
002683 83ae      	STD  Y+6,R26
002684 83bf      	STD  Y+6+1,R27
002685 ce93      	RJMP SUBOPT_0x5
                 
                 ;OPTIMIZER ADDED SUBROUTINE, CALLED 2 TIMES, CODE SIZE REDUCTION:38 WORDS
                 SUBOPT_0x31:
002686 81ae      	LDD  R26,Y+6
002687 81bf      	LDD  R27,Y+6+1
002688 e6e4      	LDI  R30,LOW(100)
002689 e0f0      	LDI  R31,HIGH(100)
00268a 940e 2967 	CALL __DIVW21
00268c 019f      	MOVW R18,R30
00268d e6a4      	LDI  R26,LOW(100)
00268e e0b0      	LDI  R27,HIGH(100)
00268f 940e 294f 	CALL __MULW12
002691 81ae      	LDD  R26,Y+6
002692 81bf      	LDD  R27,Y+6+1
002693 1bae      	SUB  R26,R30
002694 0bbf      	SBC  R27,R31
002695 e0ea      	LDI  R30,LOW(10)
002696 e0f0      	LDI  R31,HIGH(10)
002697 940e 2967 	CALL __DIVW21
002699 018f      	MOVW R16,R30
00269a 01f9      	MOVW R30,R18
00269b e6a4      	LDI  R26,LOW(100)
00269c e0b0      	LDI  R27,HIGH(100)
00269d 940e 294f 	CALL __MULW12
00269f 81ae      	LDD  R26,Y+6
0026a0 81bf      	LDD  R27,Y+6+1
0026a1 1bae      	SUB  R26,R30
0026a2 0bbf      	SBC  R27,R31
0026a3 01bd      	MOVW R22,R26
0026a4 01f8      	MOVW R30,R16
0026a5 e0aa      	LDI  R26,LOW(10)
0026a6 e0b0      	LDI  R27,HIGH(10)
0026a7 940e 294f 	CALL __MULW12
0026a9 01db      	MOVW R26,R22
0026aa 1bae      	SUB  R26,R30
0026ab 0bbf      	SBC  R27,R31
0026ac 83ae      	STD  Y+6,R26
0026ad 83bf      	STD  Y+6+1,R27
0026ae ce6a      	RJMP SUBOPT_0x5
                 
                 ;OPTIMIZER ADDED SUBROUTINE, CALLED 6 TIMES, CODE SIZE REDUCTION:37 WORDS
                 SUBOPT_0x32:
0026af e0e1      	LDI  R30,LOW(1)
0026b0 e0f0      	LDI  R31,HIGH(1)
0026b1 93fa      	ST   -Y,R31
0026b2 93ea      	ST   -Y,R30
0026b3 85ab      	LDD  R26,Y+11
0026b4 85bc      	LDD  R27,Y+11+1
0026b5 940e 151d 	CALL _drawCharZo
0026b7 81ec      	LDD  R30,Y+4
0026b8 81fd      	LDD  R31,Y+4+1
0026b9 9508      	RET
                 
                 ;OPTIMIZER ADDED SUBROUTINE, CALLED 3 TIMES, CODE SIZE REDUCTION:5 WORDS
                 SUBOPT_0x33:
0026ba e1a2      	LDI  R26,LOW(18)
0026bb e0b0      	LDI  R27,HIGH(18)
0026bc 940e 294f 	CALL __MULW12
0026be ce55      	RJMP SUBOPT_0x4
                 
                 ;OPTIMIZER ADDED SUBROUTINE, CALLED 3 TIMES, CODE SIZE REDUCTION:15 WORDS
                 SUBOPT_0x34:
0026bf 85ea      	LDD  R30,Y+10
0026c0 5de0      	SUBI R30,-LOW(48)
0026c1 93ea      	ST   -Y,R30
0026c2 e0e1      	LDI  R30,LOW(1)
0026c3 e0f0      	LDI  R31,HIGH(1)
0026c4 93fa      	ST   -Y,R31
0026c5 93ea      	ST   -Y,R30
0026c6 85ab      	LDD  R26,Y+11
0026c7 85bc      	LDD  R27,Y+11+1
0026c8 940c 151d 	JMP  _drawCharZo
                 
                 ;OPTIMIZER ADDED SUBROUTINE, CALLED 2 TIMES, CODE SIZE REDUCTION:4 WORDS
                 SUBOPT_0x35:
0026ca 93ea      	ST   -Y,R30
0026cb e0e1      	LDI  R30,LOW(1)
0026cc e0f0      	LDI  R31,HIGH(1)
0026cd 93fa      	ST   -Y,R31
0026ce 93ea      	ST   -Y,R30
0026cf 85ab      	LDD  R26,Y+11
0026d0 85bc      	LDD  R27,Y+11+1
0026d1 940c 151d 	JMP  _drawCharZo
                 
                 ;OPTIMIZER ADDED SUBROUTINE, CALLED 2 TIMES, CODE SIZE REDUCTION:3 WORDS
                 SUBOPT_0x36:
0026d3 940e 294f 	CALL __MULW12
0026d5 81ae      	LDD  R26,Y+6
0026d6 81bf      	LDD  R27,Y+6+1
0026d7 1bae      	SUB  R26,R30
0026d8 0bbf      	SBC  R27,R31
0026d9 83ae      	STD  Y+6,R26
0026da 83bf      	STD  Y+6+1,R27
0026db 9508      	RET
                 
                 ;OPTIMIZER ADDED SUBROUTINE, CALLED 2 TIMES, CODE SIZE REDUCTION:3 WORDS
                 SUBOPT_0x37:
0026dc e0ea      	LDI  R30,LOW(10)
0026dd e0f0      	LDI  R31,HIGH(10)
0026de 940e 2967 	CALL __DIVW21
0026e0 019f      	MOVW R18,R30
0026e1 e0aa      	LDI  R26,LOW(10)
0026e2 e0b0      	LDI  R27,HIGH(10)
0026e3 9508      	RET
                 
                 ;OPTIMIZER ADDED SUBROUTINE, CALLED 12 TIMES, CODE SIZE REDUCTION:30 WORDS
                 SUBOPT_0x38:
0026e4 93ea      	ST   -Y,R30
0026e5 e0e1      	LDI  R30,LOW(1)
0026e6 e0f0      	LDI  R31,HIGH(1)
0026e7 93fa      	ST   -Y,R31
0026e8 93ea      	ST   -Y,R30
0026e9 9508      	RET
                 
                 ;OPTIMIZER ADDED SUBROUTINE, CALLED 5 TIMES, CODE SIZE REDUCTION:25 WORDS
                 SUBOPT_0x39:
0026ea e0e0      	LDI  R30,LOW(0)
0026eb 93e0 07a1 	STS  _timer,R30
0026ed 93e0 07a2 	STS  _timer+1,R30
0026ef 93e0 07a3 	STS  _timer+2,R30
0026f1 93e0 07a4 	STS  _timer+3,R30
0026f3 9508      	RET
                 
                 ;OPTIMIZER ADDED SUBROUTINE, CALLED 6 TIMES, CODE SIZE REDUCTION:7 WORDS
                 SUBOPT_0x3A:
0026f4 eca8      	LDI  R26,LOW(200)
0026f5 e0b0      	LDI  R27,0
0026f6 940c 28e6 	JMP  _delay_ms
                 
                 ;OPTIMIZER ADDED SUBROUTINE, CALLED 3 TIMES, CODE SIZE REDUCTION:1 WORDS
                 SUBOPT_0x3B:
0026f8 e0e0      	LDI  R30,0
0026f9 9b49      	SBIS 0x9,1
0026fa e0e1      	LDI  R30,1
0026fb 2e0e      	MOV  R0,R30
0026fc 9508      	RET
                 
                 ;OPTIMIZER ADDED SUBROUTINE, CALLED 2 TIMES, CODE SIZE REDUCTION:17 WORDS
                 SUBOPT_0x3C:
0026fd eaa1      	LDI  R26,LOW(_timer)
0026fe e0b7      	LDI  R27,HIGH(_timer)
0026ff 940e 29b7 	CALL __GETD1P_INC
                +
002701 5fef     +SUBI R30 , LOW ( - 1 )
002702 4fff     +SBCI R31 , HIGH ( - 1 )
002703 4f6f     +SBCI R22 , BYTE3 ( - 1 )
002704 4f7f     +SBCI R23 , BYTE4 ( - 1 )
                 	__SUBD1N -1
002705 940e 29bc 	CALL __PUTDP1_DEC
002707 9731      	SBIW R30,1
002708 4060      	SBCI R22,0
002709 4070      	SBCI R23,0
00270a 01df      	MOVW R26,R30
00270b 01cb      	MOVW R24,R22
                +
00270c eae0     +LDI R30 , LOW ( 0x186A0 )
00270d e8f6     +LDI R31 , HIGH ( 0x186A0 )
00270e e061     +LDI R22 , BYTE3 ( 0x186A0 )
00270f e070     +LDI R23 , BYTE4 ( 0x186A0 )
                 	__GETD1N 0x186A0
002710 940e 2939 	CALL __LTD12
002712 21e0      	AND  R30,R0
002713 9508      	RET
                 
                 ;OPTIMIZER ADDED SUBROUTINE, CALLED 9 TIMES, CODE SIZE REDUCTION:13 WORDS
                 SUBOPT_0x3D:
002714 e2e0      	LDI  R30,LOW(32)
002715 e0f0      	LDI  R31,HIGH(32)
002716 16de      	CP   R13,R30
002717 06ef      	CPC  R14,R31
002718 9508      	RET
                 
                 ;OPTIMIZER ADDED SUBROUTINE, CALLED 27 TIMES, CODE SIZE REDUCTION:205 WORDS
                 SUBOPT_0x3E:
002719 9a29      	SBI  0x5,1
                +
00271a e280     +LDI R24 , LOW ( 800 )
00271b e093     +LDI R25 , HIGH ( 800 )
                +__DELAY_USW_LOOP :
00271c 9701     +SBIW R24 , 1
00271d f7f1     +BRNE __DELAY_USW_LOOP
                 	__DELAY_USW 800
00271e 9829      	CBI  0x5,1
                +
00271f e280     +LDI R24 , LOW ( 800 )
002720 e093     +LDI R25 , HIGH ( 800 )
                +__DELAY_USW_LOOP :
002721 9701     +SBIW R24 , 1
002722 f7f1     +BRNE __DELAY_USW_LOOP
                 	__DELAY_USW 800
002723 9508      	RET
                 
                 ;OPTIMIZER ADDED SUBROUTINE, CALLED 30 TIMES, CODE SIZE REDUCTION:55 WORDS
                 SUBOPT_0x3F:
002724 e0e1      	LDI  R30,LOW(1)
002725 e0f0      	LDI  R31,HIGH(1)
                +
002726 0ede     +ADD R13 , R30
002727 1eef     +ADC R14 , R31
                 	__ADDWRR 13,14,30,31
002728 9508      	RET
                 
                 ;OPTIMIZER ADDED SUBROUTINE, CALLED 4 TIMES, CODE SIZE REDUCTION:3 WORDS
                 SUBOPT_0x40:
002729 e0e0      	LDI  R30,0
00272a 9b4a      	SBIS 0x9,2
00272b e0e1      	LDI  R30,1
00272c 2e0e      	MOV  R0,R30
00272d 9508      	RET
                 
                 ;OPTIMIZER ADDED SUBROUTINE, CALLED 6 TIMES, CODE SIZE REDUCTION:7 WORDS
                 SUBOPT_0x41:
                +
00272e 2da3     +MOV R26 , R3
00272f 2db4     +MOV R27 , R4
                 	__GETW2R 3,4
002730 0da5      	ADD  R26,R5
002731 1db6      	ADC  R27,R6
002732 9508      	RET
                 
                 ;OPTIMIZER ADDED SUBROUTINE, CALLED 2 TIMES, CODE SIZE REDUCTION:2 WORDS
                 SUBOPT_0x42:
002733 e2ed      	LDI  R30,LOW(45)
002734 e0f0      	LDI  R31,HIGH(45)
002735 940e 2927 	CALL __LTW12
002737 2e0e      	MOV  R0,R30
002738 cff5      	RJMP SUBOPT_0x41
                 
                 ;OPTIMIZER ADDED SUBROUTINE, CALLED 3 TIMES, CODE SIZE REDUCTION:1 WORDS
                 SUBOPT_0x43:
                +
002739 2de7     +MOV R30 , R7
00273a 2df8     +MOV R31 , R8
                 	__GETW1R 7,8
00273b ce50      	RJMP SUBOPT_0x11
                 
                 ;OPTIMIZER ADDED SUBROUTINE, CALLED 3 TIMES, CODE SIZE REDUCTION:1 WORDS
                 SUBOPT_0x44:
00273c e0e0      	LDI  R30,0
00273d 994a      	SBIC 0x9,2
00273e e0e1      	LDI  R30,1
00273f e0f0      	LDI  R31,0
002740 9508      	RET
                 
                 ;OPTIMIZER ADDED SUBROUTINE, CALLED 2 TIMES, CODE SIZE REDUCTION:16 WORDS
                 SUBOPT_0x45:
002741 0fae      	ADD  R26,R30
002742 1fbf      	ADC  R27,R31
002743 e0e0      	LDI  R30,0
002744 9949      	SBIC 0x9,1
002745 e0e1      	LDI  R30,1
002746 e0f0      	LDI  R31,0
002747 940e 29cb 	CALL __SWAPW12
002749 1bea      	SUB  R30,R26
00274a 0bfb      	SBC  R31,R27
00274b e6a7      	LDI  R26,LOW(103)
00274c e0b0      	LDI  R27,HIGH(103)
00274d 940e 2941 	CALL __MULW12U
00274f 59e8      	SUBI R30,LOW(-_bolezni*2)
002750 4ff3      	SBCI R31,HIGH(-_bolezni*2)
002751 0de7      	ADD  R30,R7
002752 1df8      	ADC  R31,R8
002753 91a4      	LPM  R26,Z
002754 940c 14a7 	JMP  _drawChar
                 
                 ;OPTIMIZER ADDED SUBROUTINE, CALLED 5 TIMES, CODE SIZE REDUCTION:5 WORDS
                 SUBOPT_0x46:
002756 e0e1      	LDI  R30,LOW(1)
002757 e0f0      	LDI  R31,HIGH(1)
                +
002758 0e7e     +ADD R7 , R30
002759 1e8f     +ADC R8 , R31
                 	__ADDWRR 7,8,30,31
00275a 9508      	RET
                 
                 ;OPTIMIZER ADDED SUBROUTINE, CALLED 3 TIMES, CODE SIZE REDUCTION:1 WORDS
                 SUBOPT_0x47:
00275b e0e1      	LDI  R30,LOW(1)
00275c e0f0      	LDI  R31,HIGH(1)
                +
00275d 0e3e     +ADD R3 , R30
00275e 1e4f     +ADC R4 , R31
                 	__ADDWRR 3,4,30,31
00275f 9508      	RET
                 
                 ;OPTIMIZER ADDED SUBROUTINE, CALLED 2 TIMES, CODE SIZE REDUCTION:2 WORDS
                 SUBOPT_0x48:
002760 e0a0      	LDI  R26,0
002761 9b49      	SBIS 0x9,1
002762 e0a1      	LDI  R26,1
002763 e0e0      	LDI  R30,0
002764 9b4a      	SBIS 0x9,2
002765 e0e1      	LDI  R30,1
002766 2bea      	OR   R30,R26
002767 9508      	RET
                 
                 ;OPTIMIZER ADDED SUBROUTINE, CALLED 6 TIMES, CODE SIZE REDUCTION:17 WORDS
                 SUBOPT_0x49:
                +
002768 2de7     +MOV R30 , R7
002769 2df8     +MOV R31 , R8
                 	__GETW1R 7,8
00276a e0ac      	LDI  R26,LOW(12)
00276b e0b0      	LDI  R27,HIGH(12)
00276c 940e 294f 	CALL __MULW12
00276e 9508      	RET
                 
                 ;OPTIMIZER ADDED SUBROUTINE, CALLED 16 TIMES, CODE SIZE REDUCTION:57 WORDS
                 SUBOPT_0x4A:
00276f 93fa      	ST   -Y,R31
002770 93ea      	ST   -Y,R30
002771 e1e0      	LDI  R30,LOW(16)
002772 e0f0      	LDI  R31,HIGH(16)
002773 93fa      	ST   -Y,R31
002774 93ea      	ST   -Y,R30
002775 9508      	RET
                 
                 ;OPTIMIZER ADDED SUBROUTINE, CALLED 3 TIMES, CODE SIZE REDUCTION:5 WORDS
                 SUBOPT_0x4B:
002776 e6a7      	LDI  R26,LOW(103)
002777 e0b0      	LDI  R27,HIGH(103)
002778 940e 2941 	CALL __MULW12U
00277a 59e8      	SUBI R30,LOW(-_bolezni*2)
00277b 4ff3      	SBCI R31,HIGH(-_bolezni*2)
00277c 9508      	RET
                 
                 ;OPTIMIZER ADDED SUBROUTINE, CALLED 10 TIMES, CODE SIZE REDUCTION:15 WORDS
                 SUBOPT_0x4C:
00277d e0a2      	LDI  R26,LOW(2)
00277e e0b0      	LDI  R27,0
00277f 940c 14cd 	JMP  _drawCharZ
                 
                 ;OPTIMIZER ADDED SUBROUTINE, CALLED 87 TIMES, CODE SIZE REDUCTION:169 WORDS
                 SUBOPT_0x4D:
002781 e0e0      	LDI  R30,LOW(0)
002782 e0f0      	LDI  R31,HIGH(0)
002783 93fa      	ST   -Y,R31
002784 93ea      	ST   -Y,R30
002785 9508      	RET
                 
                 ;OPTIMIZER ADDED SUBROUTINE, CALLED 20 TIMES, CODE SIZE REDUCTION:35 WORDS
                 SUBOPT_0x4E:
002786 e7ef      	LDI  R30,LOW(127)
002787 e0f0      	LDI  R31,HIGH(127)
002788 93fa      	ST   -Y,R31
002789 93ea      	ST   -Y,R30
00278a 9508      	RET
                 
                 ;OPTIMIZER ADDED SUBROUTINE, CALLED 17 TIMES, CODE SIZE REDUCTION:29 WORDS
                 SUBOPT_0x4F:
00278b e0a7      	LDI  R26,LOW(7)
00278c e0b0      	LDI  R27,0
00278d 940c 15cf 	JMP  _display
                 
                 ;OPTIMIZER ADDED SUBROUTINE, CALLED 4 TIMES, CODE SIZE REDUCTION:6 WORDS
                 SUBOPT_0x50:
00278f 19e9      	SUB  R30,R9
002790 09fa      	SBC  R31,R10
002791 01bf      	MOVW R22,R30
002792 cfd5      	RJMP SUBOPT_0x49
                 
                 ;OPTIMIZER ADDED SUBROUTINE, CALLED 4 TIMES, CODE SIZE REDUCTION:9 WORDS
                 SUBOPT_0x51:
002793 0fe6      	ADD  R30,R22
002794 1ff7      	ADC  R31,R23
002795 0deb      	ADD  R30,R11
002796 1dfc      	ADC  R31,R12
002797 57ee      	SUBI R30,LOW(-_buffer)
002798 4ffc      	SBCI R31,HIGH(-_buffer)
002799 9508      	RET
                 
                 ;OPTIMIZER ADDED SUBROUTINE, CALLED 5 TIMES, CODE SIZE REDUCTION:13 WORDS
                 SUBOPT_0x52:
00279a e0e2      	LDI  R30,LOW(2)
00279b e0f0      	LDI  R31,HIGH(2)
00279c 93fa      	ST   -Y,R31
00279d 93ea      	ST   -Y,R30
00279e cfe7      	RJMP SUBOPT_0x4E
                 
                 ;OPTIMIZER ADDED SUBROUTINE, CALLED 3 TIMES, CODE SIZE REDUCTION:1 WORDS
                 SUBOPT_0x53:
00279f e0e0      	LDI  R30,LOW(0)
0027a0 bde7      	OUT  0x27,R30
0027a1 bde8      	OUT  0x28,R30
0027a2 9508      	RET
                 
                 ;OPTIMIZER ADDED SUBROUTINE, CALLED 18 TIMES, CODE SIZE REDUCTION:31 WORDS
                 SUBOPT_0x54:
0027a3 e8e0      	LDI  R30,LOW(128)
0027a4 e0f0      	LDI  R31,HIGH(128)
0027a5 16de      	CP   R13,R30
0027a6 06ef      	CPC  R14,R31
0027a7 9508      	RET
                 
                 ;OPTIMIZER ADDED SUBROUTINE, CALLED 4 TIMES, CODE SIZE REDUCTION:6 WORDS
                 SUBOPT_0x55:
0027a8 e0e0      	LDI  R30,LOW(0)
0027a9 93e0 0790 	STS  _tok0,R30
0027ab 93e0 0791 	STS  _tok0+1,R30
0027ad 9508      	RET
                 
                 ;OPTIMIZER ADDED SUBROUTINE, CALLED 5 TIMES, CODE SIZE REDUCTION:45 WORDS
                 SUBOPT_0x56:
0027ae 93fa      	ST   -Y,R31
0027af 93ea      	ST   -Y,R30
0027b0 e0e9      	LDI  R30,LOW(9)
0027b1 e0f0      	LDI  R31,HIGH(9)
0027b2 93fa      	ST   -Y,R31
0027b3 93ea      	ST   -Y,R30
0027b4 e0e1      	LDI  R30,LOW(1)
0027b5 e0f0      	LDI  R31,HIGH(1)
0027b6 93fa      	ST   -Y,R31
0027b7 93ea      	ST   -Y,R30
0027b8 e0a2      	LDI  R26,LOW(2)
0027b9 e0b0      	LDI  R27,0
0027ba 940c 1595 	JMP  _drawStringZ
                 
                 ;OPTIMIZER ADDED SUBROUTINE, CALLED 2 TIMES, CODE SIZE REDUCTION:1 WORDS
                 SUBOPT_0x57:
0027bc 93fa      	ST   -Y,R31
0027bd 93ea      	ST   -Y,R30
0027be e1e8      	LDI  R30,LOW(24)
0027bf e0f0      	LDI  R31,HIGH(24)
0027c0 93fa      	ST   -Y,R31
0027c1 93ea      	ST   -Y,R30
0027c2 9508      	RET
                 
                 ;OPTIMIZER ADDED SUBROUTINE, CALLED 2 TIMES, CODE SIZE REDUCTION:1 WORDS
                 SUBOPT_0x58:
0027c3 91e0 078e 	LDS  R30,_tok
0027c5 91f0 078f 	LDS  R31,_tok+1
0027c7 93fa      	ST   -Y,R31
0027c8 93ea      	ST   -Y,R30
0027c9 9508      	RET
                 
                 ;OPTIMIZER ADDED SUBROUTINE, CALLED 32 TIMES, CODE SIZE REDUCTION:59 WORDS
                 SUBOPT_0x59:
0027ca 93fa      	ST   -Y,R31
0027cb 93ea      	ST   -Y,R30
0027cc e0e1      	LDI  R30,LOW(1)
0027cd e0f0      	LDI  R31,HIGH(1)
0027ce 9508      	RET
                 
                 ;OPTIMIZER ADDED SUBROUTINE, CALLED 6 TIMES, CODE SIZE REDUCTION:27 WORDS
                 SUBOPT_0x5A:
0027cf 93fa      	ST   -Y,R31
0027d0 93ea      	ST   -Y,R30
0027d1 e0a3      	LDI  R26,LOW(3)
0027d2 e0b0      	LDI  R27,0
0027d3 940e 1595 	CALL _drawStringZ
0027d5 cfab      	RJMP SUBOPT_0x4D
                 
                 ;OPTIMIZER ADDED SUBROUTINE, CALLED 7 TIMES, CODE SIZE REDUCTION:9 WORDS
                 SUBOPT_0x5B:
0027d6 940e 13b2 	CALL _clearDisplay
0027d8 cfa8      	RJMP SUBOPT_0x4D
                 
                 ;OPTIMIZER ADDED SUBROUTINE, CALLED 11 TIMES, CODE SIZE REDUCTION:37 WORDS
                 SUBOPT_0x5C:
0027d9 93fa      	ST   -Y,R31
0027da 93ea      	ST   -Y,R30
0027db e0ea      	LDI  R30,LOW(10)
0027dc e0f0      	LDI  R31,HIGH(10)
0027dd cfec      	RJMP SUBOPT_0x59
                 
                 ;OPTIMIZER ADDED SUBROUTINE, CALLED 13 TIMES, CODE SIZE REDUCTION:69 WORDS
                 SUBOPT_0x5D:
0027de 93fa      	ST   -Y,R31
0027df 93ea      	ST   -Y,R30
0027e0 e0a2      	LDI  R26,LOW(2)
0027e1 e0b0      	LDI  R27,0
0027e2 940e 1595 	CALL _drawStringZ
0027e4 cf9c      	RJMP SUBOPT_0x4D
                 
                 ;OPTIMIZER ADDED SUBROUTINE, CALLED 8 TIMES, CODE SIZE REDUCTION:11 WORDS
                 SUBOPT_0x5E:
0027e5 e2e8      	LDI  R30,LOW(40)
0027e6 e0f0      	LDI  R31,HIGH(40)
0027e7 93fa      	ST   -Y,R31
0027e8 93ea      	ST   -Y,R30
0027e9 9508      	RET
                 
                 ;OPTIMIZER ADDED SUBROUTINE, CALLED 2 TIMES, CODE SIZE REDUCTION:17 WORDS
                 SUBOPT_0x5F:
0027ea e0a0      	LDI  R26,0
0027eb 994a      	SBIC 0x9,2
0027ec e0a1      	LDI  R26,1
0027ed e0e0      	LDI  R30,0
0027ee 9949      	SBIC 0x9,1
0027ef e0e1      	LDI  R30,1
0027f0 23ea      	AND  R30,R26
0027f1 2e0e      	MOV  R0,R30
0027f2 e9a8      	LDI  R26,LOW(_paus)
0027f3 e0b7      	LDI  R27,HIGH(_paus)
0027f4 91ed      	LD   R30,X+
0027f5 91fd      	LD   R31,X+
0027f6 9631      	ADIW R30,1
0027f7 93fe      	ST   -X,R31
0027f8 93ee      	ST   -X,R30
0027f9 9731      	SBIW R30,1
0027fa 01df      	MOVW R26,R30
0027fb eee8      	LDI  R30,LOW(1000)
0027fc e0f3      	LDI  R31,HIGH(1000)
0027fd 940e 292d 	CALL __LTW12U
0027ff 21e0      	AND  R30,R0
002800 9508      	RET
                 
                 ;OPTIMIZER ADDED SUBROUTINE, CALLED 3 TIMES, CODE SIZE REDUCTION:1 WORDS
                 SUBOPT_0x60:
002801 e0aa      	LDI  R26,LOW(10)
002802 e0b0      	LDI  R27,0
002803 940c 28e6 	JMP  _delay_ms
                 
                 ;OPTIMIZER ADDED SUBROUTINE, CALLED 7 TIMES, CODE SIZE REDUCTION:9 WORDS
                 SUBOPT_0x61:
002805 e3a2      	LDI  R26,LOW(50)
002806 e0b0      	LDI  R27,0
002807 940c 28e6 	JMP  _delay_ms
                 
                 ;OPTIMIZER ADDED SUBROUTINE, CALLED 2 TIMES, CODE SIZE REDUCTION:3 WORDS
                 SUBOPT_0x62:
                +
002809 eee8     +LDI R30 , LOW ( 2 * _0x0 + ( 44 ) )
00280a e2f5     +LDI R31 , HIGH ( 2 * _0x0 + ( 44 ) )
                 	__POINTW1FN _0x0,44
00280b 93fa      	ST   -Y,R31
00280c 93ea      	ST   -Y,R30
00280d e0e6      	LDI  R30,LOW(6)
00280e e0f0      	LDI  R31,HIGH(6)
00280f cfba      	RJMP SUBOPT_0x59
                 
                 ;OPTIMIZER ADDED SUBROUTINE, CALLED 7 TIMES, CODE SIZE REDUCTION:9 WORDS
                 SUBOPT_0x63:
002810 e1ee      	LDI  R30,LOW(30)
002811 e0f0      	LDI  R31,HIGH(30)
002812 93fa      	ST   -Y,R31
002813 93ea      	ST   -Y,R30
002814 9508      	RET
                 
                 ;OPTIMIZER ADDED SUBROUTINE, CALLED 12 TIMES, CODE SIZE REDUCTION:41 WORDS
                 SUBOPT_0x64:
002815 93fa      	ST   -Y,R31
002816 93ea      	ST   -Y,R30
002817 e0a2      	LDI  R26,LOW(2)
002818 e0b0      	LDI  R27,0
002819 940c 1595 	JMP  _drawStringZ
                 
                 ;OPTIMIZER ADDED SUBROUTINE, CALLED 3 TIMES, CODE SIZE REDUCTION:1 WORDS
                 SUBOPT_0x65:
00281b eea8      	LDI  R26,LOW(1000)
00281c e0b3      	LDI  R27,HIGH(1000)
00281d 940c 28e6 	JMP  _delay_ms
                 
                 ;OPTIMIZER ADDED SUBROUTINE, CALLED 5 TIMES, CODE SIZE REDUCTION:13 WORDS
                 SUBOPT_0x66:
00281f 93fa      	ST   -Y,R31
002820 93ea      	ST   -Y,R30
002821 e0e8      	LDI  R30,LOW(8)
002822 e0f0      	LDI  R31,HIGH(8)
002823 cfa6      	RJMP SUBOPT_0x59
                 
                 ;OPTIMIZER ADDED SUBROUTINE, CALLED 6 TIMES, CODE SIZE REDUCTION:7 WORDS
                 SUBOPT_0x67:
002824 e0e0      	LDI  R30,LOW(0)
002825 e0f0      	LDI  R31,HIGH(0)
002826 cf48      	RJMP SUBOPT_0x4A
                 
                 ;OPTIMIZER ADDED SUBROUTINE, CALLED 2 TIMES, CODE SIZE REDUCTION:1 WORDS
                 SUBOPT_0x68:
002827 e6e0      	LDI  R30,LOW(96)
002828 e0f0      	LDI  R31,HIGH(96)
002829 93fa      	ST   -Y,R31
00282a 93ea      	ST   -Y,R30
00282b cfb9      	RJMP SUBOPT_0x5E
                 
                 ;OPTIMIZER ADDED SUBROUTINE, CALLED 4 TIMES, CODE SIZE REDUCTION:6 WORDS
                 SUBOPT_0x69:
00282c 91e0 078a 	LDS  R30,_chel
00282e 5de0      	SUBI R30,-LOW(48)
00282f ceb4      	RJMP SUBOPT_0x38
                 
                 ;OPTIMIZER ADDED SUBROUTINE, CALLED 4 TIMES, CODE SIZE REDUCTION:33 WORDS
                 SUBOPT_0x6A:
002830 e9aa      	LDI  R26,LOW(_time)
002831 e0b7      	LDI  R27,HIGH(_time)
002832 91ed      	LD   R30,X+
002833 91fd      	LD   R31,X+
002834 9631      	ADIW R30,1
002835 93fe      	ST   -X,R31
002836 93ee      	ST   -X,R30
002837 9731      	SBIW R30,1
002838 01df      	MOVW R26,R30
002839 eee8      	LDI  R30,LOW(65000)
00283a effd      	LDI  R31,HIGH(65000)
00283b 940e 292d 	CALL __LTW12U
00283d 21e0      	AND  R30,R0
00283e 9508      	RET
                 
                 ;OPTIMIZER ADDED SUBROUTINE, CALLED 2 TIMES, CODE SIZE REDUCTION:2 WORDS
                 SUBOPT_0x6B:
00283f 91a0 079a 	LDS  R26,_time
002841 91b0 079b 	LDS  R27,_time+1
002843 3ea8      	CPI  R26,LOW(0xFDE8)
002844 efed      	LDI  R30,HIGH(0xFDE8)
002845 07be      	CPC  R27,R30
002846 9508      	RET
                 
                 ;OPTIMIZER ADDED SUBROUTINE, CALLED 3 TIMES, CODE SIZE REDUCTION:1 WORDS
                 SUBOPT_0x6C:
002847 e6e0      	LDI  R30,LOW(96)
002848 e0f0      	LDI  R31,HIGH(96)
002849 93fa      	ST   -Y,R31
00284a 93ea      	ST   -Y,R30
00284b 9508      	RET
                 
                 ;OPTIMIZER ADDED SUBROUTINE, CALLED 4 TIMES, CODE SIZE REDUCTION:3 WORDS
                 SUBOPT_0x6D:
00284c e0e5      	LDI  R30,LOW(5)
00284d e0f0      	LDI  R31,HIGH(5)
00284e 93fa      	ST   -Y,R31
00284f 93ea      	ST   -Y,R30
002850 9508      	RET
                 
                 ;OPTIMIZER ADDED SUBROUTINE, CALLED 6 TIMES, CODE SIZE REDUCTION:7 WORDS
                 SUBOPT_0x6E:
002851 e2e0      	LDI  R30,LOW(32)
002852 e0f0      	LDI  R31,HIGH(32)
002853 93fa      	ST   -Y,R31
002854 93ea      	ST   -Y,R30
002855 9508      	RET
                 
                 ;OPTIMIZER ADDED SUBROUTINE, CALLED 4 TIMES, CODE SIZE REDUCTION:3 WORDS
                 SUBOPT_0x6F:
002856 e3e0      	LDI  R30,LOW(48)
002857 e0f0      	LDI  R31,HIGH(48)
002858 93fa      	ST   -Y,R31
002859 93ea      	ST   -Y,R30
00285a 9508      	RET
                 
                 ;OPTIMIZER ADDED SUBROUTINE, CALLED 4 TIMES, CODE SIZE REDUCTION:6 WORDS
                 SUBOPT_0x70:
00285b e0e0      	LDI  R30,LOW(0)
00285c 93e0 0798 	STS  _paus,R30
00285e 93e0 0799 	STS  _paus+1,R30
002860 9508      	RET
                 
                 ;OPTIMIZER ADDED SUBROUTINE, CALLED 3 TIMES, CODE SIZE REDUCTION:1 WORDS
                 SUBOPT_0x71:
002861 e9a8      	LDI  R26,LOW(_paus)
002862 e0b7      	LDI  R27,HIGH(_paus)
002863 91ed      	LD   R30,X+
002864 91fd      	LD   R31,X+
002865 9508      	RET
                 
                 ;OPTIMIZER ADDED SUBROUTINE, CALLED 4 TIMES, CODE SIZE REDUCTION:3 WORDS
                 SUBOPT_0x72:
002866 93e0 0798 	STS  _paus,R30
002868 93f0 0799 	STS  _paus+1,R31
00286a 9508      	RET
                 
                 ;OPTIMIZER ADDED SUBROUTINE, CALLED 4 TIMES, CODE SIZE REDUCTION:6 WORDS
                 SUBOPT_0x73:
00286b 91a0 078a 	LDS  R26,_chel
00286d e0b0      	LDI  R27,0
00286e 50a0      	SUBI R26,LOW(-_seans)
00286f 40b0      	SBCI R27,HIGH(-_seans)
002870 9508      	RET
                 
                 ;OPTIMIZER ADDED SUBROUTINE, CALLED 10 TIMES, CODE SIZE REDUCTION:33 WORDS
                 SUBOPT_0x74:
002871 93fa      	ST   -Y,R31
002872 93ea      	ST   -Y,R30
002873 e0e7      	LDI  R30,LOW(7)
002874 e0f0      	LDI  R31,HIGH(7)
002875 cf54      	RJMP SUBOPT_0x59
                 
                 ;OPTIMIZER ADDED SUBROUTINE, CALLED 2 TIMES, CODE SIZE REDUCTION:1 WORDS
                 SUBOPT_0x75:
                +
002876 2de7     +MOV R30 , R7
002877 2df8     +MOV R31 , R8
                 	__GETW1R 7,8
002878 9631      	ADIW R30,1
                +
002879 2e7e     +MOV R7 , R30
00287a 2e8f     +MOV R8 , R31
                 	__PUTW1R 7,8
00287b 9775      	SBIW R30,21
00287c 9508      	RET
                 
                 ;OPTIMIZER ADDED SUBROUTINE, CALLED 2 TIMES, CODE SIZE REDUCTION:1 WORDS
                 SUBOPT_0x76:
00287d e1ae      	LDI  R26,LOW(30)
00287e e0b0      	LDI  R27,0
00287f 940e 28e6 	CALL _delay_ms
002881 24dd      	CLR  R13
002882 24ee      	CLR  R14
002883 9508      	RET
                 
                 ;OPTIMIZER ADDED SUBROUTINE, CALLED 3 TIMES, CODE SIZE REDUCTION:13 WORDS
                 SUBOPT_0x77:
002884 9a29      	SBI  0x5,1
                +
002885 eb80     +LDI R24 , LOW ( 1200 )
002886 e094     +LDI R25 , HIGH ( 1200 )
                +__DELAY_USW_LOOP :
002887 9701     +SBIW R24 , 1
002888 f7f1     +BRNE __DELAY_USW_LOOP
                 	__DELAY_USW 1200
002889 9829      	CBI  0x5,1
                +
00288a eb80     +LDI R24 , LOW ( 1200 )
00288b e094     +LDI R25 , HIGH ( 1200 )
                +__DELAY_USW_LOOP :
00288c 9701     +SBIW R24 , 1
00288d f7f1     +BRNE __DELAY_USW_LOOP
                 	__DELAY_USW 1200
00288e 9508      	RET
                 
                 ;OPTIMIZER ADDED SUBROUTINE, CALLED 2 TIMES, CODE SIZE REDUCTION:1 WORDS
                 SUBOPT_0x78:
00288f e6e8      	LDI  R30,LOW(104)
002890 e0f0      	LDI  R31,HIGH(104)
002891 93fa      	ST   -Y,R31
002892 93ea      	ST   -Y,R30
002893 ceed      	RJMP SUBOPT_0x4D
                 
                 ;OPTIMIZER ADDED SUBROUTINE, CALLED 4 TIMES, CODE SIZE REDUCTION:3 WORDS
                 SUBOPT_0x79:
002894 93fa      	ST   -Y,R31
002895 93ea      	ST   -Y,R30
002896 ceea      	RJMP SUBOPT_0x4D
                 
                 ;OPTIMIZER ADDED SUBROUTINE, CALLED 3 TIMES, CODE SIZE REDUCTION:7 WORDS
                 SUBOPT_0x7A:
002897 91e0 078c 	LDS  R30,_bol0
002899 e1a4      	LDI  R26,LOW(20)
00289a 9fea      	MUL  R30,R26
00289b 01f0      	MOVW R30,R0
00289c 57ec      	SUBI R30,LOW(-_rezhimi*2)
00289d 4ef1      	SBCI R31,HIGH(-_rezhimi*2)
00289e 9508      	RET
                 
                 ;OPTIMIZER ADDED SUBROUTINE, CALLED 2 TIMES, CODE SIZE REDUCTION:1 WORDS
                 SUBOPT_0x7B:
00289f e1e8      	LDI  R30,LOW(24)
0028a0 e0f0      	LDI  R31,HIGH(24)
0028a1 93fa      	ST   -Y,R31
0028a2 93ea      	ST   -Y,R30
0028a3 cef6      	RJMP SUBOPT_0x52
                 
                 ;OPTIMIZER ADDED SUBROUTINE, CALLED 3 TIMES, CODE SIZE REDUCTION:1 WORDS
                 SUBOPT_0x7C:
0028a4 e0e2      	LDI  R30,LOW(2)
0028a5 e0f0      	LDI  R31,HIGH(2)
0028a6 93fa      	ST   -Y,R31
0028a7 93ea      	ST   -Y,R30
0028a8 9508      	RET
                 
                 ;OPTIMIZER ADDED SUBROUTINE, CALLED 12 TIMES, CODE SIZE REDUCTION:19 WORDS
                 SUBOPT_0x7D:
0028a9 940e 14a7 	CALL _drawChar
0028ab ced5      	RJMP SUBOPT_0x4D
                 
                 ;OPTIMIZER ADDED SUBROUTINE, CALLED 2 TIMES, CODE SIZE REDUCTION:1 WORDS
                 SUBOPT_0x7E:
                +
0028ac eae0     +LDI R30 , LOW ( 0x325AA0 )
0028ad e5fa     +LDI R31 , HIGH ( 0x325AA0 )
0028ae e362     +LDI R22 , BYTE3 ( 0x325AA0 )
0028af e070     +LDI R23 , BYTE4 ( 0x325AA0 )
                 	__GETD1N 0x325AA0
0028b0 cda5      	RJMP SUBOPT_0x2C
                 
                 ;OPTIMIZER ADDED SUBROUTINE, CALLED 2 TIMES, CODE SIZE REDUCTION:11 WORDS
                 SUBOPT_0x7F:
0028b1 dd12      	RCALL SUBOPT_0x19
                +
0028b2 e1e0     +LDI R30 , LOW ( 0x2710 )
0028b3 e2f7     +LDI R31 , HIGH ( 0x2710 )
0028b4 e060     +LDI R22 , BYTE3 ( 0x2710 )
0028b5 e070     +LDI R23 , BYTE4 ( 0x2710 )
                 	__GETD1N 0x2710
0028b6 940e 2991 	CALL __DIVD21
0028b8 93fa      	ST   -Y,R31
0028b9 93ea      	ST   -Y,R30
0028ba e0a3      	LDI  R26,LOW(3)
0028bb e0b0      	LDI  R27,0
0028bc 940e 1936 	CALL _timeZ
0028be cec2      	RJMP SUBOPT_0x4D
                 
                 ;OPTIMIZER ADDED SUBROUTINE, CALLED 3 TIMES, CODE SIZE REDUCTION:1 WORDS
                 SUBOPT_0x80:
0028bf e9e6      	LDI  R30,LOW(150)
0028c0 e0f0      	LDI  R31,HIGH(150)
0028c1 cfa4      	RJMP SUBOPT_0x72
                 
                 ;OPTIMIZER ADDED SUBROUTINE, CALLED 2 TIMES, CODE SIZE REDUCTION:1 WORDS
                 SUBOPT_0x81:
0028c2 93fa      	ST   -Y,R31
0028c3 93ea      	ST   -Y,R30
0028c4 e0e2      	LDI  R30,LOW(2)
0028c5 e0f0      	LDI  R31,HIGH(2)
0028c6 cf03      	RJMP SUBOPT_0x59
                 
                 ;OPTIMIZER ADDED SUBROUTINE, CALLED 2 TIMES, CODE SIZE REDUCTION:3 WORDS
                 SUBOPT_0x82:
0028c7 dcfc      	RCALL SUBOPT_0x19
                +
0028c8 e1e0     +LDI R30 , LOW ( 0x2710 )
0028c9 e2f7     +LDI R31 , HIGH ( 0x2710 )
0028ca e060     +LDI R22 , BYTE3 ( 0x2710 )
0028cb e070     +LDI R23 , BYTE4 ( 0x2710 )
                 	__GETD1N 0x2710
0028cc 940e 2991 	CALL __DIVD21
0028ce 9508      	RET
                 
                 ;OPTIMIZER ADDED SUBROUTINE, CALLED 5 TIMES, CODE SIZE REDUCTION:5 WORDS
                 SUBOPT_0x83:
0028cf 91a0 0790 	LDS  R26,_tok0
0028d1 91b0 0791 	LDS  R27,_tok0+1
0028d3 9508      	RET
                 
                 ;OPTIMIZER ADDED SUBROUTINE, CALLED 4 TIMES, CODE SIZE REDUCTION:3 WORDS
                 SUBOPT_0x84:
0028d4 91e0 0790 	LDS  R30,_tok0
0028d6 91f0 0791 	LDS  R31,_tok0+1
0028d8 9508      	RET
                 
                 ;OPTIMIZER ADDED SUBROUTINE, CALLED 3 TIMES, CODE SIZE REDUCTION:1 WORDS
                 SUBOPT_0x85:
0028d9 93e0 0790 	STS  _tok0,R30
0028db 93f0 0791 	STS  _tok0+1,R31
0028dd 9508      	RET
                 
                 ;OPTIMIZER ADDED SUBROUTINE, CALLED 2 TIMES, CODE SIZE REDUCTION:2 WORDS
                 SUBOPT_0x86:
0028de 01df      	MOVW R26,R30
0028df 91e0 0789 	LDS  R30,_seans0
0028e1 e0f0      	LDI  R31,0
0028e2 963a      	ADIW R30,10
0028e3 0fea      	ADD  R30,R26
0028e4 1ffb      	ADC  R31,R27
0028e5 9508      	RET
                 
                 
                 	.CSEG
                 _delay_ms:
0028e6 9610      	adiw r26,0
0028e7 f039      	breq __delay_ms1
                 __delay_ms0:
                +
0028e8 ea80     +LDI R24 , LOW ( 0xFA0 )
0028e9 e09f     +LDI R25 , HIGH ( 0xFA0 )
                +__DELAY_USW_LOOP :
0028ea 9701     +SBIW R24 , 1
0028eb f7f1     +BRNE __DELAY_USW_LOOP
                 	__DELAY_USW 0xFA0
0028ec 95a8      	wdr
0028ed 9711      	sbiw r26,1
0028ee f7c9      	brne __delay_ms0
                 __delay_ms1:
0028ef 9508      	ret
                 
                 __SUBD21:
0028f0 1bae      	SUB  R26,R30
0028f1 0bbf      	SBC  R27,R31
0028f2 0b86      	SBC  R24,R22
0028f3 0b97      	SBC  R25,R23
0028f4 9508      	RET
                 
                 __ANEGW1:
0028f5 95f1      	NEG  R31
0028f6 95e1      	NEG  R30
0028f7 40f0      	SBCI R31,0
0028f8 9508      	RET
                 
                 __ANEGD1:
0028f9 95f0      	COM  R31
0028fa 9560      	COM  R22
0028fb 9570      	COM  R23
0028fc 95e1      	NEG  R30
0028fd 4fff      	SBCI R31,-1
0028fe 4f6f      	SBCI R22,-1
0028ff 4f7f      	SBCI R23,-1
002900 9508      	RET
                 
                 __LSLB12:
002901 23ee      	TST  R30
002902 2e0e      	MOV  R0,R30
002903 2fea      	MOV  R30,R26
002904 f019      	BREQ __LSLB12R
                 __LSLB12L:
002905 0fee      	LSL  R30
002906 940a      	DEC  R0
002907 f7e9      	BRNE __LSLB12L
                 __LSLB12R:
002908 9508      	RET
                 
                 __LSLW4:
002909 0fee      	LSL  R30
00290a 1fff      	ROL  R31
                 __LSLW3:
00290b 0fee      	LSL  R30
00290c 1fff      	ROL  R31
                 __LSLW2:
00290d 0fee      	LSL  R30
00290e 1fff      	ROL  R31
00290f 0fee      	LSL  R30
002910 1fff      	ROL  R31
002911 9508      	RET
                 
                 __LSRW2:
002912 95f6      	LSR  R31
002913 95e7      	ROR  R30
002914 95f6      	LSR  R31
002915 95e7      	ROR  R30
002916 9508      	RET
                 
                 __EQB12:
002917 17ea      	CP   R30,R26
002918 e0e1      	LDI  R30,1
002919 f009      	BREQ __EQB12T
00291a 27ee      	CLR  R30
                 __EQB12T:
00291b 9508      	RET
                 
                 __LTB12U:
00291c 17ae      	CP   R26,R30
00291d e0e1      	LDI  R30,1
00291e f008      	BRLO __LTB12U1
00291f 27ee      	CLR  R30
                 __LTB12U1:
002920 9508      	RET
                 
                 __GEW12:
002921 17ae      	CP   R26,R30
002922 07bf      	CPC  R27,R31
002923 e0e1      	LDI  R30,1
002924 f40c      	BRGE __GEW12T
002925 27ee      	CLR  R30
                 __GEW12T:
002926 9508      	RET
                 
                 __LTW12:
002927 17ae      	CP   R26,R30
002928 07bf      	CPC  R27,R31
002929 e0e1      	LDI  R30,1
00292a f00c      	BRLT __LTW12T
00292b 27ee      	CLR  R30
                 __LTW12T:
00292c 9508      	RET
                 
                 __LTW12U:
00292d 17ae      	CP   R26,R30
00292e 07bf      	CPC  R27,R31
00292f e0e1      	LDI  R30,1
002930 f008      	BRLO __LTW12UT
002931 27ee      	CLR  R30
                 __LTW12UT:
002932 9508      	RET
                 
                 __GTW12U:
002933 17ea      	CP   R30,R26
002934 07fb      	CPC  R31,R27
002935 e0e1      	LDI  R30,1
002936 f008      	BRLO __GTW12UT
002937 27ee      	CLR  R30
                 __GTW12UT:
002938 9508      	RET
                 
                 __LTD12:
002939 17ae      	CP   R26,R30
00293a 07bf      	CPC  R27,R31
00293b 0786      	CPC  R24,R22
00293c 0797      	CPC  R25,R23
00293d e0e1      	LDI  R30,1
00293e f00c      	BRLT __LTD12T
00293f 27ee      	CLR  R30
                 __LTD12T:
002940 9508      	RET
                 
                 __MULW12U:
002941 9ffa      	MUL  R31,R26
002942 2df0      	MOV  R31,R0
002943 9feb      	MUL  R30,R27
002944 0df0      	ADD  R31,R0
002945 9fea      	MUL  R30,R26
002946 2de0      	MOV  R30,R0
002947 0df1      	ADD  R31,R1
002948 9508      	RET
                 
                 __MULB1W2U:
002949 2f6e      	MOV  R22,R30
00294a 9f6a      	MUL  R22,R26
00294b 01f0      	MOVW R30,R0
00294c 9f6b      	MUL  R22,R27
00294d 0df0      	ADD  R31,R0
00294e 9508      	RET
                 
                 __MULW12:
00294f d046      	RCALL __CHKSIGNW
002950 dff0      	RCALL __MULW12U
002951 f40e      	BRTC __MULW121
002952 dfa2      	RCALL __ANEGW1
                 __MULW121:
002953 9508      	RET
                 
                 __DIVW21U:
002954 2400      	CLR  R0
002955 2411      	CLR  R1
002956 e190      	LDI  R25,16
                 __DIVW21U1:
002957 0faa      	LSL  R26
002958 1fbb      	ROL  R27
002959 1c00      	ROL  R0
00295a 1c11      	ROL  R1
00295b 1a0e      	SUB  R0,R30
00295c 0a1f      	SBC  R1,R31
00295d f418      	BRCC __DIVW21U2
00295e 0e0e      	ADD  R0,R30
00295f 1e1f      	ADC  R1,R31
002960 c001      	RJMP __DIVW21U3
                 __DIVW21U2:
002961 60a1      	SBR  R26,1
                 __DIVW21U3:
002962 959a      	DEC  R25
002963 f799      	BRNE __DIVW21U1
002964 01fd      	MOVW R30,R26
002965 01d0      	MOVW R26,R0
002966 9508      	RET
                 
                 __DIVW21:
002967 d02e      	RCALL __CHKSIGNW
002968 dfeb      	RCALL __DIVW21U
002969 f40e      	BRTC __DIVW211
00296a df8a      	RCALL __ANEGW1
                 __DIVW211:
00296b 9508      	RET
                 
                 __DIVD21U:
00296c 933f      	PUSH R19
00296d 934f      	PUSH R20
00296e 935f      	PUSH R21
00296f 2400      	CLR  R0
002970 2411      	CLR  R1
002971 2744      	CLR  R20
002972 2755      	CLR  R21
002973 e230      	LDI  R19,32
                 __DIVD21U1:
002974 0faa      	LSL  R26
002975 1fbb      	ROL  R27
002976 1f88      	ROL  R24
002977 1f99      	ROL  R25
002978 1c00      	ROL  R0
002979 1c11      	ROL  R1
00297a 1f44      	ROL  R20
00297b 1f55      	ROL  R21
00297c 1a0e      	SUB  R0,R30
00297d 0a1f      	SBC  R1,R31
00297e 0b46      	SBC  R20,R22
00297f 0b57      	SBC  R21,R23
002980 f428      	BRCC __DIVD21U2
002981 0e0e      	ADD  R0,R30
002982 1e1f      	ADC  R1,R31
002983 1f46      	ADC  R20,R22
002984 1f57      	ADC  R21,R23
002985 c001      	RJMP __DIVD21U3
                 __DIVD21U2:
002986 60a1      	SBR  R26,1
                 __DIVD21U3:
002987 953a      	DEC  R19
002988 f759      	BRNE __DIVD21U1
002989 01fd      	MOVW R30,R26
00298a 01bc      	MOVW R22,R24
00298b 01d0      	MOVW R26,R0
00298c 01ca      	MOVW R24,R20
00298d 915f      	POP  R21
00298e 914f      	POP  R20
00298f 913f      	POP  R19
002990 9508      	RET
                 
                 __DIVD21:
002991 d012      	RCALL __CHKSIGND
002992 dfd9      	RCALL __DIVD21U
002993 f40e      	BRTC __DIVD211
002994 df64      	RCALL __ANEGD1
                 __DIVD211:
002995 9508      	RET
                 
                 __CHKSIGNW:
002996 94e8      	CLT
002997 fff7      	SBRS R31,7
002998 c002      	RJMP __CHKSW1
002999 df5b      	RCALL __ANEGW1
00299a 9468      	SET
                 __CHKSW1:
00299b ffb7      	SBRS R27,7
00299c c006      	RJMP __CHKSW2
00299d 95a0      	COM  R26
00299e 95b0      	COM  R27
00299f 9611      	ADIW R26,1
0029a0 f800      	BLD  R0,0
0029a1 9403      	INC  R0
0029a2 fa00      	BST  R0,0
                 __CHKSW2:
0029a3 9508      	RET
                 
                 __CHKSIGND:
0029a4 94e8      	CLT
0029a5 ff77      	SBRS R23,7
0029a6 c002      	RJMP __CHKSD1
0029a7 df51      	RCALL __ANEGD1
0029a8 9468      	SET
                 __CHKSD1:
0029a9 ff97      	SBRS R25,7
0029aa c00b      	RJMP __CHKSD2
0029ab 2400      	CLR  R0
0029ac 95a0      	COM  R26
0029ad 95b0      	COM  R27
0029ae 9580      	COM  R24
0029af 9590      	COM  R25
0029b0 9611      	ADIW R26,1
0029b1 1d80      	ADC  R24,R0
0029b2 1d90      	ADC  R25,R0
0029b3 f800      	BLD  R0,0
0029b4 9403      	INC  R0
0029b5 fa00      	BST  R0,0
                 __CHKSD2:
0029b6 9508      	RET
                 
                 __GETD1P_INC:
0029b7 91ed      	LD   R30,X+
0029b8 91fd      	LD   R31,X+
0029b9 916d      	LD   R22,X+
0029ba 917d      	LD   R23,X+
0029bb 9508      	RET
                 
                 __PUTDP1_DEC:
0029bc 937e      	ST   -X,R23
0029bd 936e      	ST   -X,R22
0029be 93fe      	ST   -X,R31
0029bf 93ee      	ST   -X,R30
0029c0 9508      	RET
                 
                 __GETD1S0:
0029c1 81e8      	LD   R30,Y
0029c2 81f9      	LDD  R31,Y+1
0029c3 816a      	LDD  R22,Y+2
0029c4 817b      	LDD  R23,Y+3
0029c5 9508      	RET
                 
                 __PUTD1S0:
0029c6 83e8      	ST   Y,R30
0029c7 83f9      	STD  Y+1,R31
0029c8 836a      	STD  Y+2,R22
0029c9 837b      	STD  Y+3,R23
0029ca 9508      	RET
                 
                 __SWAPW12:
0029cb 2e1b      	MOV  R1,R27
0029cc 2fbf      	MOV  R27,R31
0029cd 2df1      	MOV  R31,R1
                 
                 __SWAPB12:
0029ce 2e1a      	MOV  R1,R26
0029cf 2fae      	MOV  R26,R30
0029d0 2de1      	MOV  R30,R1
0029d1 9508      	RET
                 
                 __EEPROMRDB:
0029d2 99f9      	SBIC EECR,EEWE
0029d3 cffe      	RJMP __EEPROMRDB
0029d4 93ff      	PUSH R31
0029d5 b7ff      	IN   R31,SREG
0029d6 94f8      	CLI
0029d7 bda1      	OUT  EEARL,R26
0029d8 bdb2      	OUT  EEARH,R27
0029d9 9af8      	SBI  EECR,EERE
0029da b5e0      	IN   R30,EEDR
0029db bfff      	OUT  SREG,R31
0029dc 91ff      	POP  R31
0029dd 9508      	RET
                 
                 __EEPROMWRB:
0029de 9bf9      	SBIS EECR,EEWE
0029df c002      	RJMP __EEPROMWRB1
0029e0 95a8      	WDR
0029e1 cffc      	RJMP __EEPROMWRB
                 __EEPROMWRB1:
0029e2 b79f      	IN   R25,SREG
0029e3 94f8      	CLI
0029e4 bda1      	OUT  EEARL,R26
0029e5 bdb2      	OUT  EEARH,R27
0029e6 9af8      	SBI  EECR,EERE
0029e7 b580      	IN   R24,EEDR
0029e8 17e8      	CP   R30,R24
0029e9 f019      	BREQ __EEPROMWRB0
0029ea bde0      	OUT  EEDR,R30
0029eb 9afa      	SBI  EECR,EEMWE
0029ec 9af9      	SBI  EECR,EEWE
                 __EEPROMWRB0:
0029ed bf9f      	OUT  SREG,R25
0029ee 9508      	RET
                 
                 __CPW02:
0029ef 2400      	CLR  R0
0029f0 160a      	CP   R0,R26
0029f1 060b      	CPC  R0,R27
0029f2 9508      	RET
                 
                 __CPD02:
0029f3 2400      	CLR  R0
0029f4 160a      	CP   R0,R26
0029f5 060b      	CPC  R0,R27
0029f6 0608      	CPC  R0,R24
0029f7 0609      	CPC  R0,R25
0029f8 9508      	RET
                 
                 __SAVELOCR6:
0029f9 935a      	ST   -Y,R21
                 __SAVELOCR5:
0029fa 934a      	ST   -Y,R20
                 __SAVELOCR4:
0029fb 933a      	ST   -Y,R19
                 __SAVELOCR3:
0029fc 932a      	ST   -Y,R18
                 __SAVELOCR2:
0029fd 931a      	ST   -Y,R17
0029fe 930a      	ST   -Y,R16
0029ff 9508      	RET
                 
                 __LOADLOCR6:
002a00 815d      	LDD  R21,Y+5
                 __LOADLOCR5:
002a01 814c      	LDD  R20,Y+4
                 __LOADLOCR4:
002a02 813b      	LDD  R19,Y+3
                 __LOADLOCR3:
002a03 812a      	LDD  R18,Y+2
                 __LOADLOCR2:
002a04 8119      	LDD  R17,Y+1
002a05 8108      	LD   R16,Y
002a06 9508      	RET
                 
                 ;END OF CODE MARKER
                 __END_OF_CODE:


RESOURCE USE INFORMATION
------------------------

Notice:
The register and instruction counts are symbol table hit counts,
and hence implicitly used resources are not counted, eg, the
'lpm' instruction without operands implicitly uses r0 and z,
none of which are counted.

x,y,z are separate entities in the symbol table and are
counted separately from r26..r31 here.

.dseg memory usage only counts static data declared with .byte

ATmega328P register use summary:
r0 :  83 r1 :  22 r2 :  21 r3 :  22 r4 :  21 r5 :  14 r6 :  14 r7 :  27 
r8 :  27 r9 :   6 r10:   6 r11:   4 r12:   4 r13:  35 r14:  35 r15:   4 
r16:  69 r17:  57 r18:  51 r19:  28 r20:  23 r21:  17 r22:  62 r23:  45 
r24:  53 r25:  32 r26: 435 r27: 259 r28:  15 r29:   1 r30:1434 r31: 547 
x  :  38 y  : 515 z  :  27 
Registers used: 35 out of 35 (100.0%)

ATmega328P instruction use summary:
.lds  :   0 .lds.l:   0 .sts  :   0 .sts.l:   0 adc   :  56 add   :  57 
adiw  :  32 and   :  12 andi  :  22 asr   :   0 bclr  :   0 bld   :  16 
brbc  :   0 brbs  :   0 brcc  :   2 brcs  :   0 break :   0 breq  :  35 
brge  :  88 brhc  :   0 brhs  :   0 brid  :   0 brie  :   0 brlo  :  24 
brlt  :  15 brmi  :   4 brne  :  70 brpl  :   6 brsh  :  25 brtc  :   3 
brts  :   0 brvc  :   0 brvs  :   0 bset  :   0 bst   :   2 call  : 790 
cbi   :  13 cbr   :   1 clc   :   0 clh   :   0 cli   :   4 cln   :   0 
clr   : 106 cls   :   0 clt   :   9 clv   :   0 clz   :   0 com   :  10 
cp    :  55 cpc   :  96 cpi   : 100 cpse  :   0 dec   :   6 des   :   0 
eor   :   1 fmul  :   0 fmuls :   0 fmulsu:   0 icall :   4 ijmp  :   0 
in    :  30 inc   :   2 jmp   :  41 ld    :  49 ldd   : 228 ldi   : 806 
lds   : 160 lpm   :  35 lsl   :   8 lsr   :   4 mov   :  93 movw  :  84 
mul   :   9 muls  :   0 mulsu :   0 neg   :   3 nop   :   0 or    :   3 
ori   :  23 out   :  59 pop   :  10 push  :  10 rcall :  23 ret   : 140 
reti  :   4 rjmp  : 279 rol   :  14 ror   :   2 sbc   :  27 sbci  :  72 
sbi   :  23 sbic  :  29 sbis  :  20 sbiw  :  49 sbr   :   4 sbrc  :   2 
sbrs  :  11 sec   :   0 seh   :   0 sei   :   4 sen   :   0 ser   :   0 
ses   :   0 set   :  10 sev   :   0 sez   :   0 sleep :   1 spm   :   0 
st    : 245 std   :  37 sts   : 200 sub   :  26 subi  :  81 swap  :   0 
tst   :  10 wdr   :   5 
Instructions used: 74 out of 116 (63.8%)

ATmega328P memory use summary [bytes]:
Segment   Begin    End      Code   Data   Used    Size   Use%
---------------------------------------------------------------
[.cseg] 0x000000 0x00540e  11632   9886  21518   32768  65.7%
[.dseg] 0x000100 0x0007b1      0   1201   1201    2048  58.6%
[.eseg] 0x000000 0x000014      0     20     20    1024   2.0%

Assembly complete, 0 errors, 14 warnings
